ARM GAS  C:\msys64\tmp\ccCw0bTg.s 			page 1


   1              		.cpu cortex-m4
   2              		.arch armv7e-m
   3              		.fpu fpv4-sp-d16
   4              		.eabi_attribute 27, 1
   5              		.eabi_attribute 28, 1
   6              		.eabi_attribute 20, 1
   7              		.eabi_attribute 21, 1
   8              		.eabi_attribute 23, 3
   9              		.eabi_attribute 24, 1
  10              		.eabi_attribute 25, 1
  11              		.eabi_attribute 26, 1
  12              		.eabi_attribute 30, 1
  13              		.eabi_attribute 34, 1
  14              		.eabi_attribute 18, 4
  15              		.file	"power.c"
  16              		.text
  17              	.Ltext0:
  18              		.cfi_sections	.debug_frame
  19              		.file 1 "Core/Src/power.c"
  20              		.global	__aeabi_f2d
  21              		.global	__aeabi_dadd
  22              		.global	__aeabi_d2f
  23              		.section	.text.Run_Control_Loop,"ax",%progbits
  24              		.align	1
  25              		.global	Run_Control_Loop
  26              		.syntax unified
  27              		.thumb
  28              		.thumb_func
  30              	Run_Control_Loop:
  31              	.LFB123:
   1:Core/Src/power.c **** #include "power.h"
   2:Core/Src/power.c **** #include <math.h>
   3:Core/Src/power.c **** #include "adc.h"
   4:Core/Src/power.c **** #include "main.h"
   5:Core/Src/power.c **** volatile SuperCap_Ctrl_t g_ctrl = {0};
   6:Core/Src/power.c **** void Run_Control_Loop(void)
   7:Core/Src/power.c **** {   
  32              		.loc 1 7 1 view -0
  33              		.cfi_startproc
  34              		@ args = 0, pretend = 0, frame = 0
  35              		@ frame_needed = 0, uses_anonymous_args = 0
  36 0000 10B5     		push	{r4, lr}
  37              	.LCFI0:
  38              		.cfi_def_cfa_offset 8
  39              		.cfi_offset 4, -8
  40              		.cfi_offset 14, -4
  41 0002 2DED028B 		vpush.64	{d8}
  42              	.LCFI1:
  43              		.cfi_def_cfa_offset 16
  44              		.cfi_offset 80, -16
  45              		.cfi_offset 81, -12
   8:Core/Src/power.c ****     static uint8_t last_mode = MODE_CHECK;
  46              		.loc 1 8 5 view .LVU1
   9:Core/Src/power.c ****     static uint8_t last_ENABLE = 0;
  47              		.loc 1 9 5 view .LVU2
  10:Core/Src/power.c ****     static float last_buck_duty = 0.05f;
  48              		.loc 1 10 5 view .LVU3
ARM GAS  C:\msys64\tmp\ccCw0bTg.s 			page 2


  11:Core/Src/power.c ****     static float last_boost_duty = 0.0f;
  49              		.loc 1 11 5 view .LVU4
  12:Core/Src/power.c ****     static float precharge_duty=0.0f;
  50              		.loc 1 12 5 view .LVU5
  13:Core/Src/power.c ****     float pid_out = 0.0f;float error = 0.0f;float current_Kp = 0.0f;            float v_mid =0.0f; 
  51              		.loc 1 13 5 view .LVU6
  52              	.LVL0:
  53              		.loc 1 13 26 view .LVU7
  54              		.loc 1 13 45 view .LVU8
  55              		.loc 1 13 81 view .LVU9
  56              		.loc 1 13 103 view .LVU10
  14:Core/Src/power.c ****      float target_input_ia = 0.0f;       float max_ia_inductor = 0.0f;       float final_target = 0
  57              		.loc 1 14 6 view .LVU11
  58              		.loc 1 14 42 view .LVU12
  59              		.loc 1 14 78 view .LVU13
  60              		.loc 1 14 111 view .LVU14
  15:Core/Src/power.c ****     float est_boost = 0.0f;
  61              		.loc 1 15 5 view .LVU15
  16:Core/Src/power.c **** /************************************************************基础数据计算********************
  17:Core/Src/power.c ****     g_ctrl.power_vin = g_ctrl.va * g_ctrl.ia;
  62              		.loc 1 17 5 view .LVU16
  63              		.loc 1 17 30 is_stmt 0 view .LVU17
  64 0006 BC4B     		ldr	r3, .L191+8
  65 0008 D3ED007A 		vldr.32	s15, [r3]
  66              		.loc 1 17 42 view .LVU18
  67 000c 93ED037A 		vldr.32	s14, [r3, #12]
  68              		.loc 1 17 34 view .LVU19
  69 0010 67EE877A 		vmul.f32	s15, s15, s14
  70              		.loc 1 17 22 view .LVU20
  71 0014 C3ED087A 		vstr.32	s15, [r3, #32]
  18:Core/Src/power.c ****     g_ctrl.power_cap = g_ctrl.vb * g_ctrl.ib;
  72              		.loc 1 18 5 is_stmt 1 view .LVU21
  73              		.loc 1 18 30 is_stmt 0 view .LVU22
  74 0018 D3ED017A 		vldr.32	s15, [r3, #4]
  75              		.loc 1 18 42 view .LVU23
  76 001c 93ED047A 		vldr.32	s14, [r3, #16]
  77              		.loc 1 18 34 view .LVU24
  78 0020 67EE877A 		vmul.f32	s15, s15, s14
  79              		.loc 1 18 22 view .LVU25
  80 0024 C3ED077A 		vstr.32	s15, [r3, #28]
  19:Core/Src/power.c ****     g_ctrl.i_chassis = g_ctrl.ia - g_ctrl.ir; 
  81              		.loc 1 19 5 is_stmt 1 view .LVU26
  82              		.loc 1 19 30 is_stmt 0 view .LVU27
  83 0028 D3ED037A 		vldr.32	s15, [r3, #12]
  84              		.loc 1 19 42 view .LVU28
  85 002c 93ED027A 		vldr.32	s14, [r3, #8]
  86              		.loc 1 19 34 view .LVU29
  87 0030 77EEC77A 		vsub.f32	s15, s15, s14
  88              		.loc 1 19 22 view .LVU30
  89 0034 C3ED067A 		vstr.32	s15, [r3, #24]
  20:Core/Src/power.c ****     if (g_ctrl.i_chassis < 0.0f) g_ctrl.i_chassis = 0.0f;
  90              		.loc 1 20 5 is_stmt 1 view .LVU31
  91              		.loc 1 20 15 is_stmt 0 view .LVU32
  92 0038 D3ED067A 		vldr.32	s15, [r3, #24]
  93              		.loc 1 20 8 view .LVU33
  94 003c F5EEC07A 		vcmpe.f32	s15, #0
  95 0040 F1EE10FA 		vmrs	APSR_nzcv, FPSCR
ARM GAS  C:\msys64\tmp\ccCw0bTg.s 			page 3


  96 0044 6BD4     		bmi	.L172
  97              	.L2:
  21:Core/Src/power.c ****     g_ctrl.power_chassis = g_ctrl.va * g_ctrl.i_chassis;
  98              		.loc 1 21 5 is_stmt 1 view .LVU34
  99              		.loc 1 21 34 is_stmt 0 view .LVU35
 100 0046 AC4C     		ldr	r4, .L191+8
 101 0048 D4ED007A 		vldr.32	s15, [r4]
 102              		.loc 1 21 46 view .LVU36
 103 004c 94ED067A 		vldr.32	s14, [r4, #24]
 104              		.loc 1 21 38 view .LVU37
 105 0050 67EE877A 		vmul.f32	s15, s15, s14
 106              		.loc 1 21 26 view .LVU38
 107 0054 C4ED097A 		vstr.32	s15, [r4, #36]
  22:Core/Src/power.c ****    float resistive_drop = (g_ctrl.target_current * CIRCUIT_RESISTANCE)+0.4 ;
 108              		.loc 1 22 4 is_stmt 1 view .LVU39
 109              		.loc 1 22 34 is_stmt 0 view .LVU40
 110 0058 94ED0B7A 		vldr.32	s14, [r4, #44]
 111              		.loc 1 22 50 view .LVU41
 112 005c DFEDA77A 		vldr.32	s15, .L191+12
 113 0060 67EE277A 		vmul.f32	s15, s14, s15
 114 0064 17EE900A 		vmov	r0, s15
 115 0068 FFF7FEFF 		bl	__aeabi_f2d
 116              	.LVL1:
 117              		.loc 1 22 71 view .LVU42
 118 006c A0A3     		adr	r3, .L191
 119 006e D3E90023 		ldrd	r2, [r3]
 120 0072 FFF7FEFF 		bl	__aeabi_dadd
 121              	.LVL2:
 122              		.loc 1 22 10 view .LVU43
 123 0076 FFF7FEFF 		bl	__aeabi_d2f
 124              	.LVL3:
 125 007a 07EE900A 		vmov	s15, r0
 126              	.LVL4:
  23:Core/Src/power.c ****    float voltage_ratio = 0.0f;
 127              		.loc 1 23 4 is_stmt 1 view .LVU44
  24:Core/Src/power.c ****  if(g_ctrl.va > 1.0f) {
 128              		.loc 1 24 2 view .LVU45
 129              		.loc 1 24 11 is_stmt 0 view .LVU46
 130 007e D4ED006A 		vldr.32	s13, [r4]
 131              		.loc 1 24 4 view .LVU47
 132 0082 B7EE007A 		vmov.f32	s14, #1.0e+0
 133 0086 F4EEC76A 		vcmpe.f32	s13, s14
 134 008a F1EE10FA 		vmrs	APSR_nzcv, FPSCR
 135 008e 49DD     		ble	.L158
  25:Core/Src/power.c ****             voltage_ratio = (g_ctrl.vb + resistive_drop) / g_ctrl.va;
 136              		.loc 1 25 13 is_stmt 1 view .LVU48
 137              		.loc 1 25 36 is_stmt 0 view .LVU49
 138 0090 94ED017A 		vldr.32	s14, [r4, #4]
 139              		.loc 1 25 40 view .LVU50
 140 0094 77EE277A 		vadd.f32	s15, s14, s15
 141              		.loc 1 25 66 view .LVU51
 142 0098 94ED007A 		vldr.32	s14, [r4]
 143              		.loc 1 25 27 view .LVU52
 144 009c 87EE878A 		vdiv.f32	s16, s15, s14
 145              	.LVL5:
 146              	.L4:
  26:Core/Src/power.c ****         }
ARM GAS  C:\msys64\tmp\ccCw0bTg.s 			page 4


  27:Core/Src/power.c **** /************************************************************目标电流计算********************
  28:Core/Src/power.c ****  float available_power = g_ctrl.power_limit - g_ctrl.power_chassis - 3.0f; 
 147              		.loc 1 28 2 is_stmt 1 view .LVU53
 148              		.loc 1 28 32 is_stmt 0 view .LVU54
 149 00a0 954B     		ldr	r3, .L191+8
 150 00a2 D3ED0A7A 		vldr.32	s15, [r3, #40]
 151              		.loc 1 28 53 view .LVU55
 152 00a6 93ED097A 		vldr.32	s14, [r3, #36]
 153              		.loc 1 28 45 view .LVU56
 154 00aa 77EEC77A 		vsub.f32	s15, s15, s14
 155              		.loc 1 28 8 view .LVU57
 156 00ae B0EE087A 		vmov.f32	s14, #3.0e+0
 157 00b2 77EEC77A 		vsub.f32	s15, s15, s14
 158              	.LVL6:
  29:Core/Src/power.c ****  if (g_ctrl.enable!=0 && g_ctrl.enable!=1 && g_ctrl.enable!=-1)
 159              		.loc 1 29 2 is_stmt 1 view .LVU58
 160              		.loc 1 29 12 is_stmt 0 view .LVU59
 161 00b6 93F83430 		ldrb	r3, [r3, #52]	@ zero_extendqisi2
 162 00ba 5BB2     		sxtb	r3, r3
 163              		.loc 1 29 5 view .LVU60
 164 00bc ABB1     		cbz	r3, .L6
 165              		.loc 1 29 32 discriminator 1 view .LVU61
 166 00be 8E4B     		ldr	r3, .L191+8
 167 00c0 93F83430 		ldrb	r3, [r3, #52]	@ zero_extendqisi2
 168 00c4 5BB2     		sxtb	r3, r3
 169              		.loc 1 29 23 discriminator 1 view .LVU62
 170 00c6 012B     		cmp	r3, #1
 171 00c8 0FD0     		beq	.L6
 172              		.loc 1 29 52 discriminator 2 view .LVU63
 173 00ca 8B4B     		ldr	r3, .L191+8
 174 00cc 93F83430 		ldrb	r3, [r3, #52]	@ zero_extendqisi2
 175 00d0 5BB2     		sxtb	r3, r3
 176              		.loc 1 29 43 discriminator 2 view .LVU64
 177 00d2 B3F1FF3F 		cmp	r3, #-1
 178 00d6 08D0     		beq	.L6
  30:Core/Src/power.c ****  {
  31:Core/Src/power.c ****     if (available_power >3.0f)g_ctrl.enable = 2 ;
 179              		.loc 1 31 5 is_stmt 1 view .LVU65
 180              		.loc 1 31 8 is_stmt 0 view .LVU66
 181 00d8 F4EEC77A 		vcmpe.f32	s15, s14
 182 00dc F1EE10FA 		vmrs	APSR_nzcv, FPSCR
 183 00e0 23DD     		ble	.L159
 184              		.loc 1 31 31 is_stmt 1 discriminator 1 view .LVU67
 185              		.loc 1 31 45 is_stmt 0 discriminator 1 view .LVU68
 186 00e2 854B     		ldr	r3, .L191+8
 187 00e4 0222     		movs	r2, #2
 188 00e6 83F83420 		strb	r2, [r3, #52]
 189              	.L6:
  32:Core/Src/power.c ****     else if (available_power <0.0f)g_ctrl.enable = 3;
  33:Core/Src/power.c ****     else if (available_power >=0.0f && available_power <=3.0f)g_ctrl.enable = 4 ;   
  34:Core/Src/power.c ****  }
  35:Core/Src/power.c ****   switch (g_ctrl.enable)
 190              		.loc 1 35 3 is_stmt 1 view .LVU69
 191              		.loc 1 35 17 is_stmt 0 view .LVU70
 192 00ea 834B     		ldr	r3, .L191+8
 193 00ec 93F83430 		ldrb	r3, [r3, #52]	@ zero_extendqisi2
 194 00f0 5BB2     		sxtb	r3, r3
ARM GAS  C:\msys64\tmp\ccCw0bTg.s 			page 5


 195              		.loc 1 35 3 view .LVU71
 196 00f2 022B     		cmp	r3, #2
 197 00f4 34D0     		beq	.L13
 198 00f6 032B     		cmp	r3, #3
 199 00f8 5AD1     		bne	.L15
  36:Core/Src/power.c ****   { 
  37:Core/Src/power.c ****     case 2:
  38:Core/Src/power.c ****         target_input_ia = (g_ctrl.power_limit-3) / g_ctrl.va;
  39:Core/Src/power.c ****         max_ia_inductor = (MAX_INDUCTOR_CURRENT * g_ctrl.vb) / g_ctrl.va;       
  40:Core/Src/power.c ****         if(max_ia_inductor < target_input_ia) final_target = max_ia_inductor;
  41:Core/Src/power.c ****         else final_target = target_input_ia;
  42:Core/Src/power.c ****         if (final_target > 2.0f) final_target = 2.0f; //电流限制放开       
  43:Core/Src/power.c ****         g_ctrl.target_current = final_target;
  44:Core/Src/power.c ****         break;
  45:Core/Src/power.c ****     case 3:
  46:Core/Src/power.c ****        target_input_ir = available_power / g_ctrl.va;
 200              		.loc 1 46 8 is_stmt 1 view .LVU72
 201              		.loc 1 46 50 is_stmt 0 view .LVU73
 202 00fa 7F4B     		ldr	r3, .L191+8
 203 00fc D3ED006A 		vldr.32	s13, [r3]
 204              		.loc 1 46 24 view .LVU74
 205 0100 87EEA67A 		vdiv.f32	s14, s15, s13
 206              	.LVL7:
  47:Core/Src/power.c ****        if (target_input_ir < -6.0f) target_input_ir = -6.0f; //电流限制放开       
 207              		.loc 1 47 8 is_stmt 1 view .LVU75
 208              		.loc 1 47 11 is_stmt 0 view .LVU76
 209 0104 F9EE087A 		vmov.f32	s15, #-6.0e+0
 210              	.LVL8:
 211              		.loc 1 47 11 view .LVU77
 212 0108 B4EEE77A 		vcmpe.f32	s14, s15
 213 010c F1EE10FA 		vmrs	APSR_nzcv, FPSCR
 214 0110 01D5     		bpl	.L19
 215              		.loc 1 47 53 discriminator 1 view .LVU78
 216 0112 B0EE677A 		vmov.f32	s14, s15
 217              	.LVL9:
 218              	.L19:
  48:Core/Src/power.c ****        g_ctrl.target_current = target_input_ir;
 219              		.loc 1 48 8 is_stmt 1 view .LVU79
 220              		.loc 1 48 30 is_stmt 0 view .LVU80
 221 0116 784B     		ldr	r3, .L191+8
 222 0118 83ED0B7A 		vstr.32	s14, [r3, #44]
  49:Core/Src/power.c ****         break;
 223              		.loc 1 49 9 is_stmt 1 view .LVU81
 224 011c 48E0     		b	.L15
 225              	.LVL10:
 226              	.L172:
  20:Core/Src/power.c ****     g_ctrl.power_chassis = g_ctrl.va * g_ctrl.i_chassis;
 227              		.loc 1 20 34 discriminator 1 view .LVU82
  20:Core/Src/power.c ****     g_ctrl.power_chassis = g_ctrl.va * g_ctrl.i_chassis;
 228              		.loc 1 20 51 is_stmt 0 discriminator 1 view .LVU83
 229 011e 0022     		movs	r2, #0
 230 0120 9A61     		str	r2, [r3, #24]	@ float
 231 0122 90E7     		b	.L2
 232              	.LVL11:
 233              	.L158:
  23:Core/Src/power.c ****  if(g_ctrl.va > 1.0f) {
 234              		.loc 1 23 10 view .LVU84
ARM GAS  C:\msys64\tmp\ccCw0bTg.s 			page 6


 235 0124 9FED768A 		vldr.32	s16, .L191+16
 236 0128 BAE7     		b	.L4
 237              	.LVL12:
 238              	.L159:
  32:Core/Src/power.c ****     else if (available_power >=0.0f && available_power <=3.0f)g_ctrl.enable = 4 ;   
 239              		.loc 1 32 10 is_stmt 1 view .LVU85
  32:Core/Src/power.c ****     else if (available_power >=0.0f && available_power <=3.0f)g_ctrl.enable = 4 ;   
 240              		.loc 1 32 13 is_stmt 0 view .LVU86
 241 012a F5EEC07A 		vcmpe.f32	s15, #0
 242 012e F1EE10FA 		vmrs	APSR_nzcv, FPSCR
 243 0132 10D4     		bmi	.L173
  33:Core/Src/power.c ****  }
 244              		.loc 1 33 10 is_stmt 1 view .LVU87
  33:Core/Src/power.c ****  }
 245              		.loc 1 33 13 is_stmt 0 view .LVU88
 246 0134 F5EEC07A 		vcmpe.f32	s15, #0
 247 0138 F1EE10FA 		vmrs	APSR_nzcv, FPSCR
 248 013c D5DB     		blt	.L6
  33:Core/Src/power.c ****  }
 249              		.loc 1 33 37 discriminator 1 view .LVU89
 250 013e B0EE087A 		vmov.f32	s14, #3.0e+0
 251 0142 F4EEC77A 		vcmpe.f32	s15, s14
 252 0146 F1EE10FA 		vmrs	APSR_nzcv, FPSCR
 253 014a CED8     		bhi	.L6
  33:Core/Src/power.c ****  }
 254              		.loc 1 33 63 is_stmt 1 discriminator 2 view .LVU90
  33:Core/Src/power.c ****  }
 255              		.loc 1 33 77 is_stmt 0 discriminator 2 view .LVU91
 256 014c 6A4B     		ldr	r3, .L191+8
 257 014e 0422     		movs	r2, #4
 258 0150 83F83420 		strb	r2, [r3, #52]
 259 0154 C9E7     		b	.L6
 260              	.L173:
  32:Core/Src/power.c ****     else if (available_power >=0.0f && available_power <=3.0f)g_ctrl.enable = 4 ;   
 261              		.loc 1 32 36 is_stmt 1 discriminator 1 view .LVU92
  32:Core/Src/power.c ****     else if (available_power >=0.0f && available_power <=3.0f)g_ctrl.enable = 4 ;   
 262              		.loc 1 32 50 is_stmt 0 discriminator 1 view .LVU93
 263 0156 684B     		ldr	r3, .L191+8
 264 0158 0322     		movs	r2, #3
 265 015a 83F83420 		strb	r2, [r3, #52]
 266 015e C4E7     		b	.L6
 267              	.L13:
  38:Core/Src/power.c ****         max_ia_inductor = (MAX_INDUCTOR_CURRENT * g_ctrl.vb) / g_ctrl.va;       
 268              		.loc 1 38 9 is_stmt 1 view .LVU94
  38:Core/Src/power.c ****         max_ia_inductor = (MAX_INDUCTOR_CURRENT * g_ctrl.vb) / g_ctrl.va;       
 269              		.loc 1 38 34 is_stmt 0 view .LVU95
 270 0160 654B     		ldr	r3, .L191+8
 271 0162 93ED0A7A 		vldr.32	s14, [r3, #40]
  38:Core/Src/power.c ****         max_ia_inductor = (MAX_INDUCTOR_CURRENT * g_ctrl.vb) / g_ctrl.va;       
 272              		.loc 1 38 46 view .LVU96
 273 0166 F0EE087A 		vmov.f32	s15, #3.0e+0
 274              	.LVL13:
  38:Core/Src/power.c ****         max_ia_inductor = (MAX_INDUCTOR_CURRENT * g_ctrl.vb) / g_ctrl.va;       
 275              		.loc 1 38 46 view .LVU97
 276 016a 37EE677A 		vsub.f32	s14, s14, s15
  38:Core/Src/power.c ****         max_ia_inductor = (MAX_INDUCTOR_CURRENT * g_ctrl.vb) / g_ctrl.va;       
 277              		.loc 1 38 58 view .LVU98
ARM GAS  C:\msys64\tmp\ccCw0bTg.s 			page 7


 278 016e D3ED006A 		vldr.32	s13, [r3]
  38:Core/Src/power.c ****         max_ia_inductor = (MAX_INDUCTOR_CURRENT * g_ctrl.vb) / g_ctrl.va;       
 279              		.loc 1 38 25 view .LVU99
 280 0172 C7EE267A 		vdiv.f32	s15, s14, s13
 281              	.LVL14:
  39:Core/Src/power.c ****         if(max_ia_inductor < target_input_ia) final_target = max_ia_inductor;
 282              		.loc 1 39 9 is_stmt 1 view .LVU100
  39:Core/Src/power.c ****         if(max_ia_inductor < target_input_ia) final_target = max_ia_inductor;
 283              		.loc 1 39 57 is_stmt 0 view .LVU101
 284 0176 93ED017A 		vldr.32	s14, [r3, #4]
  39:Core/Src/power.c ****         if(max_ia_inductor < target_input_ia) final_target = max_ia_inductor;
 285              		.loc 1 39 49 view .LVU102
 286 017a F2EE0E6A 		vmov.f32	s13, #1.5e+1
 287 017e 27EE267A 		vmul.f32	s14, s14, s13
  39:Core/Src/power.c ****         if(max_ia_inductor < target_input_ia) final_target = max_ia_inductor;
 288              		.loc 1 39 70 view .LVU103
 289 0182 93ED006A 		vldr.32	s12, [r3]
  39:Core/Src/power.c ****         if(max_ia_inductor < target_input_ia) final_target = max_ia_inductor;
 290              		.loc 1 39 25 view .LVU104
 291 0186 C7EE066A 		vdiv.f32	s13, s14, s12
 292              	.LVL15:
  40:Core/Src/power.c ****         else final_target = target_input_ia;
 293              		.loc 1 40 9 is_stmt 1 view .LVU105
  40:Core/Src/power.c ****         else final_target = target_input_ia;
 294              		.loc 1 40 11 is_stmt 0 view .LVU106
 295 018a F4EEE67A 		vcmpe.f32	s15, s13
 296 018e F1EE10FA 		vmrs	APSR_nzcv, FPSCR
 297 0192 01DD     		ble	.L16
  40:Core/Src/power.c ****         else final_target = target_input_ia;
 298              		.loc 1 40 60 discriminator 1 view .LVU107
 299 0194 F0EE667A 		vmov.f32	s15, s13
 300              	.LVL16:
 301              	.L16:
  42:Core/Src/power.c ****         g_ctrl.target_current = final_target;
 302              		.loc 1 42 9 is_stmt 1 view .LVU108
  42:Core/Src/power.c ****         g_ctrl.target_current = final_target;
 303              		.loc 1 42 12 is_stmt 0 view .LVU109
 304 0198 B0EE007A 		vmov.f32	s14, #2.0e+0
 305 019c F4EEC77A 		vcmpe.f32	s15, s14
 306 01a0 F1EE10FA 		vmrs	APSR_nzcv, FPSCR
 307 01a4 01DD     		ble	.L18
  42:Core/Src/power.c ****         g_ctrl.target_current = final_target;
 308              		.loc 1 42 47 discriminator 1 view .LVU110
 309 01a6 F0EE477A 		vmov.f32	s15, s14
 310              	.LVL17:
 311              	.L18:
  43:Core/Src/power.c ****         break;
 312              		.loc 1 43 9 is_stmt 1 view .LVU111
  43:Core/Src/power.c ****         break;
 313              		.loc 1 43 31 is_stmt 0 view .LVU112
 314 01aa 534B     		ldr	r3, .L191+8
 315 01ac C3ED0B7A 		vstr.32	s15, [r3, #44]
  44:Core/Src/power.c ****     case 3:
 316              		.loc 1 44 9 is_stmt 1 view .LVU113
 317              	.LVL18:
 318              	.L15:
  50:Core/Src/power.c ****      case 0:break;
ARM GAS  C:\msys64\tmp\ccCw0bTg.s 			page 8


  51:Core/Src/power.c ****      case 1:break; 
  52:Core/Src/power.c ****      case 4:break;
  53:Core/Src/power.c ****   
  54:Core/Src/power.c **** }
  55:Core/Src/power.c **** /***********************************************************模式切换***************************
  56:Core/Src/power.c **** if (g_ctrl.enable==2||g_ctrl.enable==3)
 319              		.loc 1 56 1 view .LVU114
 320              		.loc 1 56 11 is_stmt 0 view .LVU115
 321 01b0 514B     		ldr	r3, .L191+8
 322 01b2 93F83430 		ldrb	r3, [r3, #52]	@ zero_extendqisi2
 323 01b6 5BB2     		sxtb	r3, r3
 324              		.loc 1 56 4 view .LVU116
 325 01b8 022B     		cmp	r3, #2
 326 01ba 00F08C80 		beq	.L20
 327              		.loc 1 56 29 discriminator 1 view .LVU117
 328 01be 4E4B     		ldr	r3, .L191+8
 329 01c0 93F83430 		ldrb	r3, [r3, #52]	@ zero_extendqisi2
 330 01c4 5BB2     		sxtb	r3, r3
 331              		.loc 1 56 21 discriminator 1 view .LVU118
 332 01c6 032B     		cmp	r3, #3
 333 01c8 00F08580 		beq	.L20
 334              	.LVL19:
 335              	.L21:
  57:Core/Src/power.c **** {
  58:Core/Src/power.c ****  switch (g_ctrl.work_mode)
  59:Core/Src/power.c ****   {
  60:Core/Src/power.c ****         case MODE_BUCK_ONLY:
  61:Core/Src/power.c ****             if (g_ctrl.vb > 21.0) g_ctrl.work_mode = MODE_TRANSITION;//21.12
  62:Core/Src/power.c ****             break;
  63:Core/Src/power.c ****         case MODE_TRANSITION:
  64:Core/Src/power.c ****             if (g_ctrl.vb < 20.0f) g_ctrl.work_mode = MODE_BUCK_ONLY;//20
  65:Core/Src/power.c ****             else if (g_ctrl.vb>29.5f) g_ctrl.work_mode = MODE_OVER;//29.5
  66:Core/Src/power.c ****             break;
  67:Core/Src/power.c ****         case MODE_RELEASE_BOOST:
  68:Core/Src/power.c ****             if (g_ctrl.vb > 21.0) g_ctrl.work_mode = MODE_RELEASE_TRANSITION;
  69:Core/Src/power.c ****             else if (g_ctrl.vb < 11.f) g_ctrl.work_mode = MODE_OVER;
  70:Core/Src/power.c ****             break;    
  71:Core/Src/power.c ****         case MODE_RELEASE_TRANSITION:
  72:Core/Src/power.c ****             if (g_ctrl.vb < 20.0f) g_ctrl.work_mode = MODE_RELEASE_BOOST;
  73:Core/Src/power.c ****             else if (g_ctrl.vb > 29.5f) g_ctrl.work_mode = MODE_OVER;//29.5
  74:Core/Src/power.c ****             break;
  75:Core/Src/power.c ****         case MODE_OVER:
  76:Core/Src/power.c ****                  break;
  77:Core/Src/power.c ****         case MODE_CHECK: 
  78:Core/Src/power.c ****                  break;
  79:Core/Src/power.c ****     }
  80:Core/Src/power.c ****  if (g_ctrl.work_mode != last_mode) 
  81:Core/Src/power.c ****     {
  82:Core/Src/power.c ****        g_ctrl.pid_integral = 0.0f; 
  83:Core/Src/power.c ****     }
  84:Core/Src/power.c ****      if (g_ctrl.enable != last_ENABLE) 
  85:Core/Src/power.c ****     {
  86:Core/Src/power.c ****        g_ctrl.pid_integral = 0.0f; 
  87:Core/Src/power.c ****        if(last_ENABLE==3 && g_ctrl.enable==2) g_ctrl.enable=1;
  88:Core/Src/power.c ****        else if(last_ENABLE==2 && g_ctrl.enable==3) g_ctrl.enable=-1; 
  89:Core/Src/power.c ****        else if(last_ENABLE==4 && g_ctrl.enable==2) {g_ctrl.enable=1; HAL_HRTIM_WaveformOutputStart(
  90:Core/Src/power.c ****        else if(last_ENABLE==4 && g_ctrl.enable==3)  {g_ctrl.enable=-1;  HAL_HRTIM_WaveformOutputSta
ARM GAS  C:\msys64\tmp\ccCw0bTg.s 			page 9


  91:Core/Src/power.c ****    
  92:Core/Src/power.c ****     }
  93:Core/Src/power.c **** /************************************************************PID计算*****************************
  94:Core/Src/power.c **** switch (g_ctrl.enable)
  95:Core/Src/power.c **** {
  96:Core/Src/power.c ****     case 2:
  97:Core/Src/power.c ****       current_Kp = 0.00025f; 
  98:Core/Src/power.c ****      if (g_ctrl.work_mode == MODE_TRANSITION)
  99:Core/Src/power.c ****       {
 100:Core/Src/power.c ****      current_Kp = 0.001f; 
 101:Core/Src/power.c ****     }
 102:Core/Src/power.c ****      else if (g_ctrl.work_mode == MODE_BUCK_ONLY)
 103:Core/Src/power.c ****       {
 104:Core/Src/power.c ****      current_Kp = 0.00025f; 
 105:Core/Src/power.c ****       }
 106:Core/Src/power.c ****             error = g_ctrl.target_current - g_ctrl.ia;
 107:Core/Src/power.c ****              g_ctrl.pid_integral += error * 0.0002f; 
 108:Core/Src/power.c ****         // 积分限幅
 109:Core/Src/power.c ****         if (g_ctrl.pid_integral > 0.2f) g_ctrl.pid_integral = 0.2f; 
 110:Core/Src/power.c ****         if (g_ctrl.pid_integral < -0.2f) g_ctrl.pid_integral = -0.2f;
 111:Core/Src/power.c ****          pid_out = (error * current_Kp) + g_ctrl.pid_integral;
 112:Core/Src/power.c ****     break;
 113:Core/Src/power.c ****     case 3:
 114:Core/Src/power.c ****        current_Kp = 0.00008f; 
 115:Core/Src/power.c ****      if (g_ctrl.work_mode == MODE_RELEASE_TRANSITION)
 116:Core/Src/power.c ****       {
 117:Core/Src/power.c ****      current_Kp = 0.0005f; 
 118:Core/Src/power.c ****             error = g_ctrl.target_current - g_ctrl.ir;
 119:Core/Src/power.c ****              g_ctrl.pid_integral += error * 0.0002f; 
 120:Core/Src/power.c ****         // 积分限幅
 121:Core/Src/power.c ****         if (g_ctrl.pid_integral > 0.2f) g_ctrl.pid_integral = 0.2f; 
 122:Core/Src/power.c ****         if (g_ctrl.pid_integral < -0.2f) g_ctrl.pid_integral = -0.2f;
 123:Core/Src/power.c ****          pid_out = (error * current_Kp) + g_ctrl.pid_integral;
 124:Core/Src/power.c ****     }
 125:Core/Src/power.c ****      else if (g_ctrl.work_mode == MODE_RELEASE_BOOST)
 126:Core/Src/power.c ****       {
 127:Core/Src/power.c ****      current_Kp = 0.00008f; 
 128:Core/Src/power.c ****             error = g_ctrl.target_current - g_ctrl.ir;
 129:Core/Src/power.c ****              g_ctrl.pid_integral += error * 0.0002f; 
 130:Core/Src/power.c ****         // 积分限幅
 131:Core/Src/power.c ****         if (g_ctrl.pid_integral > 0.2f) g_ctrl.pid_integral = 0.2f; 
 132:Core/Src/power.c ****         if (g_ctrl.pid_integral < -0.2f) g_ctrl.pid_integral = -0.2f;
 133:Core/Src/power.c ****          pid_out = (error * current_Kp) + g_ctrl.pid_integral;
 134:Core/Src/power.c ****       }
 135:Core/Src/power.c ****     break;
 136:Core/Src/power.c ****     case 0:break;
 137:Core/Src/power.c ****     case 1:break;
 138:Core/Src/power.c ****     case 4:break;
 139:Core/Src/power.c **** }
 140:Core/Src/power.c **** 
 141:Core/Src/power.c **** /************************************************************输出PID+前馈/上下管设置******
 142:Core/Src/power.c **** switch (g_ctrl.work_mode) {
 143:Core/Src/power.c ****         case MODE_BUCK_ONLY:
 144:Core/Src/power.c ****             g_ctrl.final_duty_boost = 0.0f; // Boost 直通
 145:Core/Src/power.c ****             if (g_ctrl.vb<5)
 146:Core/Src/power.c ****             {
 147:Core/Src/power.c ****               precharge_duty+=0.0000002;
ARM GAS  C:\msys64\tmp\ccCw0bTg.s 			page 10


 148:Core/Src/power.c ****         if (precharge_duty > 0.30f) precharge_duty = 0.30f;
 149:Core/Src/power.c ****         g_ctrl.final_duty_buck = precharge_duty;
 150:Core/Src/power.c ****         g_ctrl.pid_integral = 0.0f;
 151:Core/Src/power.c ****             }
 152:Core/Src/power.c ****            else  g_ctrl.final_duty_buck = voltage_ratio  + pid_out; // 前馈+PID
 153:Core/Src/power.c ****             break;
 154:Core/Src/power.c ****         case MODE_TRANSITION:       
 155:Core/Src/power.c ****         g_ctrl.final_duty_buck=0.86f; // 过渡期 Buck 固定占空比，防止振荡
 156:Core/Src/power.c ****            v_mid =    g_ctrl.final_duty_buck* g_ctrl.va;
 157:Core/Src/power.c ****            ff_boost_trans = 1.0f - (v_mid / g_ctrl.vb);
 158:Core/Src/power.c ****             if(ff_boost_trans < 0) ff_boost_trans = 0;
 159:Core/Src/power.c ****             g_ctrl.final_duty_boost = ff_boost_trans + pid_out;
 160:Core/Src/power.c ****         
 161:Core/Src/power.c ****             break;
 162:Core/Src/power.c ****         case MODE_RELEASE_BOOST:
 163:Core/Src/power.c ****         g_ctrl.final_duty_boost = 0.0f; // Boost 直通
 164:Core/Src/power.c ****         g_ctrl.final_duty_buck = voltage_ratio  + pid_out;
 165:Core/Src/power.c ****              break;
 166:Core/Src/power.c ****         case MODE_RELEASE_TRANSITION:     
 167:Core/Src/power.c ****          g_ctrl.final_duty_buck=0.80f;
 168:Core/Src/power.c ****              v_mid =    g_ctrl.final_duty_buck* g_ctrl.va;
 169:Core/Src/power.c ****              ff_boost_trans = 1.0f - (v_mid / g_ctrl.vb);
 170:Core/Src/power.c ****             if(ff_boost_trans < 0) ff_boost_trans = 0;
 171:Core/Src/power.c ****             g_ctrl.final_duty_boost = ff_boost_trans + pid_out;
 172:Core/Src/power.c ****             break;
 173:Core/Src/power.c ****         case MODE_OVER:
 174:Core/Src/power.c ****                 break;    
 175:Core/Src/power.c ****         case MODE_CHECK:
 176:Core/Src/power.c ****                 break;  
 177:Core/Src/power.c ****     } 
 178:Core/Src/power.c **** }
 179:Core/Src/power.c **** /************************************************************启动模式设置********************
 180:Core/Src/power.c **** if(g_ctrl.enable == 1)
 336              		.loc 1 180 1 is_stmt 1 view .LVU119
 337              		.loc 1 180 10 is_stmt 0 view .LVU120
 338 01cc 4A4B     		ldr	r3, .L191+8
 339 01ce 93F83430 		ldrb	r3, [r3, #52]	@ zero_extendqisi2
 340 01d2 5BB2     		sxtb	r3, r3
 341              		.loc 1 180 3 view .LVU121
 342 01d4 012B     		cmp	r3, #1
 343 01d6 00F0AD82 		beq	.L174
 181:Core/Src/power.c **** {
 182:Core/Src/power.c ****     if (g_ctrl.vb < 20.0f) g_ctrl.work_mode = MODE_BUCK_ONLY;
 183:Core/Src/power.c ****     else  if (g_ctrl.vb >= 20.0f && g_ctrl.vb < 29.5f)  g_ctrl.work_mode = MODE_TRANSITION;
 184:Core/Src/power.c ****     else if (g_ctrl.vb >=29.5f) g_ctrl.work_mode = MODE_OVER;
 185:Core/Src/power.c ****    if (g_ctrl.work_mode == MODE_BUCK_ONLY) {
 186:Core/Src/power.c ****             g_ctrl.final_duty_buck = voltage_ratio;
 187:Core/Src/power.c ****             g_ctrl.final_duty_boost = 0.0f;
 188:Core/Src/power.c ****         }
 189:Core/Src/power.c ****         else if (g_ctrl.work_mode == MODE_TRANSITION) {
 190:Core/Src/power.c ****             g_ctrl.final_duty_buck = 0.86f;
 191:Core/Src/power.c ****             // 计算对应的 Boost Duty
 192:Core/Src/power.c ****              v_mid = g_ctrl.final_duty_buck * g_ctrl.va;
 193:Core/Src/power.c ****              est_boost = 1.0f - (v_mid / g_ctrl.vb);
 194:Core/Src/power.c ****             if(est_boost < 0) est_boost = 0;
 195:Core/Src/power.c ****             g_ctrl.final_duty_boost = est_boost;
 196:Core/Src/power.c ****         }
ARM GAS  C:\msys64\tmp\ccCw0bTg.s 			page 11


 197:Core/Src/power.c ****         
 198:Core/Src/power.c ****     g_ctrl.pid_integral = 0.0f;
 199:Core/Src/power.c ****     g_ctrl.enable =2;
 200:Core/Src/power.c **** }
 201:Core/Src/power.c **** else if(g_ctrl.enable == -1)
 344              		.loc 1 201 6 is_stmt 1 view .LVU122
 345              		.loc 1 201 15 is_stmt 0 view .LVU123
 346 01da 474B     		ldr	r3, .L191+8
 347 01dc 93F83430 		ldrb	r3, [r3, #52]	@ zero_extendqisi2
 348 01e0 5BB2     		sxtb	r3, r3
 349              		.loc 1 201 8 view .LVU124
 350 01e2 B3F1FF3F 		cmp	r3, #-1
 351 01e6 00F00A83 		beq	.L175
 352              	.LVL20:
 353              	.L82:
 202:Core/Src/power.c **** {
 203:Core/Src/power.c ****     if (g_ctrl.vb < 20.0f) g_ctrl.work_mode = MODE_RELEASE_BOOST;
 204:Core/Src/power.c ****     else  if (g_ctrl.vb >= 20.0f && g_ctrl.vb < 29.5f)  g_ctrl.work_mode = MODE_RELEASE_TRANSITION;
 205:Core/Src/power.c ****     else if (g_ctrl.vb >=29.5f) g_ctrl.work_mode = MODE_OVER;
 206:Core/Src/power.c ****    if (g_ctrl.work_mode == MODE_RELEASE_BOOST) {
 207:Core/Src/power.c ****             g_ctrl.final_duty_buck = voltage_ratio;
 208:Core/Src/power.c ****             g_ctrl.final_duty_boost = 0.0f;
 209:Core/Src/power.c ****         }
 210:Core/Src/power.c ****         else if (g_ctrl.work_mode == MODE_RELEASE_TRANSITION) {
 211:Core/Src/power.c ****             g_ctrl.final_duty_buck = 0.80f;
 212:Core/Src/power.c ****             // 计算对应的 Boost Duty
 213:Core/Src/power.c ****             v_mid = g_ctrl.final_duty_buck * g_ctrl.va;
 214:Core/Src/power.c ****             est_boost = 1.0f - (v_mid / g_ctrl.vb);
 215:Core/Src/power.c ****             if(est_boost < 0) est_boost = 0;
 216:Core/Src/power.c ****             g_ctrl.final_duty_boost = est_boost;
 217:Core/Src/power.c ****         }
 218:Core/Src/power.c ****         
 219:Core/Src/power.c ****     g_ctrl.pid_integral = 0.0f;
 220:Core/Src/power.c ****     g_ctrl.enable =3;
 221:Core/Src/power.c **** }
 222:Core/Src/power.c ****         if (g_ctrl.work_mode != last_mode || g_ctrl.enable != last_ENABLE)
 354              		.loc 1 222 9 is_stmt 1 view .LVU125
 355              		.loc 1 222 19 is_stmt 0 view .LVU126
 356 01ea 434B     		ldr	r3, .L191+8
 357 01ec 93F83530 		ldrb	r3, [r3, #53]	@ zero_extendqisi2
 358 01f0 DBB2     		uxtb	r3, r3
 359              		.loc 1 222 30 view .LVU127
 360 01f2 444A     		ldr	r2, .L191+20
 361 01f4 1278     		ldrb	r2, [r2]	@ zero_extendqisi2
 362              		.loc 1 222 12 view .LVU128
 363 01f6 9342     		cmp	r3, r2
 364 01f8 00F08483 		beq	.L176
 365              	.L93:
 223:Core/Src/power.c ****          {
 224:Core/Src/power.c ****         last_buck_duty = g_ctrl.final_duty_buck; 
 366              		.loc 1 224 9 is_stmt 1 view .LVU129
 367              		.loc 1 224 32 is_stmt 0 view .LVU130
 368 01fc 3E4B     		ldr	r3, .L191+8
 369 01fe 996B     		ldr	r1, [r3, #56]	@ float
 370              		.loc 1 224 24 view .LVU131
 371 0200 414A     		ldr	r2, .L191+24
 372 0202 1160     		str	r1, [r2]	@ float
ARM GAS  C:\msys64\tmp\ccCw0bTg.s 			page 12


 225:Core/Src/power.c ****         last_boost_duty = g_ctrl.final_duty_boost;
 373              		.loc 1 225 9 is_stmt 1 view .LVU132
 374              		.loc 1 225 33 is_stmt 0 view .LVU133
 375 0204 D96B     		ldr	r1, [r3, #60]	@ float
 376              		.loc 1 225 25 view .LVU134
 377 0206 414A     		ldr	r2, .L191+28
 378 0208 1160     		str	r1, [r2]	@ float
 226:Core/Src/power.c ****         last_mode = g_ctrl.work_mode;
 379              		.loc 1 226 9 is_stmt 1 view .LVU135
 380              		.loc 1 226 27 is_stmt 0 view .LVU136
 381 020a 93F83510 		ldrb	r1, [r3, #53]	@ zero_extendqisi2
 382              		.loc 1 226 19 view .LVU137
 383 020e 3D4A     		ldr	r2, .L191+20
 384 0210 1170     		strb	r1, [r2]
 227:Core/Src/power.c ****         last_ENABLE = g_ctrl.enable;
 385              		.loc 1 227 9 is_stmt 1 view .LVU138
 386              		.loc 1 227 29 is_stmt 0 view .LVU139
 387 0212 93F83420 		ldrb	r2, [r3, #52]	@ zero_extendqisi2
 388              		.loc 1 227 21 view .LVU140
 389 0216 3E4B     		ldr	r3, .L191+32
 390 0218 1A70     		strb	r2, [r3]
 391              	.L94:
 228:Core/Src/power.c ****         }
 229:Core/Src/power.c **** 
 230:Core/Src/power.c **** /************************************************************斜率限制**************************
 231:Core/Src/power.c ****     float delta = g_ctrl.final_duty_boost - last_boost_duty;
 392              		.loc 1 231 5 is_stmt 1 view .LVU141
 393              		.loc 1 231 25 is_stmt 0 view .LVU142
 394 021a 374B     		ldr	r3, .L191+8
 395 021c D3ED0F7A 		vldr.32	s15, [r3, #60]
 396              		.loc 1 231 43 view .LVU143
 397 0220 3A4B     		ldr	r3, .L191+28
 398 0222 93ED007A 		vldr.32	s14, [r3]
 399              		.loc 1 231 11 view .LVU144
 400 0226 77EEC77A 		vsub.f32	s15, s15, s14
 401              	.LVL21:
 232:Core/Src/power.c ****     const float MAX_SLEW_RATE = 0.0001f; 
 402              		.loc 1 232 5 is_stmt 1 view .LVU145
 233:Core/Src/power.c ****     if (delta > MAX_SLEW_RATE) {
 403              		.loc 1 233 5 view .LVU146
 404              		.loc 1 233 8 is_stmt 0 view .LVU147
 405 022a DFED3A6A 		vldr.32	s13, .L191+36
 406 022e F4EEE67A 		vcmpe.f32	s15, s13
 407 0232 F1EE10FA 		vmrs	APSR_nzcv, FPSCR
 408 0236 40F36F83 		ble	.L167
 234:Core/Src/power.c ****         g_ctrl.final_duty_boost = last_boost_duty + MAX_SLEW_RATE;
 409              		.loc 1 234 9 is_stmt 1 view .LVU148
 410              		.loc 1 234 51 is_stmt 0 view .LVU149
 411 023a 37EE267A 		vadd.f32	s14, s14, s13
 412              		.loc 1 234 33 view .LVU150
 413 023e 2E4B     		ldr	r3, .L191+8
 414 0240 83ED0F7A 		vstr.32	s14, [r3, #60]
 415              	.LVL22:
 416              	.L97:
 235:Core/Src/power.c ****     } else if (delta < -MAX_SLEW_RATE) {
 236:Core/Src/power.c ****         g_ctrl.final_duty_boost = last_boost_duty - MAX_SLEW_RATE;
 237:Core/Src/power.c ****     }
ARM GAS  C:\msys64\tmp\ccCw0bTg.s 			page 13


 238:Core/Src/power.c ****     float delta_buck = g_ctrl.final_duty_buck - last_buck_duty;
 417              		.loc 1 238 5 is_stmt 1 view .LVU151
 418              		.loc 1 238 30 is_stmt 0 view .LVU152
 419 0244 2C4B     		ldr	r3, .L191+8
 420 0246 D3ED0E7A 		vldr.32	s15, [r3, #56]
 421              		.loc 1 238 47 view .LVU153
 422 024a 2F4B     		ldr	r3, .L191+24
 423 024c 93ED007A 		vldr.32	s14, [r3]
 424              		.loc 1 238 11 view .LVU154
 425 0250 77EEC77A 		vsub.f32	s15, s15, s14
 426              	.LVL23:
 239:Core/Src/power.c ****     if (delta_buck > MAX_SLEW_RATE) g_ctrl.final_duty_buck = last_buck_duty + MAX_SLEW_RATE;
 427              		.loc 1 239 5 is_stmt 1 view .LVU155
 428              		.loc 1 239 8 is_stmt 0 view .LVU156
 429 0254 DFED2F6A 		vldr.32	s13, .L191+36
 430 0258 F4EEE67A 		vcmpe.f32	s15, s13
 431 025c F1EE10FA 		vmrs	APSR_nzcv, FPSCR
 432 0260 40F36A83 		ble	.L168
 433              		.loc 1 239 37 is_stmt 1 discriminator 1 view .LVU157
 434              		.loc 1 239 77 is_stmt 0 discriminator 1 view .LVU158
 435 0264 37EE267A 		vadd.f32	s14, s14, s13
 436              		.loc 1 239 60 discriminator 1 view .LVU159
 437 0268 234B     		ldr	r3, .L191+8
 438 026a 83ED0E7A 		vstr.32	s14, [r3, #56]
 439              	.LVL24:
 440              	.L101:
 240:Core/Src/power.c ****     else if (delta_buck < -MAX_SLEW_RATE) g_ctrl.final_duty_buck = last_buck_duty - MAX_SLEW_RATE;
 241:Core/Src/power.c ****    
 242:Core/Src/power.c **** /************************************************************边界限制**************************
 243:Core/Src/power.c ****     if (g_ctrl.final_duty_buck > BUCK_MAX_DUTY) g_ctrl.final_duty_buck = BUCK_MAX_DUTY;
 441              		.loc 1 243 5 is_stmt 1 view .LVU160
 442              		.loc 1 243 15 is_stmt 0 view .LVU161
 443 026e 224B     		ldr	r3, .L191+8
 444 0270 93ED0E7A 		vldr.32	s14, [r3, #56]
 445              		.loc 1 243 8 view .LVU162
 446 0274 F7EE007A 		vmov.f32	s15, #1.0e+0
 447 0278 B4EEE77A 		vcmpe.f32	s14, s15
 448 027c F1EE10FA 		vmrs	APSR_nzcv, FPSCR
 449 0280 01DD     		ble	.L103
 450              		.loc 1 243 49 is_stmt 1 discriminator 1 view .LVU163
 451              		.loc 1 243 72 is_stmt 0 discriminator 1 view .LVU164
 452 0282 C3ED0E7A 		vstr.32	s15, [r3, #56]
 453              	.L103:
 244:Core/Src/power.c ****     if (g_ctrl.final_duty_buck < 0.0f) g_ctrl.final_duty_buck = 0.0f;
 454              		.loc 1 244 5 is_stmt 1 view .LVU165
 455              		.loc 1 244 15 is_stmt 0 view .LVU166
 456 0286 1C4B     		ldr	r3, .L191+8
 457 0288 D3ED0E7A 		vldr.32	s15, [r3, #56]
 458              		.loc 1 244 8 view .LVU167
 459 028c F5EEC07A 		vcmpe.f32	s15, #0
 460 0290 F1EE10FA 		vmrs	APSR_nzcv, FPSCR
 461 0294 00F16083 		bmi	.L177
 462              	.L105:
 245:Core/Src/power.c **** 
 246:Core/Src/power.c ****     if (g_ctrl.final_duty_boost > BOOST_MAX_DUTY) g_ctrl.final_duty_boost = BOOST_MAX_DUTY;
 463              		.loc 1 246 5 is_stmt 1 view .LVU168
 464              		.loc 1 246 15 is_stmt 0 view .LVU169
ARM GAS  C:\msys64\tmp\ccCw0bTg.s 			page 14


 465 0298 174B     		ldr	r3, .L191+8
 466 029a 93ED0F7A 		vldr.32	s14, [r3, #60]
 467              		.loc 1 246 8 view .LVU170
 468 029e DFED1E7A 		vldr.32	s15, .L191+40
 469 02a2 B4EEE77A 		vcmpe.f32	s14, s15
 470 02a6 F1EE10FA 		vmrs	APSR_nzcv, FPSCR
 471 02aa 01DD     		ble	.L107
 472              		.loc 1 246 51 is_stmt 1 discriminator 1 view .LVU171
 473              		.loc 1 246 75 is_stmt 0 discriminator 1 view .LVU172
 474 02ac C3ED0F7A 		vstr.32	s15, [r3, #60]
 475              	.L107:
 247:Core/Src/power.c ****     if (g_ctrl.final_duty_boost < 0.0f) g_ctrl.final_duty_boost = 0.0f;
 476              		.loc 1 247 5 is_stmt 1 view .LVU173
 477              		.loc 1 247 15 is_stmt 0 view .LVU174
 478 02b0 114B     		ldr	r3, .L191+8
 479 02b2 D3ED0F7A 		vldr.32	s15, [r3, #60]
 480              		.loc 1 247 8 view .LVU175
 481 02b6 F5EEC07A 		vcmpe.f32	s15, #0
 482 02ba F1EE10FA 		vmrs	APSR_nzcv, FPSCR
 483 02be 00F14E83 		bmi	.L178
 484              	.L109:
 248:Core/Src/power.c ****      last_buck_duty = g_ctrl.final_duty_buck;  
 485              		.loc 1 248 6 is_stmt 1 view .LVU176
 486              		.loc 1 248 29 is_stmt 0 view .LVU177
 487 02c2 0D4B     		ldr	r3, .L191+8
 488 02c4 996B     		ldr	r1, [r3, #56]	@ float
 489              		.loc 1 248 21 view .LVU178
 490 02c6 104A     		ldr	r2, .L191+24
 491 02c8 1160     		str	r1, [r2]	@ float
 249:Core/Src/power.c ****      last_boost_duty = g_ctrl.final_duty_boost;
 492              		.loc 1 249 6 is_stmt 1 view .LVU179
 493              		.loc 1 249 30 is_stmt 0 view .LVU180
 494 02ca DA6B     		ldr	r2, [r3, #60]	@ float
 495              		.loc 1 249 22 view .LVU181
 496 02cc 0F4B     		ldr	r3, .L191+28
 497 02ce 1A60     		str	r2, [r3]	@ float
 250:Core/Src/power.c **** }...
 498              		.loc 1 250 1 view .LVU182
 499 02d0 BDEC028B 		vldm	sp!, {d8}
 500              	.LCFI2:
 501              		.cfi_remember_state
 502              		.cfi_restore 80
 503              		.cfi_restore 81
 504              		.cfi_def_cfa_offset 8
 505              	.LVL25:
 506              		.loc 1 250 1 view .LVU183
 507 02d4 10BD     		pop	{r4, pc}
 508              	.LVL26:
 509              	.L20:
 510              	.LCFI3:
 511              		.cfi_restore_state
  58:Core/Src/power.c ****  switch (g_ctrl.work_mode)
 512              		.loc 1 58 2 is_stmt 1 view .LVU184
  58:Core/Src/power.c ****  switch (g_ctrl.work_mode)
 513              		.loc 1 58 16 is_stmt 0 view .LVU185
 514 02d6 084B     		ldr	r3, .L191+8
 515 02d8 93F83530 		ldrb	r3, [r3, #53]	@ zero_extendqisi2
ARM GAS  C:\msys64\tmp\ccCw0bTg.s 			page 15


 516 02dc DBB2     		uxtb	r3, r3
  58:Core/Src/power.c ****  switch (g_ctrl.work_mode)
 517              		.loc 1 58 2 view .LVU186
 518 02de 032B     		cmp	r3, #3
 519 02e0 29D8     		bhi	.L22
 520 02e2 DFE803F0 		tbb	[pc, r3]
 521              	.L24:
 522 02e6 1B       		.byte	(.L27-.L24)/2
 523 02e7 54       		.byte	(.L26-.L24)/2
 524 02e8 8C       		.byte	(.L25-.L24)/2
 525 02e9 70       		.byte	(.L23-.L24)/2
 526              		.p2align 1
 527              	.L192:
 528 02ea 00BFAFF3 		.align	3
 528      0080
 529              	.L191:
 530 02f0 9A999999 		.word	-1717986918
 531 02f4 9999D93F 		.word	1071225241
 532 02f8 00000000 		.word	g_ctrl
 533 02fc 9A99993E 		.word	1050253722
 534 0300 00000000 		.word	0
 535 0304 00000000 		.word	last_mode.4
 536 0308 00000000 		.word	last_buck_duty.1
 537 030c 00000000 		.word	last_boost_duty.0
 538 0310 00000000 		.word	last_ENABLE.3
 539 0314 17B7D138 		.word	953267991
 540 0318 6666663F 		.word	1063675494
 541              	.L27:
  61:Core/Src/power.c ****             if (g_ctrl.vb > 21.0) g_ctrl.work_mode = MODE_TRANSITION;//21.12
 542              		.loc 1 61 13 is_stmt 1 view .LVU187
  61:Core/Src/power.c ****             if (g_ctrl.vb > 21.0) g_ctrl.work_mode = MODE_TRANSITION;//21.12
 543              		.loc 1 61 23 is_stmt 0 view .LVU188
 544 031c A54B     		ldr	r3, .L193
 545 031e 93ED017A 		vldr.32	s14, [r3, #4]
  61:Core/Src/power.c ****             if (g_ctrl.vb > 21.0) g_ctrl.work_mode = MODE_TRANSITION;//21.12
 546              		.loc 1 61 16 view .LVU189
 547 0322 F3EE057A 		vmov.f32	s15, #2.1e+1
 548 0326 B4EEE77A 		vcmpe.f32	s14, s15
 549 032a F1EE10FA 		vmrs	APSR_nzcv, FPSCR
 550 032e 02DD     		ble	.L22
  61:Core/Src/power.c ****             if (g_ctrl.vb > 21.0) g_ctrl.work_mode = MODE_TRANSITION;//21.12
 551              		.loc 1 61 35 is_stmt 1 discriminator 1 view .LVU190
  61:Core/Src/power.c ****             if (g_ctrl.vb > 21.0) g_ctrl.work_mode = MODE_TRANSITION;//21.12
 552              		.loc 1 61 52 is_stmt 0 discriminator 1 view .LVU191
 553 0330 0122     		movs	r2, #1
 554 0332 83F83520 		strb	r2, [r3, #53]
 555              	.L22:
  80:Core/Src/power.c ****  if (g_ctrl.work_mode != last_mode) 
 556              		.loc 1 80 2 is_stmt 1 view .LVU192
  80:Core/Src/power.c ****  if (g_ctrl.work_mode != last_mode) 
 557              		.loc 1 80 12 is_stmt 0 view .LVU193
 558 0336 9F4B     		ldr	r3, .L193
 559 0338 93F83530 		ldrb	r3, [r3, #53]	@ zero_extendqisi2
 560 033c DBB2     		uxtb	r3, r3
  80:Core/Src/power.c ****  if (g_ctrl.work_mode != last_mode) 
 561              		.loc 1 80 23 view .LVU194
 562 033e 9E4A     		ldr	r2, .L193+4
ARM GAS  C:\msys64\tmp\ccCw0bTg.s 			page 16


 563 0340 1278     		ldrb	r2, [r2]	@ zero_extendqisi2
  80:Core/Src/power.c ****  if (g_ctrl.work_mode != last_mode) 
 564              		.loc 1 80 5 view .LVU195
 565 0342 9342     		cmp	r3, r2
 566 0344 02D0     		beq	.L38
  82:Core/Src/power.c ****        g_ctrl.pid_integral = 0.0f; 
 567              		.loc 1 82 8 is_stmt 1 view .LVU196
  82:Core/Src/power.c ****        g_ctrl.pid_integral = 0.0f; 
 568              		.loc 1 82 28 is_stmt 0 view .LVU197
 569 0346 9B4B     		ldr	r3, .L193
 570 0348 0022     		movs	r2, #0
 571 034a 1A63     		str	r2, [r3, #48]	@ float
 572              	.L38:
  84:Core/Src/power.c ****      if (g_ctrl.enable != last_ENABLE) 
 573              		.loc 1 84 6 is_stmt 1 view .LVU198
  84:Core/Src/power.c ****      if (g_ctrl.enable != last_ENABLE) 
 574              		.loc 1 84 16 is_stmt 0 view .LVU199
 575 034c 994B     		ldr	r3, .L193
 576 034e 93F83420 		ldrb	r2, [r3, #52]	@ zero_extendqisi2
 577 0352 52B2     		sxtb	r2, r2
  84:Core/Src/power.c ****      if (g_ctrl.enable != last_ENABLE) 
 578              		.loc 1 84 24 view .LVU200
 579 0354 994B     		ldr	r3, .L193+8
 580 0356 1B78     		ldrb	r3, [r3]	@ zero_extendqisi2
  84:Core/Src/power.c ****      if (g_ctrl.enable != last_ENABLE) 
 581              		.loc 1 84 9 view .LVU201
 582 0358 9A42     		cmp	r2, r3
 583 035a 0BD0     		beq	.L39
  86:Core/Src/power.c ****        g_ctrl.pid_integral = 0.0f; 
 584              		.loc 1 86 8 is_stmt 1 view .LVU202
  86:Core/Src/power.c ****        g_ctrl.pid_integral = 0.0f; 
 585              		.loc 1 86 28 is_stmt 0 view .LVU203
 586 035c 954A     		ldr	r2, .L193
 587 035e 0021     		movs	r1, #0
 588 0360 1163     		str	r1, [r2, #48]	@ float
  87:Core/Src/power.c ****        if(last_ENABLE==3 && g_ctrl.enable==2) g_ctrl.enable=1;
 589              		.loc 1 87 8 is_stmt 1 view .LVU204
  87:Core/Src/power.c ****        if(last_ENABLE==3 && g_ctrl.enable==2) g_ctrl.enable=1;
 590              		.loc 1 87 10 is_stmt 0 view .LVU205
 591 0362 032B     		cmp	r3, #3
 592 0364 67D0     		beq	.L179
 593              	.L40:
  88:Core/Src/power.c ****        else if(last_ENABLE==2 && g_ctrl.enable==3) g_ctrl.enable=-1; 
 594              		.loc 1 88 13 is_stmt 1 view .LVU206
  88:Core/Src/power.c ****        else if(last_ENABLE==2 && g_ctrl.enable==3) g_ctrl.enable=-1; 
 595              		.loc 1 88 15 is_stmt 0 view .LVU207
 596 0366 022B     		cmp	r3, #2
 597 0368 6FD0     		beq	.L180
 598              	.L41:
  89:Core/Src/power.c ****        else if(last_ENABLE==4 && g_ctrl.enable==2) {g_ctrl.enable=1; HAL_HRTIM_WaveformOutputStart(
 599              		.loc 1 89 13 is_stmt 1 view .LVU208
  89:Core/Src/power.c ****        else if(last_ENABLE==4 && g_ctrl.enable==2) {g_ctrl.enable=1; HAL_HRTIM_WaveformOutputStart(
 600              		.loc 1 89 15 is_stmt 0 view .LVU209
 601 036a 042B     		cmp	r3, #4
 602 036c 78D0     		beq	.L181
 603              	.L42:
  90:Core/Src/power.c ****        else if(last_ENABLE==4 && g_ctrl.enable==3)  {g_ctrl.enable=-1;  HAL_HRTIM_WaveformOutputSta
ARM GAS  C:\msys64\tmp\ccCw0bTg.s 			page 17


 604              		.loc 1 90 13 is_stmt 1 view .LVU210
  90:Core/Src/power.c ****        else if(last_ENABLE==4 && g_ctrl.enable==3)  {g_ctrl.enable=-1;  HAL_HRTIM_WaveformOutputSta
 605              		.loc 1 90 15 is_stmt 0 view .LVU211
 606 036e 042B     		cmp	r3, #4
 607 0370 00F08580 		beq	.L182
 608              	.LVL27:
 609              	.L39:
  94:Core/Src/power.c **** switch (g_ctrl.enable)
 610              		.loc 1 94 1 is_stmt 1 view .LVU212
  94:Core/Src/power.c **** switch (g_ctrl.enable)
 611              		.loc 1 94 15 is_stmt 0 view .LVU213
 612 0374 8F4B     		ldr	r3, .L193
 613 0376 93F83430 		ldrb	r3, [r3, #52]	@ zero_extendqisi2
 614 037a 5BB2     		sxtb	r3, r3
  94:Core/Src/power.c **** switch (g_ctrl.enable)
 615              		.loc 1 94 1 view .LVU214
 616 037c 022B     		cmp	r3, #2
 617 037e 00F08E80 		beq	.L43
 618 0382 032B     		cmp	r3, #3
 619 0384 00F0D580 		beq	.L44
 620 0388 DFED8D7A 		vldr.32	s15, .L193+12
 621 038c C1E0     		b	.L45
 622              	.LVL28:
 623              	.L26:
  64:Core/Src/power.c ****             if (g_ctrl.vb < 20.0f) g_ctrl.work_mode = MODE_BUCK_ONLY;//20
 624              		.loc 1 64 13 is_stmt 1 view .LVU215
  64:Core/Src/power.c ****             if (g_ctrl.vb < 20.0f) g_ctrl.work_mode = MODE_BUCK_ONLY;//20
 625              		.loc 1 64 23 is_stmt 0 view .LVU216
 626 038e 894B     		ldr	r3, .L193
 627 0390 93ED017A 		vldr.32	s14, [r3, #4]
  64:Core/Src/power.c ****             if (g_ctrl.vb < 20.0f) g_ctrl.work_mode = MODE_BUCK_ONLY;//20
 628              		.loc 1 64 16 view .LVU217
 629 0394 F3EE047A 		vmov.f32	s15, #2.0e+1
 630 0398 B4EEE77A 		vcmpe.f32	s14, s15
 631 039c F1EE10FA 		vmrs	APSR_nzcv, FPSCR
 632 03a0 03D5     		bpl	.L161
  64:Core/Src/power.c ****             if (g_ctrl.vb < 20.0f) g_ctrl.work_mode = MODE_BUCK_ONLY;//20
 633              		.loc 1 64 36 is_stmt 1 discriminator 1 view .LVU218
  64:Core/Src/power.c ****             if (g_ctrl.vb < 20.0f) g_ctrl.work_mode = MODE_BUCK_ONLY;//20
 634              		.loc 1 64 53 is_stmt 0 discriminator 1 view .LVU219
 635 03a2 0022     		movs	r2, #0
 636 03a4 83F83520 		strb	r2, [r3, #53]
 637 03a8 C5E7     		b	.L22
 638              	.L161:
  65:Core/Src/power.c ****             else if (g_ctrl.vb>29.5f) g_ctrl.work_mode = MODE_OVER;//29.5
 639              		.loc 1 65 18 is_stmt 1 view .LVU220
  65:Core/Src/power.c ****             else if (g_ctrl.vb>29.5f) g_ctrl.work_mode = MODE_OVER;//29.5
 640              		.loc 1 65 28 is_stmt 0 view .LVU221
 641 03aa 824B     		ldr	r3, .L193
 642 03ac 93ED017A 		vldr.32	s14, [r3, #4]
  65:Core/Src/power.c ****             else if (g_ctrl.vb>29.5f) g_ctrl.work_mode = MODE_OVER;//29.5
 643              		.loc 1 65 21 view .LVU222
 644 03b0 DFED847A 		vldr.32	s15, .L193+16
 645 03b4 B4EEE77A 		vcmpe.f32	s14, s15
 646 03b8 F1EE10FA 		vmrs	APSR_nzcv, FPSCR
 647 03bc BBDD     		ble	.L22
  65:Core/Src/power.c ****             else if (g_ctrl.vb>29.5f) g_ctrl.work_mode = MODE_OVER;//29.5
ARM GAS  C:\msys64\tmp\ccCw0bTg.s 			page 18


 648              		.loc 1 65 39 is_stmt 1 discriminator 1 view .LVU223
  65:Core/Src/power.c ****             else if (g_ctrl.vb>29.5f) g_ctrl.work_mode = MODE_OVER;//29.5
 649              		.loc 1 65 56 is_stmt 0 discriminator 1 view .LVU224
 650 03be 0422     		movs	r2, #4
 651 03c0 83F83520 		strb	r2, [r3, #53]
 652 03c4 B7E7     		b	.L22
 653              	.L23:
  68:Core/Src/power.c ****             if (g_ctrl.vb > 21.0) g_ctrl.work_mode = MODE_RELEASE_TRANSITION;
 654              		.loc 1 68 13 is_stmt 1 view .LVU225
  68:Core/Src/power.c ****             if (g_ctrl.vb > 21.0) g_ctrl.work_mode = MODE_RELEASE_TRANSITION;
 655              		.loc 1 68 23 is_stmt 0 view .LVU226
 656 03c6 7B4B     		ldr	r3, .L193
 657 03c8 93ED017A 		vldr.32	s14, [r3, #4]
  68:Core/Src/power.c ****             if (g_ctrl.vb > 21.0) g_ctrl.work_mode = MODE_RELEASE_TRANSITION;
 658              		.loc 1 68 16 view .LVU227
 659 03cc F3EE057A 		vmov.f32	s15, #2.1e+1
 660 03d0 B4EEE77A 		vcmpe.f32	s14, s15
 661 03d4 F1EE10FA 		vmrs	APSR_nzcv, FPSCR
 662 03d8 03DD     		ble	.L162
  68:Core/Src/power.c ****             if (g_ctrl.vb > 21.0) g_ctrl.work_mode = MODE_RELEASE_TRANSITION;
 663              		.loc 1 68 35 is_stmt 1 discriminator 1 view .LVU228
  68:Core/Src/power.c ****             if (g_ctrl.vb > 21.0) g_ctrl.work_mode = MODE_RELEASE_TRANSITION;
 664              		.loc 1 68 52 is_stmt 0 discriminator 1 view .LVU229
 665 03da 0222     		movs	r2, #2
 666 03dc 83F83520 		strb	r2, [r3, #53]
 667 03e0 A9E7     		b	.L22
 668              	.L162:
  69:Core/Src/power.c ****             else if (g_ctrl.vb < 11.f) g_ctrl.work_mode = MODE_OVER;
 669              		.loc 1 69 18 is_stmt 1 view .LVU230
  69:Core/Src/power.c ****             else if (g_ctrl.vb < 11.f) g_ctrl.work_mode = MODE_OVER;
 670              		.loc 1 69 28 is_stmt 0 view .LVU231
 671 03e2 744B     		ldr	r3, .L193
 672 03e4 93ED017A 		vldr.32	s14, [r3, #4]
  69:Core/Src/power.c ****             else if (g_ctrl.vb < 11.f) g_ctrl.work_mode = MODE_OVER;
 673              		.loc 1 69 21 view .LVU232
 674 03e8 F2EE067A 		vmov.f32	s15, #1.1e+1
 675 03ec B4EEE77A 		vcmpe.f32	s14, s15
 676 03f0 F1EE10FA 		vmrs	APSR_nzcv, FPSCR
 677 03f4 9FD5     		bpl	.L22
  69:Core/Src/power.c ****             else if (g_ctrl.vb < 11.f) g_ctrl.work_mode = MODE_OVER;
 678              		.loc 1 69 40 is_stmt 1 discriminator 1 view .LVU233
  69:Core/Src/power.c ****             else if (g_ctrl.vb < 11.f) g_ctrl.work_mode = MODE_OVER;
 679              		.loc 1 69 57 is_stmt 0 discriminator 1 view .LVU234
 680 03f6 0422     		movs	r2, #4
 681 03f8 83F83520 		strb	r2, [r3, #53]
 682 03fc 9BE7     		b	.L22
 683              	.L25:
  72:Core/Src/power.c ****             if (g_ctrl.vb < 20.0f) g_ctrl.work_mode = MODE_RELEASE_BOOST;
 684              		.loc 1 72 13 is_stmt 1 view .LVU235
  72:Core/Src/power.c ****             if (g_ctrl.vb < 20.0f) g_ctrl.work_mode = MODE_RELEASE_BOOST;
 685              		.loc 1 72 23 is_stmt 0 view .LVU236
 686 03fe 6D4B     		ldr	r3, .L193
 687 0400 93ED017A 		vldr.32	s14, [r3, #4]
  72:Core/Src/power.c ****             if (g_ctrl.vb < 20.0f) g_ctrl.work_mode = MODE_RELEASE_BOOST;
 688              		.loc 1 72 16 view .LVU237
 689 0404 F3EE047A 		vmov.f32	s15, #2.0e+1
 690 0408 B4EEE77A 		vcmpe.f32	s14, s15
ARM GAS  C:\msys64\tmp\ccCw0bTg.s 			page 19


 691 040c F1EE10FA 		vmrs	APSR_nzcv, FPSCR
 692 0410 03D5     		bpl	.L163
  72:Core/Src/power.c ****             if (g_ctrl.vb < 20.0f) g_ctrl.work_mode = MODE_RELEASE_BOOST;
 693              		.loc 1 72 36 is_stmt 1 discriminator 1 view .LVU238
  72:Core/Src/power.c ****             if (g_ctrl.vb < 20.0f) g_ctrl.work_mode = MODE_RELEASE_BOOST;
 694              		.loc 1 72 53 is_stmt 0 discriminator 1 view .LVU239
 695 0412 0322     		movs	r2, #3
 696 0414 83F83520 		strb	r2, [r3, #53]
 697 0418 8DE7     		b	.L22
 698              	.L163:
  73:Core/Src/power.c ****             else if (g_ctrl.vb > 29.5f) g_ctrl.work_mode = MODE_OVER;//29.5
 699              		.loc 1 73 18 is_stmt 1 view .LVU240
  73:Core/Src/power.c ****             else if (g_ctrl.vb > 29.5f) g_ctrl.work_mode = MODE_OVER;//29.5
 700              		.loc 1 73 28 is_stmt 0 view .LVU241
 701 041a 664B     		ldr	r3, .L193
 702 041c 93ED017A 		vldr.32	s14, [r3, #4]
  73:Core/Src/power.c ****             else if (g_ctrl.vb > 29.5f) g_ctrl.work_mode = MODE_OVER;//29.5
 703              		.loc 1 73 21 view .LVU242
 704 0420 DFED687A 		vldr.32	s15, .L193+16
 705 0424 B4EEE77A 		vcmpe.f32	s14, s15
 706 0428 F1EE10FA 		vmrs	APSR_nzcv, FPSCR
 707 042c 83DD     		ble	.L22
  73:Core/Src/power.c ****             else if (g_ctrl.vb > 29.5f) g_ctrl.work_mode = MODE_OVER;//29.5
 708              		.loc 1 73 41 is_stmt 1 discriminator 1 view .LVU243
  73:Core/Src/power.c ****             else if (g_ctrl.vb > 29.5f) g_ctrl.work_mode = MODE_OVER;//29.5
 709              		.loc 1 73 58 is_stmt 0 discriminator 1 view .LVU244
 710 042e 0422     		movs	r2, #4
 711 0430 83F83520 		strb	r2, [r3, #53]
 712 0434 7FE7     		b	.L22
 713              	.L179:
  87:Core/Src/power.c ****        if(last_ENABLE==3 && g_ctrl.enable==2) g_ctrl.enable=1;
 714              		.loc 1 87 35 discriminator 1 view .LVU245
 715 0436 92F83420 		ldrb	r2, [r2, #52]	@ zero_extendqisi2
 716 043a 52B2     		sxtb	r2, r2
  87:Core/Src/power.c ****        if(last_ENABLE==3 && g_ctrl.enable==2) g_ctrl.enable=1;
 717              		.loc 1 87 26 discriminator 1 view .LVU246
 718 043c 022A     		cmp	r2, #2
 719 043e 92D1     		bne	.L40
  87:Core/Src/power.c ****        if(last_ENABLE==3 && g_ctrl.enable==2) g_ctrl.enable=1;
 720              		.loc 1 87 47 is_stmt 1 discriminator 2 view .LVU247
  87:Core/Src/power.c ****        if(last_ENABLE==3 && g_ctrl.enable==2) g_ctrl.enable=1;
 721              		.loc 1 87 60 is_stmt 0 discriminator 2 view .LVU248
 722 0440 5C4B     		ldr	r3, .L193
 723 0442 0122     		movs	r2, #1
 724 0444 83F83420 		strb	r2, [r3, #52]
  87:Core/Src/power.c ****        if(last_ENABLE==3 && g_ctrl.enable==2) g_ctrl.enable=1;
 725              		.loc 1 87 60 view .LVU249
 726 0448 94E7     		b	.L39
 727              	.L180:
  88:Core/Src/power.c ****        else if(last_ENABLE==2 && g_ctrl.enable==3) g_ctrl.enable=-1; 
 728              		.loc 1 88 40 discriminator 1 view .LVU250
 729 044a 5A4A     		ldr	r2, .L193
 730 044c 92F83420 		ldrb	r2, [r2, #52]	@ zero_extendqisi2
 731 0450 52B2     		sxtb	r2, r2
  88:Core/Src/power.c ****        else if(last_ENABLE==2 && g_ctrl.enable==3) g_ctrl.enable=-1; 
 732              		.loc 1 88 31 discriminator 1 view .LVU251
 733 0452 032A     		cmp	r2, #3
ARM GAS  C:\msys64\tmp\ccCw0bTg.s 			page 20


 734 0454 89D1     		bne	.L41
  88:Core/Src/power.c ****        else if(last_ENABLE==2 && g_ctrl.enable==3) g_ctrl.enable=-1; 
 735              		.loc 1 88 52 is_stmt 1 discriminator 2 view .LVU252
  88:Core/Src/power.c ****        else if(last_ENABLE==2 && g_ctrl.enable==3) g_ctrl.enable=-1; 
 736              		.loc 1 88 65 is_stmt 0 discriminator 2 view .LVU253
 737 0456 574B     		ldr	r3, .L193
 738 0458 FF22     		movs	r2, #255
 739 045a 83F83420 		strb	r2, [r3, #52]
  88:Core/Src/power.c ****        else if(last_ENABLE==2 && g_ctrl.enable==3) g_ctrl.enable=-1; 
 740              		.loc 1 88 65 view .LVU254
 741 045e 89E7     		b	.L39
 742              	.L181:
  89:Core/Src/power.c ****        else if(last_ENABLE==4 && g_ctrl.enable==2) {g_ctrl.enable=1; HAL_HRTIM_WaveformOutputStart(
 743              		.loc 1 89 40 discriminator 1 view .LVU255
 744 0460 544A     		ldr	r2, .L193
 745 0462 92F83420 		ldrb	r2, [r2, #52]	@ zero_extendqisi2
 746 0466 52B2     		sxtb	r2, r2
  89:Core/Src/power.c ****        else if(last_ENABLE==4 && g_ctrl.enable==2) {g_ctrl.enable=1; HAL_HRTIM_WaveformOutputStart(
 747              		.loc 1 89 31 discriminator 1 view .LVU256
 748 0468 022A     		cmp	r2, #2
 749 046a 80D1     		bne	.L42
  89:Core/Src/power.c ****        else if(last_ENABLE==4 && g_ctrl.enable==2) {g_ctrl.enable=1; HAL_HRTIM_WaveformOutputStart(
 750              		.loc 1 89 53 is_stmt 1 discriminator 2 view .LVU257
  89:Core/Src/power.c ****        else if(last_ENABLE==4 && g_ctrl.enable==2) {g_ctrl.enable=1; HAL_HRTIM_WaveformOutputStart(
 751              		.loc 1 89 66 is_stmt 0 discriminator 2 view .LVU258
 752 046c 514B     		ldr	r3, .L193
 753 046e 0122     		movs	r2, #1
 754 0470 83F83420 		strb	r2, [r3, #52]
  89:Core/Src/power.c ****        else if(last_ENABLE==4 && g_ctrl.enable==2) {g_ctrl.enable=1; HAL_HRTIM_WaveformOutputStart(
 755              		.loc 1 89 70 is_stmt 1 discriminator 2 view .LVU259
 756 0474 0F21     		movs	r1, #15
 757 0476 5448     		ldr	r0, .L193+20
 758              	.LVL29:
  89:Core/Src/power.c ****        else if(last_ENABLE==4 && g_ctrl.enable==2) {g_ctrl.enable=1; HAL_HRTIM_WaveformOutputStart(
 759              		.loc 1 89 70 is_stmt 0 discriminator 2 view .LVU260
 760 0478 FFF7FEFF 		bl	HAL_HRTIM_WaveformOutputStart
 761              	.LVL30:
  89:Core/Src/power.c ****        else if(last_ENABLE==4 && g_ctrl.enable==2) {g_ctrl.enable=1; HAL_HRTIM_WaveformOutputStart(
 762              		.loc 1 89 70 view .LVU261
 763 047c 7AE7     		b	.L39
 764              	.LVL31:
 765              	.L182:
  90:Core/Src/power.c ****        else if(last_ENABLE==4 && g_ctrl.enable==3)  {g_ctrl.enable=-1;  HAL_HRTIM_WaveformOutputSta
 766              		.loc 1 90 40 discriminator 1 view .LVU262
 767 047e 4D4B     		ldr	r3, .L193
 768 0480 93F83430 		ldrb	r3, [r3, #52]	@ zero_extendqisi2
 769 0484 5BB2     		sxtb	r3, r3
  90:Core/Src/power.c ****        else if(last_ENABLE==4 && g_ctrl.enable==3)  {g_ctrl.enable=-1;  HAL_HRTIM_WaveformOutputSta
 770              		.loc 1 90 31 discriminator 1 view .LVU263
 771 0486 032B     		cmp	r3, #3
 772 0488 7FF474AF 		bne	.L39
  90:Core/Src/power.c ****        else if(last_ENABLE==4 && g_ctrl.enable==3)  {g_ctrl.enable=-1;  HAL_HRTIM_WaveformOutputSta
 773              		.loc 1 90 54 is_stmt 1 discriminator 2 view .LVU264
  90:Core/Src/power.c ****        else if(last_ENABLE==4 && g_ctrl.enable==3)  {g_ctrl.enable=-1;  HAL_HRTIM_WaveformOutputSta
 774              		.loc 1 90 67 is_stmt 0 discriminator 2 view .LVU265
 775 048c 494B     		ldr	r3, .L193
 776 048e FF22     		movs	r2, #255
ARM GAS  C:\msys64\tmp\ccCw0bTg.s 			page 21


 777 0490 83F83420 		strb	r2, [r3, #52]
  90:Core/Src/power.c ****        else if(last_ENABLE==4 && g_ctrl.enable==3)  {g_ctrl.enable=-1;  HAL_HRTIM_WaveformOutputSta
 778              		.loc 1 90 73 is_stmt 1 discriminator 2 view .LVU266
 779 0494 0F21     		movs	r1, #15
 780 0496 4C48     		ldr	r0, .L193+20
 781              	.LVL32:
  90:Core/Src/power.c ****        else if(last_ENABLE==4 && g_ctrl.enable==3)  {g_ctrl.enable=-1;  HAL_HRTIM_WaveformOutputSta
 782              		.loc 1 90 73 is_stmt 0 discriminator 2 view .LVU267
 783 0498 FFF7FEFF 		bl	HAL_HRTIM_WaveformOutputStart
 784              	.LVL33:
 785 049c 6AE7     		b	.L39
 786              	.L43:
  97:Core/Src/power.c ****       current_Kp = 0.00025f; 
 787              		.loc 1 97 7 is_stmt 1 view .LVU268
 788              	.LVL34:
  98:Core/Src/power.c ****      if (g_ctrl.work_mode == MODE_TRANSITION)
 789              		.loc 1 98 6 view .LVU269
  98:Core/Src/power.c ****      if (g_ctrl.work_mode == MODE_TRANSITION)
 790              		.loc 1 98 16 is_stmt 0 view .LVU270
 791 049e 454B     		ldr	r3, .L193
 792 04a0 93F83530 		ldrb	r3, [r3, #53]	@ zero_extendqisi2
 793 04a4 DBB2     		uxtb	r3, r3
  98:Core/Src/power.c ****      if (g_ctrl.work_mode == MODE_TRANSITION)
 794              		.loc 1 98 9 view .LVU271
 795 04a6 012B     		cmp	r3, #1
 796 04a8 40D0     		beq	.L114
 102:Core/Src/power.c ****      else if (g_ctrl.work_mode == MODE_BUCK_ONLY)
 797              		.loc 1 102 11 is_stmt 1 view .LVU272
 102:Core/Src/power.c ****      else if (g_ctrl.work_mode == MODE_BUCK_ONLY)
 798              		.loc 1 102 21 is_stmt 0 view .LVU273
 799 04aa 424B     		ldr	r3, .L193
 800 04ac 93F83530 		ldrb	r3, [r3, #53]	@ zero_extendqisi2
 104:Core/Src/power.c ****      current_Kp = 0.00025f; 
 801              		.loc 1 104 6 is_stmt 1 view .LVU274
  97:Core/Src/power.c ****       current_Kp = 0.00025f; 
 802              		.loc 1 97 18 is_stmt 0 view .LVU275
 803 04b0 DFED467A 		vldr.32	s15, .L193+24
 804              	.L46:
 805              	.LVL35:
 106:Core/Src/power.c ****             error = g_ctrl.target_current - g_ctrl.ia;
 806              		.loc 1 106 13 is_stmt 1 view .LVU276
 106:Core/Src/power.c ****             error = g_ctrl.target_current - g_ctrl.ia;
 807              		.loc 1 106 27 is_stmt 0 view .LVU277
 808 04b4 3F4B     		ldr	r3, .L193
 809 04b6 93ED0B7A 		vldr.32	s14, [r3, #44]
 106:Core/Src/power.c ****             error = g_ctrl.target_current - g_ctrl.ia;
 810              		.loc 1 106 51 view .LVU278
 811 04ba D3ED036A 		vldr.32	s13, [r3, #12]
 106:Core/Src/power.c ****             error = g_ctrl.target_current - g_ctrl.ia;
 812              		.loc 1 106 19 view .LVU279
 813 04be 37EE667A 		vsub.f32	s14, s14, s13
 814              	.LVL36:
 107:Core/Src/power.c ****              g_ctrl.pid_integral += error * 0.0002f; 
 815              		.loc 1 107 14 is_stmt 1 view .LVU280
 107:Core/Src/power.c ****              g_ctrl.pid_integral += error * 0.0002f; 
 816              		.loc 1 107 20 is_stmt 0 view .LVU281
 817 04c2 D3ED0C6A 		vldr.32	s13, [r3, #48]
ARM GAS  C:\msys64\tmp\ccCw0bTg.s 			page 22


 107:Core/Src/power.c ****              g_ctrl.pid_integral += error * 0.0002f; 
 818              		.loc 1 107 43 view .LVU282
 819 04c6 9FED426A 		vldr.32	s12, .L193+28
 820 04ca 27EE066A 		vmul.f32	s12, s14, s12
 107:Core/Src/power.c ****              g_ctrl.pid_integral += error * 0.0002f; 
 821              		.loc 1 107 34 view .LVU283
 822 04ce 76EE866A 		vadd.f32	s13, s13, s12
 823 04d2 C3ED0C6A 		vstr.32	s13, [r3, #48]
 109:Core/Src/power.c ****         if (g_ctrl.pid_integral > 0.2f) g_ctrl.pid_integral = 0.2f; 
 824              		.loc 1 109 9 is_stmt 1 view .LVU284
 109:Core/Src/power.c ****         if (g_ctrl.pid_integral > 0.2f) g_ctrl.pid_integral = 0.2f; 
 825              		.loc 1 109 19 is_stmt 0 view .LVU285
 826 04d6 93ED0C6A 		vldr.32	s12, [r3, #48]
 109:Core/Src/power.c ****         if (g_ctrl.pid_integral > 0.2f) g_ctrl.pid_integral = 0.2f; 
 827              		.loc 1 109 12 view .LVU286
 828 04da DFED3E6A 		vldr.32	s13, .L193+32
 829 04de B4EEE66A 		vcmpe.f32	s12, s13
 830 04e2 F1EE10FA 		vmrs	APSR_nzcv, FPSCR
 831 04e6 01DD     		ble	.L47
 109:Core/Src/power.c ****         if (g_ctrl.pid_integral > 0.2f) g_ctrl.pid_integral = 0.2f; 
 832              		.loc 1 109 41 is_stmt 1 discriminator 1 view .LVU287
 109:Core/Src/power.c ****         if (g_ctrl.pid_integral > 0.2f) g_ctrl.pid_integral = 0.2f; 
 833              		.loc 1 109 61 is_stmt 0 discriminator 1 view .LVU288
 834 04e8 C3ED0C6A 		vstr.32	s13, [r3, #48]
 835              	.L47:
 110:Core/Src/power.c ****         if (g_ctrl.pid_integral < -0.2f) g_ctrl.pid_integral = -0.2f;
 836              		.loc 1 110 9 is_stmt 1 view .LVU289
 110:Core/Src/power.c ****         if (g_ctrl.pid_integral < -0.2f) g_ctrl.pid_integral = -0.2f;
 837              		.loc 1 110 19 is_stmt 0 view .LVU290
 838 04ec 314B     		ldr	r3, .L193
 839 04ee 93ED0C6A 		vldr.32	s12, [r3, #48]
 110:Core/Src/power.c ****         if (g_ctrl.pid_integral < -0.2f) g_ctrl.pid_integral = -0.2f;
 840              		.loc 1 110 12 view .LVU291
 841 04f2 DFED396A 		vldr.32	s13, .L193+36
 842 04f6 B4EEE66A 		vcmpe.f32	s12, s13
 843 04fa F1EE10FA 		vmrs	APSR_nzcv, FPSCR
 844 04fe 01D5     		bpl	.L49
 110:Core/Src/power.c ****         if (g_ctrl.pid_integral < -0.2f) g_ctrl.pid_integral = -0.2f;
 845              		.loc 1 110 42 is_stmt 1 discriminator 1 view .LVU292
 110:Core/Src/power.c ****         if (g_ctrl.pid_integral < -0.2f) g_ctrl.pid_integral = -0.2f;
 846              		.loc 1 110 62 is_stmt 0 discriminator 1 view .LVU293
 847 0500 C3ED0C6A 		vstr.32	s13, [r3, #48]
 848              	.L49:
 111:Core/Src/power.c ****          pid_out = (error * current_Kp) + g_ctrl.pid_integral;
 849              		.loc 1 111 10 is_stmt 1 view .LVU294
 111:Core/Src/power.c ****          pid_out = (error * current_Kp) + g_ctrl.pid_integral;
 850              		.loc 1 111 27 is_stmt 0 view .LVU295
 851 0504 67EE877A 		vmul.f32	s15, s15, s14
 852              	.LVL37:
 111:Core/Src/power.c ****          pid_out = (error * current_Kp) + g_ctrl.pid_integral;
 853              		.loc 1 111 49 view .LVU296
 854 0508 2A4B     		ldr	r3, .L193
 855 050a 93ED0C7A 		vldr.32	s14, [r3, #48]
 856              	.LVL38:
 111:Core/Src/power.c ****          pid_out = (error * current_Kp) + g_ctrl.pid_integral;
 857              		.loc 1 111 18 view .LVU297
 858 050e 77EE877A 		vadd.f32	s15, s15, s14
ARM GAS  C:\msys64\tmp\ccCw0bTg.s 			page 23


 859              	.LVL39:
 112:Core/Src/power.c ****     break;
 860              		.loc 1 112 5 is_stmt 1 view .LVU298
 861              	.L45:
 142:Core/Src/power.c **** switch (g_ctrl.work_mode) {
 862              		.loc 1 142 1 view .LVU299
 142:Core/Src/power.c **** switch (g_ctrl.work_mode) {
 863              		.loc 1 142 15 is_stmt 0 view .LVU300
 864 0512 284B     		ldr	r3, .L193
 865 0514 93F83530 		ldrb	r3, [r3, #53]	@ zero_extendqisi2
 866 0518 DBB2     		uxtb	r3, r3
 142:Core/Src/power.c **** switch (g_ctrl.work_mode) {
 867              		.loc 1 142 1 view .LVU301
 868 051a 032B     		cmp	r3, #3
 869 051c 3FF656AE 		bhi	.L21
 870 0520 DFE813F0 		tbh	[pc, r3, lsl #1]
 871              	.L61:
 872 0524 9200     		.2byte	(.L64-.L61)/2
 873 0526 C200     		.2byte	(.L63-.L61)/2
 874 0528 E900     		.2byte	(.L62-.L61)/2
 875 052a E100     		.2byte	(.L60-.L61)/2
 876              	.LVL40:
 877              		.p2align 1
 878              	.L114:
 100:Core/Src/power.c ****      current_Kp = 0.001f; 
 879              		.loc 1 100 17 view .LVU302
 880 052c DFED2B7A 		vldr.32	s15, .L193+40
 881 0530 C0E7     		b	.L46
 882              	.LVL41:
 883              	.L44:
 114:Core/Src/power.c ****        current_Kp = 0.00008f; 
 884              		.loc 1 114 8 is_stmt 1 view .LVU303
 115:Core/Src/power.c ****      if (g_ctrl.work_mode == MODE_RELEASE_TRANSITION)
 885              		.loc 1 115 6 view .LVU304
 115:Core/Src/power.c ****      if (g_ctrl.work_mode == MODE_RELEASE_TRANSITION)
 886              		.loc 1 115 16 is_stmt 0 view .LVU305
 887 0532 204B     		ldr	r3, .L193
 888 0534 93F83530 		ldrb	r3, [r3, #53]	@ zero_extendqisi2
 889 0538 DBB2     		uxtb	r3, r3
 115:Core/Src/power.c ****      if (g_ctrl.work_mode == MODE_RELEASE_TRANSITION)
 890              		.loc 1 115 9 view .LVU306
 891 053a 022B     		cmp	r3, #2
 892 053c 08D0     		beq	.L183
 125:Core/Src/power.c ****      else if (g_ctrl.work_mode == MODE_RELEASE_BOOST)
 893              		.loc 1 125 11 is_stmt 1 view .LVU307
 125:Core/Src/power.c ****      else if (g_ctrl.work_mode == MODE_RELEASE_BOOST)
 894              		.loc 1 125 21 is_stmt 0 view .LVU308
 895 053e 1D4B     		ldr	r3, .L193
 896 0540 93F83530 		ldrb	r3, [r3, #53]	@ zero_extendqisi2
 897 0544 DBB2     		uxtb	r3, r3
 125:Core/Src/power.c ****      else if (g_ctrl.work_mode == MODE_RELEASE_BOOST)
 898              		.loc 1 125 14 view .LVU309
 899 0546 032B     		cmp	r3, #3
 900 0548 4CD0     		beq	.L184
  13:Core/Src/power.c ****     float pid_out = 0.0f;float error = 0.0f;float current_Kp = 0.0f;            float v_mid =0.0f; 
 901              		.loc 1 13 11 view .LVU310
 902 054a DFED1D7A 		vldr.32	s15, .L193+12
ARM GAS  C:\msys64\tmp\ccCw0bTg.s 			page 24


 903 054e E0E7     		b	.L45
 904              	.L183:
 117:Core/Src/power.c ****      current_Kp = 0.0005f; 
 905              		.loc 1 117 6 is_stmt 1 view .LVU311
 906              	.LVL42:
 118:Core/Src/power.c ****             error = g_ctrl.target_current - g_ctrl.ir;
 907              		.loc 1 118 13 view .LVU312
 118:Core/Src/power.c ****             error = g_ctrl.target_current - g_ctrl.ir;
 908              		.loc 1 118 27 is_stmt 0 view .LVU313
 909 0550 184B     		ldr	r3, .L193
 910 0552 D3ED0B7A 		vldr.32	s15, [r3, #44]
 118:Core/Src/power.c ****             error = g_ctrl.target_current - g_ctrl.ir;
 911              		.loc 1 118 51 view .LVU314
 912 0556 93ED027A 		vldr.32	s14, [r3, #8]
 118:Core/Src/power.c ****             error = g_ctrl.target_current - g_ctrl.ir;
 913              		.loc 1 118 19 view .LVU315
 914 055a 77EEC77A 		vsub.f32	s15, s15, s14
 915              	.LVL43:
 119:Core/Src/power.c ****              g_ctrl.pid_integral += error * 0.0002f; 
 916              		.loc 1 119 14 is_stmt 1 view .LVU316
 119:Core/Src/power.c ****              g_ctrl.pid_integral += error * 0.0002f; 
 917              		.loc 1 119 20 is_stmt 0 view .LVU317
 918 055e 93ED0C7A 		vldr.32	s14, [r3, #48]
 119:Core/Src/power.c ****              g_ctrl.pid_integral += error * 0.0002f; 
 919              		.loc 1 119 43 view .LVU318
 920 0562 DFED1B6A 		vldr.32	s13, .L193+28
 921 0566 67EEA66A 		vmul.f32	s13, s15, s13
 119:Core/Src/power.c ****              g_ctrl.pid_integral += error * 0.0002f; 
 922              		.loc 1 119 34 view .LVU319
 923 056a 37EE267A 		vadd.f32	s14, s14, s13
 924 056e 83ED0C7A 		vstr.32	s14, [r3, #48]
 121:Core/Src/power.c ****         if (g_ctrl.pid_integral > 0.2f) g_ctrl.pid_integral = 0.2f; 
 925              		.loc 1 121 9 is_stmt 1 view .LVU320
 121:Core/Src/power.c ****         if (g_ctrl.pid_integral > 0.2f) g_ctrl.pid_integral = 0.2f; 
 926              		.loc 1 121 19 is_stmt 0 view .LVU321
 927 0572 D3ED0C6A 		vldr.32	s13, [r3, #48]
 121:Core/Src/power.c ****         if (g_ctrl.pid_integral > 0.2f) g_ctrl.pid_integral = 0.2f; 
 928              		.loc 1 121 12 view .LVU322
 929 0576 9FED177A 		vldr.32	s14, .L193+32
 930 057a F4EEC76A 		vcmpe.f32	s13, s14
 931 057e F1EE10FA 		vmrs	APSR_nzcv, FPSCR
 932 0582 01DD     		ble	.L52
 121:Core/Src/power.c ****         if (g_ctrl.pid_integral > 0.2f) g_ctrl.pid_integral = 0.2f; 
 933              		.loc 1 121 41 is_stmt 1 discriminator 1 view .LVU323
 121:Core/Src/power.c ****         if (g_ctrl.pid_integral > 0.2f) g_ctrl.pid_integral = 0.2f; 
 934              		.loc 1 121 61 is_stmt 0 discriminator 1 view .LVU324
 935 0584 83ED0C7A 		vstr.32	s14, [r3, #48]
 936              	.L52:
 122:Core/Src/power.c ****         if (g_ctrl.pid_integral < -0.2f) g_ctrl.pid_integral = -0.2f;
 937              		.loc 1 122 9 is_stmt 1 view .LVU325
 122:Core/Src/power.c ****         if (g_ctrl.pid_integral < -0.2f) g_ctrl.pid_integral = -0.2f;
 938              		.loc 1 122 19 is_stmt 0 view .LVU326
 939 0588 0A4B     		ldr	r3, .L193
 940 058a D3ED0C6A 		vldr.32	s13, [r3, #48]
 122:Core/Src/power.c ****         if (g_ctrl.pid_integral < -0.2f) g_ctrl.pid_integral = -0.2f;
 941              		.loc 1 122 12 view .LVU327
 942 058e 9FED127A 		vldr.32	s14, .L193+36
ARM GAS  C:\msys64\tmp\ccCw0bTg.s 			page 25


 943 0592 F4EEC76A 		vcmpe.f32	s13, s14
 944 0596 F1EE10FA 		vmrs	APSR_nzcv, FPSCR
 945 059a 01D5     		bpl	.L54
 122:Core/Src/power.c ****         if (g_ctrl.pid_integral < -0.2f) g_ctrl.pid_integral = -0.2f;
 946              		.loc 1 122 42 is_stmt 1 discriminator 1 view .LVU328
 122:Core/Src/power.c ****         if (g_ctrl.pid_integral < -0.2f) g_ctrl.pid_integral = -0.2f;
 947              		.loc 1 122 62 is_stmt 0 discriminator 1 view .LVU329
 948 059c 83ED0C7A 		vstr.32	s14, [r3, #48]
 949              	.L54:
 123:Core/Src/power.c ****          pid_out = (error * current_Kp) + g_ctrl.pid_integral;
 950              		.loc 1 123 10 is_stmt 1 view .LVU330
 123:Core/Src/power.c ****          pid_out = (error * current_Kp) + g_ctrl.pid_integral;
 951              		.loc 1 123 27 is_stmt 0 view .LVU331
 952 05a0 9FED0F7A 		vldr.32	s14, .L193+44
 953 05a4 67EE877A 		vmul.f32	s15, s15, s14
 954              	.LVL44:
 123:Core/Src/power.c ****          pid_out = (error * current_Kp) + g_ctrl.pid_integral;
 955              		.loc 1 123 49 view .LVU332
 956 05a8 024B     		ldr	r3, .L193
 957 05aa 93ED0C7A 		vldr.32	s14, [r3, #48]
 123:Core/Src/power.c ****          pid_out = (error * current_Kp) + g_ctrl.pid_integral;
 958              		.loc 1 123 18 view .LVU333
 959 05ae 77EE877A 		vadd.f32	s15, s15, s14
 960              	.LVL45:
 123:Core/Src/power.c ****          pid_out = (error * current_Kp) + g_ctrl.pid_integral;
 961              		.loc 1 123 18 view .LVU334
 962 05b2 AEE7     		b	.L45
 963              	.L194:
 964              		.align	2
 965              	.L193:
 966 05b4 00000000 		.word	g_ctrl
 967 05b8 00000000 		.word	last_mode.4
 968 05bc 00000000 		.word	last_ENABLE.3
 969 05c0 00000000 		.word	0
 970 05c4 0000EC41 		.word	1105985536
 971 05c8 00000000 		.word	hhrtim1
 972 05cc 6F128339 		.word	964891247
 973 05d0 17B75139 		.word	961656599
 974 05d4 CDCC4C3E 		.word	1045220557
 975 05d8 CDCC4CBE 		.word	-1102263091
 976 05dc 6F12833A 		.word	981668463
 977 05e0 6F12033A 		.word	973279855
 978              	.LVL46:
 979              	.L184:
 127:Core/Src/power.c ****      current_Kp = 0.00008f; 
 980              		.loc 1 127 6 is_stmt 1 view .LVU335
 128:Core/Src/power.c ****             error = g_ctrl.target_current - g_ctrl.ir;
 981              		.loc 1 128 13 view .LVU336
 128:Core/Src/power.c ****             error = g_ctrl.target_current - g_ctrl.ir;
 982              		.loc 1 128 27 is_stmt 0 view .LVU337
 983 05e4 BC4B     		ldr	r3, .L195+8
 984 05e6 D3ED0B7A 		vldr.32	s15, [r3, #44]
 128:Core/Src/power.c ****             error = g_ctrl.target_current - g_ctrl.ir;
 985              		.loc 1 128 51 view .LVU338
 986 05ea 93ED027A 		vldr.32	s14, [r3, #8]
 128:Core/Src/power.c ****             error = g_ctrl.target_current - g_ctrl.ir;
 987              		.loc 1 128 19 view .LVU339
ARM GAS  C:\msys64\tmp\ccCw0bTg.s 			page 26


 988 05ee 77EEC77A 		vsub.f32	s15, s15, s14
 989              	.LVL47:
 129:Core/Src/power.c ****              g_ctrl.pid_integral += error * 0.0002f; 
 990              		.loc 1 129 14 is_stmt 1 view .LVU340
 129:Core/Src/power.c ****              g_ctrl.pid_integral += error * 0.0002f; 
 991              		.loc 1 129 20 is_stmt 0 view .LVU341
 992 05f2 93ED0C7A 		vldr.32	s14, [r3, #48]
 129:Core/Src/power.c ****              g_ctrl.pid_integral += error * 0.0002f; 
 993              		.loc 1 129 43 view .LVU342
 994 05f6 DFEDB96A 		vldr.32	s13, .L195+12
 995 05fa 67EEA66A 		vmul.f32	s13, s15, s13
 129:Core/Src/power.c ****              g_ctrl.pid_integral += error * 0.0002f; 
 996              		.loc 1 129 34 view .LVU343
 997 05fe 37EE267A 		vadd.f32	s14, s14, s13
 998 0602 83ED0C7A 		vstr.32	s14, [r3, #48]
 131:Core/Src/power.c ****         if (g_ctrl.pid_integral > 0.2f) g_ctrl.pid_integral = 0.2f; 
 999              		.loc 1 131 9 is_stmt 1 view .LVU344
 131:Core/Src/power.c ****         if (g_ctrl.pid_integral > 0.2f) g_ctrl.pid_integral = 0.2f; 
 1000              		.loc 1 131 19 is_stmt 0 view .LVU345
 1001 0606 D3ED0C6A 		vldr.32	s13, [r3, #48]
 131:Core/Src/power.c ****         if (g_ctrl.pid_integral > 0.2f) g_ctrl.pid_integral = 0.2f; 
 1002              		.loc 1 131 12 view .LVU346
 1003 060a 9FEDB57A 		vldr.32	s14, .L195+16
 1004 060e F4EEC76A 		vcmpe.f32	s13, s14
 1005 0612 F1EE10FA 		vmrs	APSR_nzcv, FPSCR
 1006 0616 01DD     		ble	.L56
 131:Core/Src/power.c ****         if (g_ctrl.pid_integral > 0.2f) g_ctrl.pid_integral = 0.2f; 
 1007              		.loc 1 131 41 is_stmt 1 discriminator 1 view .LVU347
 131:Core/Src/power.c ****         if (g_ctrl.pid_integral > 0.2f) g_ctrl.pid_integral = 0.2f; 
 1008              		.loc 1 131 61 is_stmt 0 discriminator 1 view .LVU348
 1009 0618 83ED0C7A 		vstr.32	s14, [r3, #48]
 1010              	.L56:
 132:Core/Src/power.c ****         if (g_ctrl.pid_integral < -0.2f) g_ctrl.pid_integral = -0.2f;
 1011              		.loc 1 132 9 is_stmt 1 view .LVU349
 132:Core/Src/power.c ****         if (g_ctrl.pid_integral < -0.2f) g_ctrl.pid_integral = -0.2f;
 1012              		.loc 1 132 19 is_stmt 0 view .LVU350
 1013 061c AE4B     		ldr	r3, .L195+8
 1014 061e D3ED0C6A 		vldr.32	s13, [r3, #48]
 132:Core/Src/power.c ****         if (g_ctrl.pid_integral < -0.2f) g_ctrl.pid_integral = -0.2f;
 1015              		.loc 1 132 12 view .LVU351
 1016 0622 9FEDB07A 		vldr.32	s14, .L195+20
 1017 0626 F4EEC76A 		vcmpe.f32	s13, s14
 1018 062a F1EE10FA 		vmrs	APSR_nzcv, FPSCR
 1019 062e 01D5     		bpl	.L58
 132:Core/Src/power.c ****         if (g_ctrl.pid_integral < -0.2f) g_ctrl.pid_integral = -0.2f;
 1020              		.loc 1 132 42 is_stmt 1 discriminator 1 view .LVU352
 132:Core/Src/power.c ****         if (g_ctrl.pid_integral < -0.2f) g_ctrl.pid_integral = -0.2f;
 1021              		.loc 1 132 62 is_stmt 0 discriminator 1 view .LVU353
 1022 0630 83ED0C7A 		vstr.32	s14, [r3, #48]
 1023              	.L58:
 133:Core/Src/power.c ****          pid_out = (error * current_Kp) + g_ctrl.pid_integral;
 1024              		.loc 1 133 10 is_stmt 1 view .LVU354
 133:Core/Src/power.c ****          pid_out = (error * current_Kp) + g_ctrl.pid_integral;
 1025              		.loc 1 133 27 is_stmt 0 view .LVU355
 1026 0634 9FEDAC7A 		vldr.32	s14, .L195+24
 1027 0638 67EE877A 		vmul.f32	s15, s15, s14
 1028              	.LVL48:
ARM GAS  C:\msys64\tmp\ccCw0bTg.s 			page 27


 133:Core/Src/power.c ****          pid_out = (error * current_Kp) + g_ctrl.pid_integral;
 1029              		.loc 1 133 49 view .LVU356
 1030 063c A64B     		ldr	r3, .L195+8
 1031 063e 93ED0C7A 		vldr.32	s14, [r3, #48]
 133:Core/Src/power.c ****          pid_out = (error * current_Kp) + g_ctrl.pid_integral;
 1032              		.loc 1 133 18 view .LVU357
 1033 0642 77EE877A 		vadd.f32	s15, s15, s14
 1034              	.LVL49:
 133:Core/Src/power.c ****          pid_out = (error * current_Kp) + g_ctrl.pid_integral;
 1035              		.loc 1 133 18 view .LVU358
 1036 0646 64E7     		b	.L45
 1037              	.LVL50:
 1038              	.L64:
 144:Core/Src/power.c ****             g_ctrl.final_duty_boost = 0.0f; // Boost 直通
 1039              		.loc 1 144 13 is_stmt 1 view .LVU359
 144:Core/Src/power.c ****             g_ctrl.final_duty_boost = 0.0f; // Boost 直通
 1040              		.loc 1 144 37 is_stmt 0 view .LVU360
 1041 0648 A34B     		ldr	r3, .L195+8
 1042 064a 0022     		movs	r2, #0
 1043 064c DA63     		str	r2, [r3, #60]	@ float
 145:Core/Src/power.c ****             if (g_ctrl.vb<5)
 1044              		.loc 1 145 13 is_stmt 1 view .LVU361
 145:Core/Src/power.c ****             if (g_ctrl.vb<5)
 1045              		.loc 1 145 23 is_stmt 0 view .LVU362
 1046 064e D3ED016A 		vldr.32	s13, [r3, #4]
 145:Core/Src/power.c ****             if (g_ctrl.vb<5)
 1047              		.loc 1 145 16 view .LVU363
 1048 0652 B1EE047A 		vmov.f32	s14, #5.0e+0
 1049 0656 F4EEC76A 		vcmpe.f32	s13, s14
 1050 065a F1EE10FA 		vmrs	APSR_nzcv, FPSCR
 1051 065e 1DD5     		bpl	.L164
 147:Core/Src/power.c ****               precharge_duty+=0.0000002;
 1052              		.loc 1 147 15 is_stmt 1 view .LVU364
 147:Core/Src/power.c ****               precharge_duty+=0.0000002;
 1053              		.loc 1 147 29 is_stmt 0 view .LVU365
 1054 0660 A24C     		ldr	r4, .L195+28
 1055 0662 2068     		ldr	r0, [r4]	@ float
 1056 0664 FFF7FEFF 		bl	__aeabi_f2d
 1057              	.LVL51:
 147:Core/Src/power.c ****               precharge_duty+=0.0000002;
 1058              		.loc 1 147 29 view .LVU366
 1059 0668 99A3     		adr	r3, .L195
 1060 066a D3E90023 		ldrd	r2, [r3]
 1061 066e FFF7FEFF 		bl	__aeabi_dadd
 1062              	.LVL52:
 1063 0672 FFF7FEFF 		bl	__aeabi_d2f
 1064              	.LVL53:
 1065 0676 07EE900A 		vmov	s15, r0
 1066 067a 2060     		str	r0, [r4]	@ float
 148:Core/Src/power.c ****         if (precharge_duty > 0.30f) precharge_duty = 0.30f;
 1067              		.loc 1 148 9 is_stmt 1 view .LVU367
 148:Core/Src/power.c ****         if (precharge_duty > 0.30f) precharge_duty = 0.30f;
 1068              		.loc 1 148 12 is_stmt 0 view .LVU368
 1069 067c 9FED9C7A 		vldr.32	s14, .L195+32
 1070 0680 F4EEC77A 		vcmpe.f32	s15, s14
 1071 0684 F1EE10FA 		vmrs	APSR_nzcv, FPSCR
 1072 0688 01DD     		ble	.L67
ARM GAS  C:\msys64\tmp\ccCw0bTg.s 			page 28


 148:Core/Src/power.c ****         if (precharge_duty > 0.30f) precharge_duty = 0.30f;
 1073              		.loc 1 148 37 is_stmt 1 discriminator 1 view .LVU369
 148:Core/Src/power.c ****         if (precharge_duty > 0.30f) precharge_duty = 0.30f;
 1074              		.loc 1 148 52 is_stmt 0 discriminator 1 view .LVU370
 1075 068a 84ED007A 		vstr.32	s14, [r4]
 1076              	.L67:
 149:Core/Src/power.c ****         g_ctrl.final_duty_buck = precharge_duty;
 1077              		.loc 1 149 9 is_stmt 1 view .LVU371
 149:Core/Src/power.c ****         g_ctrl.final_duty_buck = precharge_duty;
 1078              		.loc 1 149 32 is_stmt 0 view .LVU372
 1079 068e 974B     		ldr	r3, .L195+28
 1080 0690 1A68     		ldr	r2, [r3]	@ float
 1081 0692 914B     		ldr	r3, .L195+8
 1082 0694 9A63     		str	r2, [r3, #56]	@ float
 150:Core/Src/power.c ****         g_ctrl.pid_integral = 0.0f;
 1083              		.loc 1 150 9 is_stmt 1 view .LVU373
 150:Core/Src/power.c ****         g_ctrl.pid_integral = 0.0f;
 1084              		.loc 1 150 29 is_stmt 0 view .LVU374
 1085 0696 0022     		movs	r2, #0
 1086 0698 1A63     		str	r2, [r3, #48]	@ float
 1087 069a 97E5     		b	.L21
 1088              	.LVL54:
 1089              	.L164:
 152:Core/Src/power.c ****            else  g_ctrl.final_duty_buck = voltage_ratio  + pid_out; // 前馈+PID
 1090              		.loc 1 152 18 is_stmt 1 view .LVU375
 152:Core/Src/power.c ****            else  g_ctrl.final_duty_buck = voltage_ratio  + pid_out; // 前馈+PID
 1091              		.loc 1 152 58 is_stmt 0 view .LVU376
 1092 069c 77EE887A 		vadd.f32	s15, s15, s16
 1093              	.LVL55:
 152:Core/Src/power.c ****            else  g_ctrl.final_duty_buck = voltage_ratio  + pid_out; // 前馈+PID
 1094              		.loc 1 152 41 view .LVU377
 1095 06a0 8D4B     		ldr	r3, .L195+8
 1096 06a2 C3ED0E7A 		vstr.32	s15, [r3, #56]
 1097 06a6 91E5     		b	.L21
 1098              	.LVL56:
 1099              	.L63:
 155:Core/Src/power.c ****         g_ctrl.final_duty_buck=0.86f; // 过渡期 Buck 固定占空比，防止振荡
 1100              		.loc 1 155 9 is_stmt 1 view .LVU378
 155:Core/Src/power.c ****         g_ctrl.final_duty_buck=0.86f; // 过渡期 Buck 固定占空比，防止振荡
 1101              		.loc 1 155 31 is_stmt 0 view .LVU379
 1102 06a8 8B4B     		ldr	r3, .L195+8
 1103 06aa 924A     		ldr	r2, .L195+36
 1104 06ac 9A63     		str	r2, [r3, #56]	@ float
 156:Core/Src/power.c ****            v_mid =    g_ctrl.final_duty_buck* g_ctrl.va;
 1105              		.loc 1 156 12 is_stmt 1 view .LVU380
 156:Core/Src/power.c ****            v_mid =    g_ctrl.final_duty_buck* g_ctrl.va;
 1106              		.loc 1 156 29 is_stmt 0 view .LVU381
 1107 06ae 93ED0E7A 		vldr.32	s14, [r3, #56]
 156:Core/Src/power.c ****            v_mid =    g_ctrl.final_duty_buck* g_ctrl.va;
 1108              		.loc 1 156 53 view .LVU382
 1109 06b2 D3ED006A 		vldr.32	s13, [r3]
 156:Core/Src/power.c ****            v_mid =    g_ctrl.final_duty_buck* g_ctrl.va;
 1110              		.loc 1 156 18 view .LVU383
 1111 06b6 27EE267A 		vmul.f32	s14, s14, s13
 1112              	.LVL57:
 157:Core/Src/power.c ****            ff_boost_trans = 1.0f - (v_mid / g_ctrl.vb);
 1113              		.loc 1 157 12 is_stmt 1 view .LVU384
ARM GAS  C:\msys64\tmp\ccCw0bTg.s 			page 29


 157:Core/Src/power.c ****            ff_boost_trans = 1.0f - (v_mid / g_ctrl.vb);
 1114              		.loc 1 157 51 is_stmt 0 view .LVU385
 1115 06ba 93ED016A 		vldr.32	s12, [r3, #4]
 157:Core/Src/power.c ****            ff_boost_trans = 1.0f - (v_mid / g_ctrl.vb);
 1116              		.loc 1 157 43 view .LVU386
 1117 06be C7EE066A 		vdiv.f32	s13, s14, s12
 157:Core/Src/power.c ****            ff_boost_trans = 1.0f - (v_mid / g_ctrl.vb);
 1118              		.loc 1 157 27 view .LVU387
 1119 06c2 B7EE007A 		vmov.f32	s14, #1.0e+0
 1120              	.LVL58:
 157:Core/Src/power.c ****            ff_boost_trans = 1.0f - (v_mid / g_ctrl.vb);
 1121              		.loc 1 157 27 view .LVU388
 1122 06c6 37EE667A 		vsub.f32	s14, s14, s13
 1123              	.LVL59:
 158:Core/Src/power.c ****             if(ff_boost_trans < 0) ff_boost_trans = 0;
 1124              		.loc 1 158 13 is_stmt 1 view .LVU389
 158:Core/Src/power.c ****             if(ff_boost_trans < 0) ff_boost_trans = 0;
 1125              		.loc 1 158 15 is_stmt 0 view .LVU390
 1126 06ca B5EEC07A 		vcmpe.f32	s14, #0
 1127 06ce F1EE10FA 		vmrs	APSR_nzcv, FPSCR
 1128 06d2 05D4     		bmi	.L185
 1129              	.LVL60:
 1130              	.L69:
 159:Core/Src/power.c ****             g_ctrl.final_duty_boost = ff_boost_trans + pid_out;
 1131              		.loc 1 159 13 is_stmt 1 view .LVU391
 159:Core/Src/power.c ****             g_ctrl.final_duty_boost = ff_boost_trans + pid_out;
 1132              		.loc 1 159 54 is_stmt 0 view .LVU392
 1133 06d4 77EE877A 		vadd.f32	s15, s15, s14
 1134              	.LVL61:
 159:Core/Src/power.c ****             g_ctrl.final_duty_boost = ff_boost_trans + pid_out;
 1135              		.loc 1 159 37 view .LVU393
 1136 06d8 7F4B     		ldr	r3, .L195+8
 1137 06da C3ED0F7A 		vstr.32	s15, [r3, #60]
 161:Core/Src/power.c ****             break;
 1138              		.loc 1 161 13 is_stmt 1 view .LVU394
 1139 06de 75E5     		b	.L21
 1140              	.LVL62:
 1141              	.L185:
 158:Core/Src/power.c ****             if(ff_boost_trans < 0) ff_boost_trans = 0;
 1142              		.loc 1 158 51 is_stmt 0 discriminator 1 view .LVU395
 1143 06e0 9FED857A 		vldr.32	s14, .L195+40
 1144              	.LVL63:
 158:Core/Src/power.c ****             if(ff_boost_trans < 0) ff_boost_trans = 0;
 1145              		.loc 1 158 51 discriminator 1 view .LVU396
 1146 06e4 F6E7     		b	.L69
 1147              	.LVL64:
 1148              	.L60:
 163:Core/Src/power.c ****         g_ctrl.final_duty_boost = 0.0f; // Boost 直通
 1149              		.loc 1 163 9 is_stmt 1 view .LVU397
 163:Core/Src/power.c ****         g_ctrl.final_duty_boost = 0.0f; // Boost 直通
 1150              		.loc 1 163 33 is_stmt 0 view .LVU398
 1151 06e6 7C4B     		ldr	r3, .L195+8
 1152 06e8 0022     		movs	r2, #0
 1153 06ea DA63     		str	r2, [r3, #60]	@ float
 164:Core/Src/power.c ****         g_ctrl.final_duty_buck = voltage_ratio  + pid_out;
 1154              		.loc 1 164 9 is_stmt 1 view .LVU399
 164:Core/Src/power.c ****         g_ctrl.final_duty_buck = voltage_ratio  + pid_out;
ARM GAS  C:\msys64\tmp\ccCw0bTg.s 			page 30


 1155              		.loc 1 164 49 is_stmt 0 view .LVU400
 1156 06ec 77EE887A 		vadd.f32	s15, s15, s16
 1157              	.LVL65:
 164:Core/Src/power.c ****         g_ctrl.final_duty_buck = voltage_ratio  + pid_out;
 1158              		.loc 1 164 32 view .LVU401
 1159 06f0 C3ED0E7A 		vstr.32	s15, [r3, #56]
 165:Core/Src/power.c ****              break;
 1160              		.loc 1 165 14 is_stmt 1 view .LVU402
 1161 06f4 6AE5     		b	.L21
 1162              	.LVL66:
 1163              	.L62:
 167:Core/Src/power.c ****          g_ctrl.final_duty_buck=0.80f;
 1164              		.loc 1 167 10 view .LVU403
 167:Core/Src/power.c ****          g_ctrl.final_duty_buck=0.80f;
 1165              		.loc 1 167 32 is_stmt 0 view .LVU404
 1166 06f6 784B     		ldr	r3, .L195+8
 1167 06f8 804A     		ldr	r2, .L195+44
 1168 06fa 9A63     		str	r2, [r3, #56]	@ float
 168:Core/Src/power.c ****              v_mid =    g_ctrl.final_duty_buck* g_ctrl.va;
 1169              		.loc 1 168 14 is_stmt 1 view .LVU405
 168:Core/Src/power.c ****              v_mid =    g_ctrl.final_duty_buck* g_ctrl.va;
 1170              		.loc 1 168 31 is_stmt 0 view .LVU406
 1171 06fc 93ED0E7A 		vldr.32	s14, [r3, #56]
 168:Core/Src/power.c ****              v_mid =    g_ctrl.final_duty_buck* g_ctrl.va;
 1172              		.loc 1 168 55 view .LVU407
 1173 0700 D3ED006A 		vldr.32	s13, [r3]
 168:Core/Src/power.c ****              v_mid =    g_ctrl.final_duty_buck* g_ctrl.va;
 1174              		.loc 1 168 20 view .LVU408
 1175 0704 27EE267A 		vmul.f32	s14, s14, s13
 1176              	.LVL67:
 169:Core/Src/power.c ****              ff_boost_trans = 1.0f - (v_mid / g_ctrl.vb);
 1177              		.loc 1 169 14 is_stmt 1 view .LVU409
 169:Core/Src/power.c ****              ff_boost_trans = 1.0f - (v_mid / g_ctrl.vb);
 1178              		.loc 1 169 53 is_stmt 0 view .LVU410
 1179 0708 93ED016A 		vldr.32	s12, [r3, #4]
 169:Core/Src/power.c ****              ff_boost_trans = 1.0f - (v_mid / g_ctrl.vb);
 1180              		.loc 1 169 45 view .LVU411
 1181 070c C7EE066A 		vdiv.f32	s13, s14, s12
 169:Core/Src/power.c ****              ff_boost_trans = 1.0f - (v_mid / g_ctrl.vb);
 1182              		.loc 1 169 29 view .LVU412
 1183 0710 B7EE007A 		vmov.f32	s14, #1.0e+0
 1184              	.LVL68:
 169:Core/Src/power.c ****              ff_boost_trans = 1.0f - (v_mid / g_ctrl.vb);
 1185              		.loc 1 169 29 view .LVU413
 1186 0714 37EE667A 		vsub.f32	s14, s14, s13
 1187              	.LVL69:
 170:Core/Src/power.c ****             if(ff_boost_trans < 0) ff_boost_trans = 0;
 1188              		.loc 1 170 13 is_stmt 1 view .LVU414
 170:Core/Src/power.c ****             if(ff_boost_trans < 0) ff_boost_trans = 0;
 1189              		.loc 1 170 15 is_stmt 0 view .LVU415
 1190 0718 B5EEC07A 		vcmpe.f32	s14, #0
 1191 071c F1EE10FA 		vmrs	APSR_nzcv, FPSCR
 1192 0720 05D4     		bmi	.L186
 1193              	.LVL70:
 1194              	.L70:
 171:Core/Src/power.c ****             g_ctrl.final_duty_boost = ff_boost_trans + pid_out;
 1195              		.loc 1 171 13 is_stmt 1 view .LVU416
ARM GAS  C:\msys64\tmp\ccCw0bTg.s 			page 31


 171:Core/Src/power.c ****             g_ctrl.final_duty_boost = ff_boost_trans + pid_out;
 1196              		.loc 1 171 54 is_stmt 0 view .LVU417
 1197 0722 77EE877A 		vadd.f32	s15, s15, s14
 1198              	.LVL71:
 171:Core/Src/power.c ****             g_ctrl.final_duty_boost = ff_boost_trans + pid_out;
 1199              		.loc 1 171 37 view .LVU418
 1200 0726 6C4B     		ldr	r3, .L195+8
 1201 0728 C3ED0F7A 		vstr.32	s15, [r3, #60]
 172:Core/Src/power.c ****             break;
 1202              		.loc 1 172 13 is_stmt 1 view .LVU419
 1203 072c 4EE5     		b	.L21
 1204              	.LVL72:
 1205              	.L186:
 170:Core/Src/power.c ****             if(ff_boost_trans < 0) ff_boost_trans = 0;
 1206              		.loc 1 170 51 is_stmt 0 discriminator 1 view .LVU420
 1207 072e 9FED727A 		vldr.32	s14, .L195+40
 1208              	.LVL73:
 170:Core/Src/power.c ****             if(ff_boost_trans < 0) ff_boost_trans = 0;
 1209              		.loc 1 170 51 discriminator 1 view .LVU421
 1210 0732 F6E7     		b	.L70
 1211              	.LVL74:
 1212              	.L174:
 182:Core/Src/power.c ****     if (g_ctrl.vb < 20.0f) g_ctrl.work_mode = MODE_BUCK_ONLY;
 1213              		.loc 1 182 5 is_stmt 1 view .LVU422
 182:Core/Src/power.c ****     if (g_ctrl.vb < 20.0f) g_ctrl.work_mode = MODE_BUCK_ONLY;
 1214              		.loc 1 182 15 is_stmt 0 view .LVU423
 1215 0734 684B     		ldr	r3, .L195+8
 1216 0736 93ED017A 		vldr.32	s14, [r3, #4]
 182:Core/Src/power.c ****     if (g_ctrl.vb < 20.0f) g_ctrl.work_mode = MODE_BUCK_ONLY;
 1217              		.loc 1 182 8 view .LVU424
 1218 073a F3EE047A 		vmov.f32	s15, #2.0e+1
 1219 073e B4EEE77A 		vcmpe.f32	s14, s15
 1220 0742 F1EE10FA 		vmrs	APSR_nzcv, FPSCR
 1221 0746 12D5     		bpl	.L165
 182:Core/Src/power.c ****     if (g_ctrl.vb < 20.0f) g_ctrl.work_mode = MODE_BUCK_ONLY;
 1222              		.loc 1 182 28 is_stmt 1 discriminator 1 view .LVU425
 182:Core/Src/power.c ****     if (g_ctrl.vb < 20.0f) g_ctrl.work_mode = MODE_BUCK_ONLY;
 1223              		.loc 1 182 45 is_stmt 0 discriminator 1 view .LVU426
 1224 0748 0022     		movs	r2, #0
 1225 074a 83F83520 		strb	r2, [r3, #53]
 1226              	.L74:
 185:Core/Src/power.c ****    if (g_ctrl.work_mode == MODE_BUCK_ONLY) {
 1227              		.loc 1 185 4 is_stmt 1 view .LVU427
 185:Core/Src/power.c ****    if (g_ctrl.work_mode == MODE_BUCK_ONLY) {
 1228              		.loc 1 185 14 is_stmt 0 view .LVU428
 1229 074e 624B     		ldr	r3, .L195+8
 1230 0750 93F83530 		ldrb	r3, [r3, #53]	@ zero_extendqisi2
 185:Core/Src/power.c ****    if (g_ctrl.work_mode == MODE_BUCK_ONLY) {
 1231              		.loc 1 185 7 view .LVU429
 1232 0754 83BB     		cbnz	r3, .L79
 186:Core/Src/power.c ****             g_ctrl.final_duty_buck = voltage_ratio;
 1233              		.loc 1 186 13 is_stmt 1 view .LVU430
 186:Core/Src/power.c ****             g_ctrl.final_duty_buck = voltage_ratio;
 1234              		.loc 1 186 36 is_stmt 0 view .LVU431
 1235 0756 604B     		ldr	r3, .L195+8
 1236 0758 83ED0E8A 		vstr.32	s16, [r3, #56]
 187:Core/Src/power.c ****             g_ctrl.final_duty_boost = 0.0f;
ARM GAS  C:\msys64\tmp\ccCw0bTg.s 			page 32


 1237              		.loc 1 187 13 is_stmt 1 view .LVU432
 187:Core/Src/power.c ****             g_ctrl.final_duty_boost = 0.0f;
 1238              		.loc 1 187 37 is_stmt 0 view .LVU433
 1239 075c 0022     		movs	r2, #0
 1240 075e DA63     		str	r2, [r3, #60]	@ float
 1241              	.LVL75:
 1242              	.L80:
 198:Core/Src/power.c ****     g_ctrl.pid_integral = 0.0f;
 1243              		.loc 1 198 5 is_stmt 1 view .LVU434
 198:Core/Src/power.c ****     g_ctrl.pid_integral = 0.0f;
 1244              		.loc 1 198 25 is_stmt 0 view .LVU435
 1245 0760 5D4B     		ldr	r3, .L195+8
 1246 0762 0022     		movs	r2, #0
 1247 0764 1A63     		str	r2, [r3, #48]	@ float
 199:Core/Src/power.c ****     g_ctrl.enable =2;
 1248              		.loc 1 199 5 is_stmt 1 view .LVU436
 199:Core/Src/power.c ****     g_ctrl.enable =2;
 1249              		.loc 1 199 19 is_stmt 0 view .LVU437
 1250 0766 0222     		movs	r2, #2
 1251 0768 83F83420 		strb	r2, [r3, #52]
 1252 076c 3DE5     		b	.L82
 1253              	.LVL76:
 1254              	.L165:
 183:Core/Src/power.c ****     else  if (g_ctrl.vb >= 20.0f && g_ctrl.vb < 29.5f)  g_ctrl.work_mode = MODE_TRANSITION;
 1255              		.loc 1 183 11 is_stmt 1 view .LVU438
 183:Core/Src/power.c ****     else  if (g_ctrl.vb >= 20.0f && g_ctrl.vb < 29.5f)  g_ctrl.work_mode = MODE_TRANSITION;
 1256              		.loc 1 183 21 is_stmt 0 view .LVU439
 1257 076e 5A4B     		ldr	r3, .L195+8
 1258 0770 93ED017A 		vldr.32	s14, [r3, #4]
 183:Core/Src/power.c ****     else  if (g_ctrl.vb >= 20.0f && g_ctrl.vb < 29.5f)  g_ctrl.work_mode = MODE_TRANSITION;
 1259              		.loc 1 183 14 view .LVU440
 1260 0774 F3EE047A 		vmov.f32	s15, #2.0e+1
 1261 0778 B4EEE77A 		vcmpe.f32	s14, s15
 1262 077c F1EE10FA 		vmrs	APSR_nzcv, FPSCR
 1263 0780 0CDB     		blt	.L75
 183:Core/Src/power.c ****     else  if (g_ctrl.vb >= 20.0f && g_ctrl.vb < 29.5f)  g_ctrl.work_mode = MODE_TRANSITION;
 1264              		.loc 1 183 43 discriminator 1 view .LVU441
 1265 0782 93ED017A 		vldr.32	s14, [r3, #4]
 183:Core/Src/power.c ****     else  if (g_ctrl.vb >= 20.0f && g_ctrl.vb < 29.5f)  g_ctrl.work_mode = MODE_TRANSITION;
 1266              		.loc 1 183 34 discriminator 1 view .LVU442
 1267 0786 DFED5E7A 		vldr.32	s15, .L195+48
 1268 078a B4EEE77A 		vcmpe.f32	s14, s15
 1269 078e F1EE10FA 		vmrs	APSR_nzcv, FPSCR
 1270 0792 03D5     		bpl	.L75
 183:Core/Src/power.c ****     else  if (g_ctrl.vb >= 20.0f && g_ctrl.vb < 29.5f)  g_ctrl.work_mode = MODE_TRANSITION;
 1271              		.loc 1 183 57 is_stmt 1 discriminator 2 view .LVU443
 183:Core/Src/power.c ****     else  if (g_ctrl.vb >= 20.0f && g_ctrl.vb < 29.5f)  g_ctrl.work_mode = MODE_TRANSITION;
 1272              		.loc 1 183 74 is_stmt 0 discriminator 2 view .LVU444
 1273 0794 0122     		movs	r2, #1
 1274 0796 83F83520 		strb	r2, [r3, #53]
 183:Core/Src/power.c ****     else  if (g_ctrl.vb >= 20.0f && g_ctrl.vb < 29.5f)  g_ctrl.work_mode = MODE_TRANSITION;
 1275              		.loc 1 183 74 view .LVU445
 1276 079a D8E7     		b	.L74
 1277              	.L75:
 184:Core/Src/power.c ****     else if (g_ctrl.vb >=29.5f) g_ctrl.work_mode = MODE_OVER;
 1278              		.loc 1 184 10 is_stmt 1 view .LVU446
 184:Core/Src/power.c ****     else if (g_ctrl.vb >=29.5f) g_ctrl.work_mode = MODE_OVER;
ARM GAS  C:\msys64\tmp\ccCw0bTg.s 			page 33


 1279              		.loc 1 184 20 is_stmt 0 view .LVU447
 1280 079c 4E4B     		ldr	r3, .L195+8
 1281 079e 93ED017A 		vldr.32	s14, [r3, #4]
 184:Core/Src/power.c ****     else if (g_ctrl.vb >=29.5f) g_ctrl.work_mode = MODE_OVER;
 1282              		.loc 1 184 13 view .LVU448
 1283 07a2 DFED577A 		vldr.32	s15, .L195+48
 1284 07a6 B4EEE77A 		vcmpe.f32	s14, s15
 1285 07aa F1EE10FA 		vmrs	APSR_nzcv, FPSCR
 1286 07ae CEDB     		blt	.L74
 184:Core/Src/power.c ****     else if (g_ctrl.vb >=29.5f) g_ctrl.work_mode = MODE_OVER;
 1287              		.loc 1 184 33 is_stmt 1 discriminator 1 view .LVU449
 184:Core/Src/power.c ****     else if (g_ctrl.vb >=29.5f) g_ctrl.work_mode = MODE_OVER;
 1288              		.loc 1 184 50 is_stmt 0 discriminator 1 view .LVU450
 1289 07b0 0422     		movs	r2, #4
 1290 07b2 83F83520 		strb	r2, [r3, #53]
 1291 07b6 CAE7     		b	.L74
 1292              	.L79:
 189:Core/Src/power.c ****         else if (g_ctrl.work_mode == MODE_TRANSITION) {
 1293              		.loc 1 189 14 is_stmt 1 view .LVU451
 189:Core/Src/power.c ****         else if (g_ctrl.work_mode == MODE_TRANSITION) {
 1294              		.loc 1 189 24 is_stmt 0 view .LVU452
 1295 07b8 474B     		ldr	r3, .L195+8
 1296 07ba 93F83530 		ldrb	r3, [r3, #53]	@ zero_extendqisi2
 1297 07be DBB2     		uxtb	r3, r3
 189:Core/Src/power.c ****         else if (g_ctrl.work_mode == MODE_TRANSITION) {
 1298              		.loc 1 189 17 view .LVU453
 1299 07c0 012B     		cmp	r3, #1
 1300 07c2 CDD1     		bne	.L80
 190:Core/Src/power.c ****             g_ctrl.final_duty_buck = 0.86f;
 1301              		.loc 1 190 13 is_stmt 1 view .LVU454
 190:Core/Src/power.c ****             g_ctrl.final_duty_buck = 0.86f;
 1302              		.loc 1 190 36 is_stmt 0 view .LVU455
 1303 07c4 444B     		ldr	r3, .L195+8
 1304 07c6 4B4A     		ldr	r2, .L195+36
 1305 07c8 9A63     		str	r2, [r3, #56]	@ float
 192:Core/Src/power.c ****              v_mid = g_ctrl.final_duty_buck * g_ctrl.va;
 1306              		.loc 1 192 14 is_stmt 1 view .LVU456
 192:Core/Src/power.c ****              v_mid = g_ctrl.final_duty_buck * g_ctrl.va;
 1307              		.loc 1 192 28 is_stmt 0 view .LVU457
 1308 07ca D3ED0E7A 		vldr.32	s15, [r3, #56]
 192:Core/Src/power.c ****              v_mid = g_ctrl.final_duty_buck * g_ctrl.va;
 1309              		.loc 1 192 53 view .LVU458
 1310 07ce 93ED007A 		vldr.32	s14, [r3]
 192:Core/Src/power.c ****              v_mid = g_ctrl.final_duty_buck * g_ctrl.va;
 1311              		.loc 1 192 20 view .LVU459
 1312 07d2 67EE877A 		vmul.f32	s15, s15, s14
 1313              	.LVL77:
 193:Core/Src/power.c ****              est_boost = 1.0f - (v_mid / g_ctrl.vb);
 1314              		.loc 1 193 14 is_stmt 1 view .LVU460
 193:Core/Src/power.c ****              est_boost = 1.0f - (v_mid / g_ctrl.vb);
 1315              		.loc 1 193 48 is_stmt 0 view .LVU461
 1316 07d6 D3ED016A 		vldr.32	s13, [r3, #4]
 193:Core/Src/power.c ****              est_boost = 1.0f - (v_mid / g_ctrl.vb);
 1317              		.loc 1 193 40 view .LVU462
 1318 07da 87EEA67A 		vdiv.f32	s14, s15, s13
 193:Core/Src/power.c ****              est_boost = 1.0f - (v_mid / g_ctrl.vb);
 1319              		.loc 1 193 24 view .LVU463
ARM GAS  C:\msys64\tmp\ccCw0bTg.s 			page 34


 1320 07de F7EE007A 		vmov.f32	s15, #1.0e+0
 1321              	.LVL78:
 193:Core/Src/power.c ****              est_boost = 1.0f - (v_mid / g_ctrl.vb);
 1322              		.loc 1 193 24 view .LVU464
 1323 07e2 77EEC77A 		vsub.f32	s15, s15, s14
 1324              	.LVL79:
 194:Core/Src/power.c ****             if(est_boost < 0) est_boost = 0;
 1325              		.loc 1 194 13 is_stmt 1 view .LVU465
 194:Core/Src/power.c ****             if(est_boost < 0) est_boost = 0;
 1326              		.loc 1 194 15 is_stmt 0 view .LVU466
 1327 07e6 F5EEC07A 		vcmpe.f32	s15, #0
 1328 07ea F1EE10FA 		vmrs	APSR_nzcv, FPSCR
 1329 07ee 03D4     		bmi	.L187
 1330              	.LVL80:
 1331              	.L81:
 195:Core/Src/power.c ****             g_ctrl.final_duty_boost = est_boost;
 1332              		.loc 1 195 13 is_stmt 1 view .LVU467
 195:Core/Src/power.c ****             g_ctrl.final_duty_boost = est_boost;
 1333              		.loc 1 195 37 is_stmt 0 view .LVU468
 1334 07f0 394B     		ldr	r3, .L195+8
 1335 07f2 C3ED0F7A 		vstr.32	s15, [r3, #60]
 1336 07f6 B3E7     		b	.L80
 1337              	.L187:
 194:Core/Src/power.c ****             if(est_boost < 0) est_boost = 0;
 1338              		.loc 1 194 41 discriminator 1 view .LVU469
 1339 07f8 DFED3F7A 		vldr.32	s15, .L195+40
 1340              	.LVL81:
 194:Core/Src/power.c ****             if(est_boost < 0) est_boost = 0;
 1341              		.loc 1 194 41 discriminator 1 view .LVU470
 1342 07fc F8E7     		b	.L81
 1343              	.LVL82:
 1344              	.L175:
 203:Core/Src/power.c ****     if (g_ctrl.vb < 20.0f) g_ctrl.work_mode = MODE_RELEASE_BOOST;
 1345              		.loc 1 203 5 is_stmt 1 view .LVU471
 203:Core/Src/power.c ****     if (g_ctrl.vb < 20.0f) g_ctrl.work_mode = MODE_RELEASE_BOOST;
 1346              		.loc 1 203 15 is_stmt 0 view .LVU472
 1347 07fe 364B     		ldr	r3, .L195+8
 1348 0800 93ED017A 		vldr.32	s14, [r3, #4]
 203:Core/Src/power.c ****     if (g_ctrl.vb < 20.0f) g_ctrl.work_mode = MODE_RELEASE_BOOST;
 1349              		.loc 1 203 8 view .LVU473
 1350 0804 F3EE047A 		vmov.f32	s15, #2.0e+1
 1351 0808 B4EEE77A 		vcmpe.f32	s14, s15
 1352 080c F1EE10FA 		vmrs	APSR_nzcv, FPSCR
 1353 0810 15D5     		bpl	.L166
 203:Core/Src/power.c ****     if (g_ctrl.vb < 20.0f) g_ctrl.work_mode = MODE_RELEASE_BOOST;
 1354              		.loc 1 203 28 is_stmt 1 discriminator 1 view .LVU474
 203:Core/Src/power.c ****     if (g_ctrl.vb < 20.0f) g_ctrl.work_mode = MODE_RELEASE_BOOST;
 1355              		.loc 1 203 45 is_stmt 0 discriminator 1 view .LVU475
 1356 0812 0322     		movs	r2, #3
 1357 0814 83F83520 		strb	r2, [r3, #53]
 1358              	.L85:
 206:Core/Src/power.c ****    if (g_ctrl.work_mode == MODE_RELEASE_BOOST) {
 1359              		.loc 1 206 4 is_stmt 1 view .LVU476
 206:Core/Src/power.c ****    if (g_ctrl.work_mode == MODE_RELEASE_BOOST) {
 1360              		.loc 1 206 14 is_stmt 0 view .LVU477
 1361 0818 2F4B     		ldr	r3, .L195+8
 1362 081a 93F83530 		ldrb	r3, [r3, #53]	@ zero_extendqisi2
ARM GAS  C:\msys64\tmp\ccCw0bTg.s 			page 35


 1363 081e DBB2     		uxtb	r3, r3
 206:Core/Src/power.c ****    if (g_ctrl.work_mode == MODE_RELEASE_BOOST) {
 1364              		.loc 1 206 7 view .LVU478
 1365 0820 032B     		cmp	r3, #3
 1366 0822 31D0     		beq	.L188
 210:Core/Src/power.c ****         else if (g_ctrl.work_mode == MODE_RELEASE_TRANSITION) {
 1367              		.loc 1 210 14 is_stmt 1 view .LVU479
 210:Core/Src/power.c ****         else if (g_ctrl.work_mode == MODE_RELEASE_TRANSITION) {
 1368              		.loc 1 210 24 is_stmt 0 view .LVU480
 1369 0824 2C4B     		ldr	r3, .L195+8
 1370 0826 93F83530 		ldrb	r3, [r3, #53]	@ zero_extendqisi2
 1371 082a DBB2     		uxtb	r3, r3
 210:Core/Src/power.c ****         else if (g_ctrl.work_mode == MODE_RELEASE_TRANSITION) {
 1372              		.loc 1 210 17 view .LVU481
 1373 082c 022B     		cmp	r3, #2
 1374 082e 31D0     		beq	.L189
 1375              	.LVL83:
 1376              	.L91:
 219:Core/Src/power.c ****     g_ctrl.pid_integral = 0.0f;
 1377              		.loc 1 219 5 is_stmt 1 view .LVU482
 219:Core/Src/power.c ****     g_ctrl.pid_integral = 0.0f;
 1378              		.loc 1 219 25 is_stmt 0 view .LVU483
 1379 0830 294B     		ldr	r3, .L195+8
 1380 0832 0022     		movs	r2, #0
 1381 0834 1A63     		str	r2, [r3, #48]	@ float
 220:Core/Src/power.c ****     g_ctrl.enable =3;
 1382              		.loc 1 220 5 is_stmt 1 view .LVU484
 220:Core/Src/power.c ****     g_ctrl.enable =3;
 1383              		.loc 1 220 19 is_stmt 0 view .LVU485
 1384 0836 0322     		movs	r2, #3
 1385 0838 83F83420 		strb	r2, [r3, #52]
 1386 083c D5E4     		b	.L82
 1387              	.LVL84:
 1388              	.L166:
 204:Core/Src/power.c ****     else  if (g_ctrl.vb >= 20.0f && g_ctrl.vb < 29.5f)  g_ctrl.work_mode = MODE_RELEASE_TRANSITION;
 1389              		.loc 1 204 11 is_stmt 1 view .LVU486
 204:Core/Src/power.c ****     else  if (g_ctrl.vb >= 20.0f && g_ctrl.vb < 29.5f)  g_ctrl.work_mode = MODE_RELEASE_TRANSITION;
 1390              		.loc 1 204 21 is_stmt 0 view .LVU487
 1391 083e 264B     		ldr	r3, .L195+8
 1392 0840 93ED017A 		vldr.32	s14, [r3, #4]
 204:Core/Src/power.c ****     else  if (g_ctrl.vb >= 20.0f && g_ctrl.vb < 29.5f)  g_ctrl.work_mode = MODE_RELEASE_TRANSITION;
 1393              		.loc 1 204 14 view .LVU488
 1394 0844 F3EE047A 		vmov.f32	s15, #2.0e+1
 1395 0848 B4EEE77A 		vcmpe.f32	s14, s15
 1396 084c F1EE10FA 		vmrs	APSR_nzcv, FPSCR
 1397 0850 0CDB     		blt	.L86
 204:Core/Src/power.c ****     else  if (g_ctrl.vb >= 20.0f && g_ctrl.vb < 29.5f)  g_ctrl.work_mode = MODE_RELEASE_TRANSITION;
 1398              		.loc 1 204 43 discriminator 1 view .LVU489
 1399 0852 93ED017A 		vldr.32	s14, [r3, #4]
 204:Core/Src/power.c ****     else  if (g_ctrl.vb >= 20.0f && g_ctrl.vb < 29.5f)  g_ctrl.work_mode = MODE_RELEASE_TRANSITION;
 1400              		.loc 1 204 34 discriminator 1 view .LVU490
 1401 0856 DFED2A7A 		vldr.32	s15, .L195+48
 1402 085a B4EEE77A 		vcmpe.f32	s14, s15
 1403 085e F1EE10FA 		vmrs	APSR_nzcv, FPSCR
 1404 0862 03D5     		bpl	.L86
 204:Core/Src/power.c ****     else  if (g_ctrl.vb >= 20.0f && g_ctrl.vb < 29.5f)  g_ctrl.work_mode = MODE_RELEASE_TRANSITION;
 1405              		.loc 1 204 57 is_stmt 1 discriminator 2 view .LVU491
ARM GAS  C:\msys64\tmp\ccCw0bTg.s 			page 36


 204:Core/Src/power.c ****     else  if (g_ctrl.vb >= 20.0f && g_ctrl.vb < 29.5f)  g_ctrl.work_mode = MODE_RELEASE_TRANSITION;
 1406              		.loc 1 204 74 is_stmt 0 discriminator 2 view .LVU492
 1407 0864 0222     		movs	r2, #2
 1408 0866 83F83520 		strb	r2, [r3, #53]
 204:Core/Src/power.c ****     else  if (g_ctrl.vb >= 20.0f && g_ctrl.vb < 29.5f)  g_ctrl.work_mode = MODE_RELEASE_TRANSITION;
 1409              		.loc 1 204 74 view .LVU493
 1410 086a D5E7     		b	.L85
 1411              	.L86:
 205:Core/Src/power.c ****     else if (g_ctrl.vb >=29.5f) g_ctrl.work_mode = MODE_OVER;
 1412              		.loc 1 205 10 is_stmt 1 view .LVU494
 205:Core/Src/power.c ****     else if (g_ctrl.vb >=29.5f) g_ctrl.work_mode = MODE_OVER;
 1413              		.loc 1 205 20 is_stmt 0 view .LVU495
 1414 086c 1A4B     		ldr	r3, .L195+8
 1415 086e 93ED017A 		vldr.32	s14, [r3, #4]
 205:Core/Src/power.c ****     else if (g_ctrl.vb >=29.5f) g_ctrl.work_mode = MODE_OVER;
 1416              		.loc 1 205 13 view .LVU496
 1417 0872 DFED237A 		vldr.32	s15, .L195+48
 1418 0876 B4EEE77A 		vcmpe.f32	s14, s15
 1419 087a F1EE10FA 		vmrs	APSR_nzcv, FPSCR
 1420 087e CBDB     		blt	.L85
 205:Core/Src/power.c ****     else if (g_ctrl.vb >=29.5f) g_ctrl.work_mode = MODE_OVER;
 1421              		.loc 1 205 33 is_stmt 1 discriminator 1 view .LVU497
 205:Core/Src/power.c ****     else if (g_ctrl.vb >=29.5f) g_ctrl.work_mode = MODE_OVER;
 1422              		.loc 1 205 50 is_stmt 0 discriminator 1 view .LVU498
 1423 0880 0422     		movs	r2, #4
 1424 0882 83F83520 		strb	r2, [r3, #53]
 1425 0886 C7E7     		b	.L85
 1426              	.L188:
 207:Core/Src/power.c ****             g_ctrl.final_duty_buck = voltage_ratio;
 1427              		.loc 1 207 13 is_stmt 1 view .LVU499
 207:Core/Src/power.c ****             g_ctrl.final_duty_buck = voltage_ratio;
 1428              		.loc 1 207 36 is_stmt 0 view .LVU500
 1429 0888 134B     		ldr	r3, .L195+8
 1430 088a 83ED0E8A 		vstr.32	s16, [r3, #56]
 208:Core/Src/power.c ****             g_ctrl.final_duty_boost = 0.0f;
 1431              		.loc 1 208 13 is_stmt 1 view .LVU501
 208:Core/Src/power.c ****             g_ctrl.final_duty_boost = 0.0f;
 1432              		.loc 1 208 37 is_stmt 0 view .LVU502
 1433 088e 0022     		movs	r2, #0
 1434 0890 DA63     		str	r2, [r3, #60]	@ float
 1435 0892 CDE7     		b	.L91
 1436              	.L189:
 211:Core/Src/power.c ****             g_ctrl.final_duty_buck = 0.80f;
 1437              		.loc 1 211 13 is_stmt 1 view .LVU503
 211:Core/Src/power.c ****             g_ctrl.final_duty_buck = 0.80f;
 1438              		.loc 1 211 36 is_stmt 0 view .LVU504
 1439 0894 104B     		ldr	r3, .L195+8
 1440 0896 194A     		ldr	r2, .L195+44
 1441 0898 9A63     		str	r2, [r3, #56]	@ float
 213:Core/Src/power.c ****             v_mid = g_ctrl.final_duty_buck * g_ctrl.va;
 1442              		.loc 1 213 13 is_stmt 1 view .LVU505
 213:Core/Src/power.c ****             v_mid = g_ctrl.final_duty_buck * g_ctrl.va;
 1443              		.loc 1 213 27 is_stmt 0 view .LVU506
 1444 089a D3ED0E7A 		vldr.32	s15, [r3, #56]
 213:Core/Src/power.c ****             v_mid = g_ctrl.final_duty_buck * g_ctrl.va;
 1445              		.loc 1 213 52 view .LVU507
 1446 089e 93ED007A 		vldr.32	s14, [r3]
ARM GAS  C:\msys64\tmp\ccCw0bTg.s 			page 37


 213:Core/Src/power.c ****             v_mid = g_ctrl.final_duty_buck * g_ctrl.va;
 1447              		.loc 1 213 19 view .LVU508
 1448 08a2 67EE877A 		vmul.f32	s15, s15, s14
 1449              	.LVL85:
 214:Core/Src/power.c ****             est_boost = 1.0f - (v_mid / g_ctrl.vb);
 1450              		.loc 1 214 13 is_stmt 1 view .LVU509
 214:Core/Src/power.c ****             est_boost = 1.0f - (v_mid / g_ctrl.vb);
 1451              		.loc 1 214 47 is_stmt 0 view .LVU510
 1452 08a6 D3ED016A 		vldr.32	s13, [r3, #4]
 214:Core/Src/power.c ****             est_boost = 1.0f - (v_mid / g_ctrl.vb);
 1453              		.loc 1 214 39 view .LVU511
 1454 08aa 87EEA67A 		vdiv.f32	s14, s15, s13
 214:Core/Src/power.c ****             est_boost = 1.0f - (v_mid / g_ctrl.vb);
 1455              		.loc 1 214 23 view .LVU512
 1456 08ae F7EE007A 		vmov.f32	s15, #1.0e+0
 1457              	.LVL86:
 214:Core/Src/power.c ****             est_boost = 1.0f - (v_mid / g_ctrl.vb);
 1458              		.loc 1 214 23 view .LVU513
 1459 08b2 77EEC77A 		vsub.f32	s15, s15, s14
 1460              	.LVL87:
 215:Core/Src/power.c ****             if(est_boost < 0) est_boost = 0;
 1461              		.loc 1 215 13 is_stmt 1 view .LVU514
 215:Core/Src/power.c ****             if(est_boost < 0) est_boost = 0;
 1462              		.loc 1 215 15 is_stmt 0 view .LVU515
 1463 08b6 F5EEC07A 		vcmpe.f32	s15, #0
 1464 08ba F1EE10FA 		vmrs	APSR_nzcv, FPSCR
 1465 08be 03D4     		bmi	.L190
 1466              	.LVL88:
 1467              	.L92:
 216:Core/Src/power.c ****             g_ctrl.final_duty_boost = est_boost;
 1468              		.loc 1 216 13 is_stmt 1 view .LVU516
 216:Core/Src/power.c ****             g_ctrl.final_duty_boost = est_boost;
 1469              		.loc 1 216 37 is_stmt 0 view .LVU517
 1470 08c0 054B     		ldr	r3, .L195+8
 1471 08c2 C3ED0F7A 		vstr.32	s15, [r3, #60]
 1472 08c6 B3E7     		b	.L91
 1473              	.L190:
 215:Core/Src/power.c ****             if(est_boost < 0) est_boost = 0;
 1474              		.loc 1 215 41 discriminator 1 view .LVU518
 1475 08c8 DFED0B7A 		vldr.32	s15, .L195+40
 1476              	.LVL89:
 215:Core/Src/power.c ****             if(est_boost < 0) est_boost = 0;
 1477              		.loc 1 215 41 discriminator 1 view .LVU519
 1478 08cc F8E7     		b	.L92
 1479              	.L196:
 1480 08ce 00BF     		.align	3
 1481              	.L195:
 1482 08d0 48AFBC9A 		.word	-1698910392
 1483 08d4 F2D78A3E 		.word	1049286642
 1484 08d8 00000000 		.word	g_ctrl
 1485 08dc 17B75139 		.word	961656599
 1486 08e0 CDCC4C3E 		.word	1045220557
 1487 08e4 CDCC4CBE 		.word	-1102263091
 1488 08e8 ACC5A738 		.word	950519212
 1489 08ec 00000000 		.word	precharge_duty.2
 1490 08f0 9A99993E 		.word	1050253722
 1491 08f4 F6285C3F 		.word	1063004406
ARM GAS  C:\msys64\tmp\ccCw0bTg.s 			page 38


 1492 08f8 00000000 		.word	0
 1493 08fc CDCC4C3F 		.word	1061997773
 1494 0900 0000EC41 		.word	1105985536
 1495              	.LVL90:
 1496              	.L176:
 222:Core/Src/power.c ****         if (g_ctrl.work_mode != last_mode || g_ctrl.enable != last_ENABLE)
 1497              		.loc 1 222 52 discriminator 1 view .LVU520
 1498 0904 174B     		ldr	r3, .L197
 1499 0906 93F83430 		ldrb	r3, [r3, #52]	@ zero_extendqisi2
 1500 090a 5BB2     		sxtb	r3, r3
 222:Core/Src/power.c ****         if (g_ctrl.work_mode != last_mode || g_ctrl.enable != last_ENABLE)
 1501              		.loc 1 222 60 discriminator 1 view .LVU521
 1502 090c 164A     		ldr	r2, .L197+4
 1503 090e 1278     		ldrb	r2, [r2]	@ zero_extendqisi2
 222:Core/Src/power.c ****         if (g_ctrl.work_mode != last_mode || g_ctrl.enable != last_ENABLE)
 1504              		.loc 1 222 43 discriminator 1 view .LVU522
 1505 0910 9342     		cmp	r3, r2
 1506 0912 7FF473AC 		bne	.L93
 1507 0916 80E4     		b	.L94
 1508              	.LVL91:
 1509              	.L167:
 235:Core/Src/power.c ****     } else if (delta < -MAX_SLEW_RATE) {
 1510              		.loc 1 235 12 is_stmt 1 view .LVU523
 235:Core/Src/power.c ****     } else if (delta < -MAX_SLEW_RATE) {
 1511              		.loc 1 235 15 is_stmt 0 view .LVU524
 1512 0918 DFED146A 		vldr.32	s13, .L197+8
 1513 091c F4EEE67A 		vcmpe.f32	s15, s13
 1514 0920 F1EE10FA 		vmrs	APSR_nzcv, FPSCR
 1515 0924 7FF58EAC 		bpl	.L97
 236:Core/Src/power.c ****         g_ctrl.final_duty_boost = last_boost_duty - MAX_SLEW_RATE;
 1516              		.loc 1 236 9 is_stmt 1 view .LVU525
 236:Core/Src/power.c ****         g_ctrl.final_duty_boost = last_boost_duty - MAX_SLEW_RATE;
 1517              		.loc 1 236 51 is_stmt 0 view .LVU526
 1518 0928 DFED117A 		vldr.32	s15, .L197+12
 1519              	.LVL92:
 236:Core/Src/power.c ****         g_ctrl.final_duty_boost = last_boost_duty - MAX_SLEW_RATE;
 1520              		.loc 1 236 51 view .LVU527
 1521 092c 37EE677A 		vsub.f32	s14, s14, s15
 236:Core/Src/power.c ****         g_ctrl.final_duty_boost = last_boost_duty - MAX_SLEW_RATE;
 1522              		.loc 1 236 33 view .LVU528
 1523 0930 0C4B     		ldr	r3, .L197
 1524 0932 83ED0F7A 		vstr.32	s14, [r3, #60]
 1525 0936 85E4     		b	.L97
 1526              	.LVL93:
 1527              	.L168:
 240:Core/Src/power.c ****     else if (delta_buck < -MAX_SLEW_RATE) g_ctrl.final_duty_buck = last_buck_duty - MAX_SLEW_RATE;
 1528              		.loc 1 240 10 is_stmt 1 view .LVU529
 240:Core/Src/power.c ****     else if (delta_buck < -MAX_SLEW_RATE) g_ctrl.final_duty_buck = last_buck_duty - MAX_SLEW_RATE;
 1529              		.loc 1 240 13 is_stmt 0 view .LVU530
 1530 0938 DFED0C6A 		vldr.32	s13, .L197+8
 1531 093c F4EEE67A 		vcmpe.f32	s15, s13
 1532 0940 F1EE10FA 		vmrs	APSR_nzcv, FPSCR
 1533 0944 7FF593AC 		bpl	.L101
 240:Core/Src/power.c ****     else if (delta_buck < -MAX_SLEW_RATE) g_ctrl.final_duty_buck = last_buck_duty - MAX_SLEW_RATE;
 1534              		.loc 1 240 43 is_stmt 1 discriminator 1 view .LVU531
 240:Core/Src/power.c ****     else if (delta_buck < -MAX_SLEW_RATE) g_ctrl.final_duty_buck = last_buck_duty - MAX_SLEW_RATE;
 1535              		.loc 1 240 83 is_stmt 0 discriminator 1 view .LVU532
ARM GAS  C:\msys64\tmp\ccCw0bTg.s 			page 39


 1536 0948 DFED097A 		vldr.32	s15, .L197+12
 1537              	.LVL94:
 240:Core/Src/power.c ****     else if (delta_buck < -MAX_SLEW_RATE) g_ctrl.final_duty_buck = last_buck_duty - MAX_SLEW_RATE;
 1538              		.loc 1 240 83 discriminator 1 view .LVU533
 1539 094c 37EE677A 		vsub.f32	s14, s14, s15
 240:Core/Src/power.c ****     else if (delta_buck < -MAX_SLEW_RATE) g_ctrl.final_duty_buck = last_buck_duty - MAX_SLEW_RATE;
 1540              		.loc 1 240 66 discriminator 1 view .LVU534
 1541 0950 044B     		ldr	r3, .L197
 1542 0952 83ED0E7A 		vstr.32	s14, [r3, #56]
 1543 0956 8AE4     		b	.L101
 1544              	.L177:
 244:Core/Src/power.c ****     if (g_ctrl.final_duty_buck < 0.0f) g_ctrl.final_duty_buck = 0.0f;
 1545              		.loc 1 244 40 is_stmt 1 discriminator 1 view .LVU535
 244:Core/Src/power.c ****     if (g_ctrl.final_duty_buck < 0.0f) g_ctrl.final_duty_buck = 0.0f;
 1546              		.loc 1 244 63 is_stmt 0 discriminator 1 view .LVU536
 1547 0958 0022     		movs	r2, #0
 1548 095a 9A63     		str	r2, [r3, #56]	@ float
 1549 095c 9CE4     		b	.L105
 1550              	.L178:
 247:Core/Src/power.c ****     if (g_ctrl.final_duty_boost < 0.0f) g_ctrl.final_duty_boost = 0.0f;
 1551              		.loc 1 247 41 is_stmt 1 discriminator 1 view .LVU537
 247:Core/Src/power.c ****     if (g_ctrl.final_duty_boost < 0.0f) g_ctrl.final_duty_boost = 0.0f;
 1552              		.loc 1 247 65 is_stmt 0 discriminator 1 view .LVU538
 1553 095e 0022     		movs	r2, #0
 1554 0960 DA63     		str	r2, [r3, #60]	@ float
 1555 0962 AEE4     		b	.L109
 1556              	.L198:
 1557              		.align	2
 1558              	.L197:
 1559 0964 00000000 		.word	g_ctrl
 1560 0968 00000000 		.word	last_ENABLE.3
 1561 096c 17B7D1B8 		.word	-1194215657
 1562 0970 17B7D138 		.word	953267991
 1563              		.cfi_endproc
 1564              	.LFE123:
 1566              		.section	.bss.last_boost_duty.0,"aw",%nobits
 1567              		.align	2
 1570              	last_boost_duty.0:
 1571 0000 00000000 		.space	4
 1572              		.section	.data.last_buck_duty.1,"aw"
 1573              		.align	2
 1576              	last_buck_duty.1:
 1577 0000 CDCC4C3D 		.word	1028443341
 1578              		.section	.bss.precharge_duty.2,"aw",%nobits
 1579              		.align	2
 1582              	precharge_duty.2:
 1583 0000 00000000 		.space	4
 1584              		.section	.bss.last_ENABLE.3,"aw",%nobits
 1587              	last_ENABLE.3:
 1588 0000 00       		.space	1
 1589              		.section	.data.last_mode.4,"aw"
 1592              	last_mode.4:
 1593 0000 05       		.byte	5
 1594              		.global	g_ctrl
 1595              		.section	.bss.g_ctrl,"aw",%nobits
 1596              		.align	2
 1599              	g_ctrl:
ARM GAS  C:\msys64\tmp\ccCw0bTg.s 			page 40


 1600 0000 00000000 		.space	68
 1600      00000000 
 1600      00000000 
 1600      00000000 
 1600      00000000 
 1601              		.text
 1602              	.Letext0:
 1603              		.file 2 "C:/msys64/ucrt64/arm-none-eabi/include/machine/_default_types.h"
 1604              		.file 3 "C:/msys64/ucrt64/arm-none-eabi/include/sys/_stdint.h"
 1605              		.file 4 "Core/Inc/power.h"
 1606              		.file 5 "Drivers/CMSIS/Device/ST/STM32F3xx/Include/stm32f334x8.h"
 1607              		.file 6 "Drivers/STM32F3xx_HAL_Driver/Inc/stm32f3xx_hal_def.h"
 1608              		.file 7 "Drivers/STM32F3xx_HAL_Driver/Inc/stm32f3xx_hal_dma.h"
 1609              		.file 8 "Drivers/STM32F3xx_HAL_Driver/Inc/stm32f3xx_hal_hrtim.h"
 1610              		.file 9 "Core/Inc/main.h"
ARM GAS  C:\msys64\tmp\ccCw0bTg.s 			page 41

