ARM GAS  C:\msys64\tmp\cc8m32jh.s 			page 1


   1              		.cpu cortex-m4
   2              		.arch armv7e-m
   3              		.fpu fpv4-sp-d16
   4              		.eabi_attribute 27, 1
   5              		.eabi_attribute 28, 1
   6              		.eabi_attribute 20, 1
   7              		.eabi_attribute 21, 1
   8              		.eabi_attribute 23, 3
   9              		.eabi_attribute 24, 1
  10              		.eabi_attribute 25, 1
  11              		.eabi_attribute 26, 1
  12              		.eabi_attribute 30, 1
  13              		.eabi_attribute 34, 1
  14              		.eabi_attribute 18, 4
  15              		.file	"stm32f3xx_hal_can.c"
  16              		.text
  17              	.Ltext0:
  18              		.cfi_sections	.debug_frame
  19              		.file 1 "Drivers/STM32F3xx_HAL_Driver/Src/stm32f3xx_hal_can.c"
  20              		.section	.text.HAL_CAN_MspInit,"ax",%progbits
  21              		.align	1
  22              		.weak	HAL_CAN_MspInit
  23              		.syntax unified
  24              		.thumb
  25              		.thumb_func
  27              	HAL_CAN_MspInit:
  28              	.LVL0:
  29              	.LFB125:
   1:Drivers/STM32F3xx_HAL_Driver/Src/stm32f3xx_hal_can.c **** /**
   2:Drivers/STM32F3xx_HAL_Driver/Src/stm32f3xx_hal_can.c ****   ******************************************************************************
   3:Drivers/STM32F3xx_HAL_Driver/Src/stm32f3xx_hal_can.c ****   * @file    stm32f3xx_hal_can.c
   4:Drivers/STM32F3xx_HAL_Driver/Src/stm32f3xx_hal_can.c ****   * @author  MCD Application Team
   5:Drivers/STM32F3xx_HAL_Driver/Src/stm32f3xx_hal_can.c ****   * @brief   CAN HAL module driver.
   6:Drivers/STM32F3xx_HAL_Driver/Src/stm32f3xx_hal_can.c ****   *          This file provides firmware functions to manage the following
   7:Drivers/STM32F3xx_HAL_Driver/Src/stm32f3xx_hal_can.c ****   *          functionalities of the Controller Area Network (CAN) peripheral:
   8:Drivers/STM32F3xx_HAL_Driver/Src/stm32f3xx_hal_can.c ****   *           + Initialization and de-initialization functions
   9:Drivers/STM32F3xx_HAL_Driver/Src/stm32f3xx_hal_can.c ****   *           + Configuration functions
  10:Drivers/STM32F3xx_HAL_Driver/Src/stm32f3xx_hal_can.c ****   *           + Control functions
  11:Drivers/STM32F3xx_HAL_Driver/Src/stm32f3xx_hal_can.c ****   *           + Interrupts management
  12:Drivers/STM32F3xx_HAL_Driver/Src/stm32f3xx_hal_can.c ****   *           + Callbacks functions
  13:Drivers/STM32F3xx_HAL_Driver/Src/stm32f3xx_hal_can.c ****   *           + Peripheral State and Error functions
  14:Drivers/STM32F3xx_HAL_Driver/Src/stm32f3xx_hal_can.c ****   *
  15:Drivers/STM32F3xx_HAL_Driver/Src/stm32f3xx_hal_can.c ****   ******************************************************************************
  16:Drivers/STM32F3xx_HAL_Driver/Src/stm32f3xx_hal_can.c ****   * @attention
  17:Drivers/STM32F3xx_HAL_Driver/Src/stm32f3xx_hal_can.c ****   *
  18:Drivers/STM32F3xx_HAL_Driver/Src/stm32f3xx_hal_can.c ****   * Copyright (c) 2016 STMicroelectronics.
  19:Drivers/STM32F3xx_HAL_Driver/Src/stm32f3xx_hal_can.c ****   * All rights reserved.
  20:Drivers/STM32F3xx_HAL_Driver/Src/stm32f3xx_hal_can.c ****   *
  21:Drivers/STM32F3xx_HAL_Driver/Src/stm32f3xx_hal_can.c ****   * This software is licensed under terms that can be found in the LICENSE file
  22:Drivers/STM32F3xx_HAL_Driver/Src/stm32f3xx_hal_can.c ****   * in the root directory of this software component.
  23:Drivers/STM32F3xx_HAL_Driver/Src/stm32f3xx_hal_can.c ****   * If no LICENSE file comes with this software, it is provided AS-IS.
  24:Drivers/STM32F3xx_HAL_Driver/Src/stm32f3xx_hal_can.c ****   *
  25:Drivers/STM32F3xx_HAL_Driver/Src/stm32f3xx_hal_can.c ****   ******************************************************************************
  26:Drivers/STM32F3xx_HAL_Driver/Src/stm32f3xx_hal_can.c ****   @verbatim
  27:Drivers/STM32F3xx_HAL_Driver/Src/stm32f3xx_hal_can.c ****   ==============================================================================
  28:Drivers/STM32F3xx_HAL_Driver/Src/stm32f3xx_hal_can.c ****                         ##### How to use this driver #####
  29:Drivers/STM32F3xx_HAL_Driver/Src/stm32f3xx_hal_can.c ****   ==============================================================================
ARM GAS  C:\msys64\tmp\cc8m32jh.s 			page 2


  30:Drivers/STM32F3xx_HAL_Driver/Src/stm32f3xx_hal_can.c ****     [..]
  31:Drivers/STM32F3xx_HAL_Driver/Src/stm32f3xx_hal_can.c ****       (#) Initialize the CAN low level resources by implementing the
  32:Drivers/STM32F3xx_HAL_Driver/Src/stm32f3xx_hal_can.c ****           HAL_CAN_MspInit():
  33:Drivers/STM32F3xx_HAL_Driver/Src/stm32f3xx_hal_can.c ****          (++) Enable the CAN interface clock using __HAL_RCC_CANx_CLK_ENABLE()
  34:Drivers/STM32F3xx_HAL_Driver/Src/stm32f3xx_hal_can.c ****          (++) Configure CAN pins
  35:Drivers/STM32F3xx_HAL_Driver/Src/stm32f3xx_hal_can.c ****              (+++) Enable the clock for the CAN GPIOs
  36:Drivers/STM32F3xx_HAL_Driver/Src/stm32f3xx_hal_can.c ****              (+++) Configure CAN pins as alternate function
  37:Drivers/STM32F3xx_HAL_Driver/Src/stm32f3xx_hal_can.c ****          (++) In case of using interrupts (e.g. HAL_CAN_ActivateNotification())
  38:Drivers/STM32F3xx_HAL_Driver/Src/stm32f3xx_hal_can.c ****              (+++) Configure the CAN interrupt priority using
  39:Drivers/STM32F3xx_HAL_Driver/Src/stm32f3xx_hal_can.c ****                    HAL_NVIC_SetPriority()
  40:Drivers/STM32F3xx_HAL_Driver/Src/stm32f3xx_hal_can.c ****              (+++) Enable the CAN IRQ handler using HAL_NVIC_EnableIRQ()
  41:Drivers/STM32F3xx_HAL_Driver/Src/stm32f3xx_hal_can.c ****              (+++) In CAN IRQ handler, call HAL_CAN_IRQHandler()
  42:Drivers/STM32F3xx_HAL_Driver/Src/stm32f3xx_hal_can.c **** 
  43:Drivers/STM32F3xx_HAL_Driver/Src/stm32f3xx_hal_can.c ****       (#) Initialize the CAN peripheral using HAL_CAN_Init() function. This
  44:Drivers/STM32F3xx_HAL_Driver/Src/stm32f3xx_hal_can.c ****           function resorts to HAL_CAN_MspInit() for low-level initialization.
  45:Drivers/STM32F3xx_HAL_Driver/Src/stm32f3xx_hal_can.c **** 
  46:Drivers/STM32F3xx_HAL_Driver/Src/stm32f3xx_hal_can.c ****       (#) Configure the reception filters using the following configuration
  47:Drivers/STM32F3xx_HAL_Driver/Src/stm32f3xx_hal_can.c ****           functions:
  48:Drivers/STM32F3xx_HAL_Driver/Src/stm32f3xx_hal_can.c ****             (++) HAL_CAN_ConfigFilter()
  49:Drivers/STM32F3xx_HAL_Driver/Src/stm32f3xx_hal_can.c **** 
  50:Drivers/STM32F3xx_HAL_Driver/Src/stm32f3xx_hal_can.c ****       (#) Start the CAN module using HAL_CAN_Start() function. At this level
  51:Drivers/STM32F3xx_HAL_Driver/Src/stm32f3xx_hal_can.c ****           the node is active on the bus: it receive messages, and can send
  52:Drivers/STM32F3xx_HAL_Driver/Src/stm32f3xx_hal_can.c ****           messages.
  53:Drivers/STM32F3xx_HAL_Driver/Src/stm32f3xx_hal_can.c **** 
  54:Drivers/STM32F3xx_HAL_Driver/Src/stm32f3xx_hal_can.c ****       (#) To manage messages transmission, the following Tx control functions
  55:Drivers/STM32F3xx_HAL_Driver/Src/stm32f3xx_hal_can.c ****           can be used:
  56:Drivers/STM32F3xx_HAL_Driver/Src/stm32f3xx_hal_can.c ****             (++) HAL_CAN_AddTxMessage() to request transmission of a new
  57:Drivers/STM32F3xx_HAL_Driver/Src/stm32f3xx_hal_can.c ****                  message.
  58:Drivers/STM32F3xx_HAL_Driver/Src/stm32f3xx_hal_can.c ****             (++) HAL_CAN_AbortTxRequest() to abort transmission of a pending
  59:Drivers/STM32F3xx_HAL_Driver/Src/stm32f3xx_hal_can.c ****                  message.
  60:Drivers/STM32F3xx_HAL_Driver/Src/stm32f3xx_hal_can.c ****             (++) HAL_CAN_GetTxMailboxesFreeLevel() to get the number of free Tx
  61:Drivers/STM32F3xx_HAL_Driver/Src/stm32f3xx_hal_can.c ****                  mailboxes.
  62:Drivers/STM32F3xx_HAL_Driver/Src/stm32f3xx_hal_can.c ****             (++) HAL_CAN_IsTxMessagePending() to check if a message is pending
  63:Drivers/STM32F3xx_HAL_Driver/Src/stm32f3xx_hal_can.c ****                  in a Tx mailbox.
  64:Drivers/STM32F3xx_HAL_Driver/Src/stm32f3xx_hal_can.c ****             (++) HAL_CAN_GetTxTimestamp() to get the timestamp of Tx message
  65:Drivers/STM32F3xx_HAL_Driver/Src/stm32f3xx_hal_can.c ****                  sent, if time triggered communication mode is enabled.
  66:Drivers/STM32F3xx_HAL_Driver/Src/stm32f3xx_hal_can.c **** 
  67:Drivers/STM32F3xx_HAL_Driver/Src/stm32f3xx_hal_can.c ****       (#) When a message is received into the CAN Rx FIFOs, it can be retrieved
  68:Drivers/STM32F3xx_HAL_Driver/Src/stm32f3xx_hal_can.c ****           using the HAL_CAN_GetRxMessage() function. The function
  69:Drivers/STM32F3xx_HAL_Driver/Src/stm32f3xx_hal_can.c ****           HAL_CAN_GetRxFifoFillLevel() allows to know how many Rx message are
  70:Drivers/STM32F3xx_HAL_Driver/Src/stm32f3xx_hal_can.c ****           stored in the Rx Fifo.
  71:Drivers/STM32F3xx_HAL_Driver/Src/stm32f3xx_hal_can.c **** 
  72:Drivers/STM32F3xx_HAL_Driver/Src/stm32f3xx_hal_can.c ****       (#) Calling the HAL_CAN_Stop() function stops the CAN module.
  73:Drivers/STM32F3xx_HAL_Driver/Src/stm32f3xx_hal_can.c **** 
  74:Drivers/STM32F3xx_HAL_Driver/Src/stm32f3xx_hal_can.c ****       (#) The deinitialization is achieved with HAL_CAN_DeInit() function.
  75:Drivers/STM32F3xx_HAL_Driver/Src/stm32f3xx_hal_can.c **** 
  76:Drivers/STM32F3xx_HAL_Driver/Src/stm32f3xx_hal_can.c **** 
  77:Drivers/STM32F3xx_HAL_Driver/Src/stm32f3xx_hal_can.c ****       *** Polling mode operation ***
  78:Drivers/STM32F3xx_HAL_Driver/Src/stm32f3xx_hal_can.c ****       ==============================
  79:Drivers/STM32F3xx_HAL_Driver/Src/stm32f3xx_hal_can.c ****     [..]
  80:Drivers/STM32F3xx_HAL_Driver/Src/stm32f3xx_hal_can.c ****       (#) Reception:
  81:Drivers/STM32F3xx_HAL_Driver/Src/stm32f3xx_hal_can.c ****             (++) Monitor reception of message using HAL_CAN_GetRxFifoFillLevel()
  82:Drivers/STM32F3xx_HAL_Driver/Src/stm32f3xx_hal_can.c ****                  until at least one message is received.
  83:Drivers/STM32F3xx_HAL_Driver/Src/stm32f3xx_hal_can.c ****             (++) Then get the message using HAL_CAN_GetRxMessage().
  84:Drivers/STM32F3xx_HAL_Driver/Src/stm32f3xx_hal_can.c **** 
  85:Drivers/STM32F3xx_HAL_Driver/Src/stm32f3xx_hal_can.c ****       (#) Transmission:
  86:Drivers/STM32F3xx_HAL_Driver/Src/stm32f3xx_hal_can.c ****             (++) Monitor the Tx mailboxes availability until at least one Tx
ARM GAS  C:\msys64\tmp\cc8m32jh.s 			page 3


  87:Drivers/STM32F3xx_HAL_Driver/Src/stm32f3xx_hal_can.c ****                  mailbox is free, using HAL_CAN_GetTxMailboxesFreeLevel().
  88:Drivers/STM32F3xx_HAL_Driver/Src/stm32f3xx_hal_can.c ****             (++) Then request transmission of a message using
  89:Drivers/STM32F3xx_HAL_Driver/Src/stm32f3xx_hal_can.c ****                  HAL_CAN_AddTxMessage().
  90:Drivers/STM32F3xx_HAL_Driver/Src/stm32f3xx_hal_can.c **** 
  91:Drivers/STM32F3xx_HAL_Driver/Src/stm32f3xx_hal_can.c **** 
  92:Drivers/STM32F3xx_HAL_Driver/Src/stm32f3xx_hal_can.c ****       *** Interrupt mode operation ***
  93:Drivers/STM32F3xx_HAL_Driver/Src/stm32f3xx_hal_can.c ****       ================================
  94:Drivers/STM32F3xx_HAL_Driver/Src/stm32f3xx_hal_can.c ****     [..]
  95:Drivers/STM32F3xx_HAL_Driver/Src/stm32f3xx_hal_can.c ****       (#) Notifications are activated using HAL_CAN_ActivateNotification()
  96:Drivers/STM32F3xx_HAL_Driver/Src/stm32f3xx_hal_can.c ****           function. Then, the process can be controlled through the
  97:Drivers/STM32F3xx_HAL_Driver/Src/stm32f3xx_hal_can.c ****           available user callbacks: HAL_CAN_xxxCallback(), using same APIs
  98:Drivers/STM32F3xx_HAL_Driver/Src/stm32f3xx_hal_can.c ****           HAL_CAN_GetRxMessage() and HAL_CAN_AddTxMessage().
  99:Drivers/STM32F3xx_HAL_Driver/Src/stm32f3xx_hal_can.c **** 
 100:Drivers/STM32F3xx_HAL_Driver/Src/stm32f3xx_hal_can.c ****       (#) Notifications can be deactivated using
 101:Drivers/STM32F3xx_HAL_Driver/Src/stm32f3xx_hal_can.c ****           HAL_CAN_DeactivateNotification() function.
 102:Drivers/STM32F3xx_HAL_Driver/Src/stm32f3xx_hal_can.c **** 
 103:Drivers/STM32F3xx_HAL_Driver/Src/stm32f3xx_hal_can.c ****       (#) Special care should be taken for CAN_IT_RX_FIFO0_MSG_PENDING and
 104:Drivers/STM32F3xx_HAL_Driver/Src/stm32f3xx_hal_can.c ****           CAN_IT_RX_FIFO1_MSG_PENDING notifications. These notifications trig
 105:Drivers/STM32F3xx_HAL_Driver/Src/stm32f3xx_hal_can.c ****           the callbacks HAL_CAN_RxFIFO0MsgPendingCallback() and
 106:Drivers/STM32F3xx_HAL_Driver/Src/stm32f3xx_hal_can.c ****           HAL_CAN_RxFIFO1MsgPendingCallback(). User has two possible options
 107:Drivers/STM32F3xx_HAL_Driver/Src/stm32f3xx_hal_can.c ****           here.
 108:Drivers/STM32F3xx_HAL_Driver/Src/stm32f3xx_hal_can.c ****             (++) Directly get the Rx message in the callback, using
 109:Drivers/STM32F3xx_HAL_Driver/Src/stm32f3xx_hal_can.c ****                  HAL_CAN_GetRxMessage().
 110:Drivers/STM32F3xx_HAL_Driver/Src/stm32f3xx_hal_can.c ****             (++) Or deactivate the notification in the callback without
 111:Drivers/STM32F3xx_HAL_Driver/Src/stm32f3xx_hal_can.c ****                  getting the Rx message. The Rx message can then be got later
 112:Drivers/STM32F3xx_HAL_Driver/Src/stm32f3xx_hal_can.c ****                  using HAL_CAN_GetRxMessage(). Once the Rx message have been
 113:Drivers/STM32F3xx_HAL_Driver/Src/stm32f3xx_hal_can.c ****                  read, the notification can be activated again.
 114:Drivers/STM32F3xx_HAL_Driver/Src/stm32f3xx_hal_can.c **** 
 115:Drivers/STM32F3xx_HAL_Driver/Src/stm32f3xx_hal_can.c **** 
 116:Drivers/STM32F3xx_HAL_Driver/Src/stm32f3xx_hal_can.c ****       *** Sleep mode ***
 117:Drivers/STM32F3xx_HAL_Driver/Src/stm32f3xx_hal_can.c ****       ==================
 118:Drivers/STM32F3xx_HAL_Driver/Src/stm32f3xx_hal_can.c ****     [..]
 119:Drivers/STM32F3xx_HAL_Driver/Src/stm32f3xx_hal_can.c ****       (#) The CAN peripheral can be put in sleep mode (low power), using
 120:Drivers/STM32F3xx_HAL_Driver/Src/stm32f3xx_hal_can.c ****           HAL_CAN_RequestSleep(). The sleep mode will be entered as soon as the
 121:Drivers/STM32F3xx_HAL_Driver/Src/stm32f3xx_hal_can.c ****           current CAN activity (transmission or reception of a CAN frame) will
 122:Drivers/STM32F3xx_HAL_Driver/Src/stm32f3xx_hal_can.c ****           be completed.
 123:Drivers/STM32F3xx_HAL_Driver/Src/stm32f3xx_hal_can.c **** 
 124:Drivers/STM32F3xx_HAL_Driver/Src/stm32f3xx_hal_can.c ****       (#) A notification can be activated to be informed when the sleep mode
 125:Drivers/STM32F3xx_HAL_Driver/Src/stm32f3xx_hal_can.c ****           will be entered.
 126:Drivers/STM32F3xx_HAL_Driver/Src/stm32f3xx_hal_can.c **** 
 127:Drivers/STM32F3xx_HAL_Driver/Src/stm32f3xx_hal_can.c ****       (#) It can be checked if the sleep mode is entered using
 128:Drivers/STM32F3xx_HAL_Driver/Src/stm32f3xx_hal_can.c ****           HAL_CAN_IsSleepActive().
 129:Drivers/STM32F3xx_HAL_Driver/Src/stm32f3xx_hal_can.c ****           Note that the CAN state (accessible from the API HAL_CAN_GetState())
 130:Drivers/STM32F3xx_HAL_Driver/Src/stm32f3xx_hal_can.c ****           is HAL_CAN_STATE_SLEEP_PENDING as soon as the sleep mode request is
 131:Drivers/STM32F3xx_HAL_Driver/Src/stm32f3xx_hal_can.c ****           submitted (the sleep mode is not yet entered), and become
 132:Drivers/STM32F3xx_HAL_Driver/Src/stm32f3xx_hal_can.c ****           HAL_CAN_STATE_SLEEP_ACTIVE when the sleep mode is effective.
 133:Drivers/STM32F3xx_HAL_Driver/Src/stm32f3xx_hal_can.c **** 
 134:Drivers/STM32F3xx_HAL_Driver/Src/stm32f3xx_hal_can.c ****       (#) The wake-up from sleep mode can be triggered by two ways:
 135:Drivers/STM32F3xx_HAL_Driver/Src/stm32f3xx_hal_can.c ****             (++) Using HAL_CAN_WakeUp(). When returning from this function,
 136:Drivers/STM32F3xx_HAL_Driver/Src/stm32f3xx_hal_can.c ****                  the sleep mode is exited (if return status is HAL_OK).
 137:Drivers/STM32F3xx_HAL_Driver/Src/stm32f3xx_hal_can.c ****             (++) When a start of Rx CAN frame is detected by the CAN peripheral,
 138:Drivers/STM32F3xx_HAL_Driver/Src/stm32f3xx_hal_can.c ****                  if automatic wake up mode is enabled.
 139:Drivers/STM32F3xx_HAL_Driver/Src/stm32f3xx_hal_can.c **** 
 140:Drivers/STM32F3xx_HAL_Driver/Src/stm32f3xx_hal_can.c ****   *** Callback registration ***
 141:Drivers/STM32F3xx_HAL_Driver/Src/stm32f3xx_hal_can.c ****   =============================================
 142:Drivers/STM32F3xx_HAL_Driver/Src/stm32f3xx_hal_can.c **** 
 143:Drivers/STM32F3xx_HAL_Driver/Src/stm32f3xx_hal_can.c ****   The compilation define  USE_HAL_CAN_REGISTER_CALLBACKS when set to 1
ARM GAS  C:\msys64\tmp\cc8m32jh.s 			page 4


 144:Drivers/STM32F3xx_HAL_Driver/Src/stm32f3xx_hal_can.c ****   allows the user to configure dynamically the driver callbacks.
 145:Drivers/STM32F3xx_HAL_Driver/Src/stm32f3xx_hal_can.c ****   Use Function HAL_CAN_RegisterCallback() to register an interrupt callback.
 146:Drivers/STM32F3xx_HAL_Driver/Src/stm32f3xx_hal_can.c **** 
 147:Drivers/STM32F3xx_HAL_Driver/Src/stm32f3xx_hal_can.c ****   Function HAL_CAN_RegisterCallback() allows to register following callbacks:
 148:Drivers/STM32F3xx_HAL_Driver/Src/stm32f3xx_hal_can.c ****     (+) TxMailbox0CompleteCallback   : Tx Mailbox 0 Complete Callback.
 149:Drivers/STM32F3xx_HAL_Driver/Src/stm32f3xx_hal_can.c ****     (+) TxMailbox1CompleteCallback   : Tx Mailbox 1 Complete Callback.
 150:Drivers/STM32F3xx_HAL_Driver/Src/stm32f3xx_hal_can.c ****     (+) TxMailbox2CompleteCallback   : Tx Mailbox 2 Complete Callback.
 151:Drivers/STM32F3xx_HAL_Driver/Src/stm32f3xx_hal_can.c ****     (+) TxMailbox0AbortCallback      : Tx Mailbox 0 Abort Callback.
 152:Drivers/STM32F3xx_HAL_Driver/Src/stm32f3xx_hal_can.c ****     (+) TxMailbox1AbortCallback      : Tx Mailbox 1 Abort Callback.
 153:Drivers/STM32F3xx_HAL_Driver/Src/stm32f3xx_hal_can.c ****     (+) TxMailbox2AbortCallback      : Tx Mailbox 2 Abort Callback.
 154:Drivers/STM32F3xx_HAL_Driver/Src/stm32f3xx_hal_can.c ****     (+) RxFifo0MsgPendingCallback    : Rx Fifo 0 Message Pending Callback.
 155:Drivers/STM32F3xx_HAL_Driver/Src/stm32f3xx_hal_can.c ****     (+) RxFifo0FullCallback          : Rx Fifo 0 Full Callback.
 156:Drivers/STM32F3xx_HAL_Driver/Src/stm32f3xx_hal_can.c ****     (+) RxFifo1MsgPendingCallback    : Rx Fifo 1 Message Pending Callback.
 157:Drivers/STM32F3xx_HAL_Driver/Src/stm32f3xx_hal_can.c ****     (+) RxFifo1FullCallback          : Rx Fifo 1 Full Callback.
 158:Drivers/STM32F3xx_HAL_Driver/Src/stm32f3xx_hal_can.c ****     (+) SleepCallback                : Sleep Callback.
 159:Drivers/STM32F3xx_HAL_Driver/Src/stm32f3xx_hal_can.c ****     (+) WakeUpFromRxMsgCallback      : Wake Up From Rx Message Callback.
 160:Drivers/STM32F3xx_HAL_Driver/Src/stm32f3xx_hal_can.c ****     (+) ErrorCallback                : Error Callback.
 161:Drivers/STM32F3xx_HAL_Driver/Src/stm32f3xx_hal_can.c ****     (+) MspInitCallback              : CAN MspInit.
 162:Drivers/STM32F3xx_HAL_Driver/Src/stm32f3xx_hal_can.c ****     (+) MspDeInitCallback            : CAN MspDeInit.
 163:Drivers/STM32F3xx_HAL_Driver/Src/stm32f3xx_hal_can.c ****   This function takes as parameters the HAL peripheral handle, the Callback ID
 164:Drivers/STM32F3xx_HAL_Driver/Src/stm32f3xx_hal_can.c ****   and a pointer to the user callback function.
 165:Drivers/STM32F3xx_HAL_Driver/Src/stm32f3xx_hal_can.c **** 
 166:Drivers/STM32F3xx_HAL_Driver/Src/stm32f3xx_hal_can.c ****   Use function HAL_CAN_UnRegisterCallback() to reset a callback to the default
 167:Drivers/STM32F3xx_HAL_Driver/Src/stm32f3xx_hal_can.c ****   weak function.
 168:Drivers/STM32F3xx_HAL_Driver/Src/stm32f3xx_hal_can.c ****   HAL_CAN_UnRegisterCallback takes as parameters the HAL peripheral handle,
 169:Drivers/STM32F3xx_HAL_Driver/Src/stm32f3xx_hal_can.c ****   and the Callback ID.
 170:Drivers/STM32F3xx_HAL_Driver/Src/stm32f3xx_hal_can.c ****   This function allows to reset following callbacks:
 171:Drivers/STM32F3xx_HAL_Driver/Src/stm32f3xx_hal_can.c ****     (+) TxMailbox0CompleteCallback   : Tx Mailbox 0 Complete Callback.
 172:Drivers/STM32F3xx_HAL_Driver/Src/stm32f3xx_hal_can.c ****     (+) TxMailbox1CompleteCallback   : Tx Mailbox 1 Complete Callback.
 173:Drivers/STM32F3xx_HAL_Driver/Src/stm32f3xx_hal_can.c ****     (+) TxMailbox2CompleteCallback   : Tx Mailbox 2 Complete Callback.
 174:Drivers/STM32F3xx_HAL_Driver/Src/stm32f3xx_hal_can.c ****     (+) TxMailbox0AbortCallback      : Tx Mailbox 0 Abort Callback.
 175:Drivers/STM32F3xx_HAL_Driver/Src/stm32f3xx_hal_can.c ****     (+) TxMailbox1AbortCallback      : Tx Mailbox 1 Abort Callback.
 176:Drivers/STM32F3xx_HAL_Driver/Src/stm32f3xx_hal_can.c ****     (+) TxMailbox2AbortCallback      : Tx Mailbox 2 Abort Callback.
 177:Drivers/STM32F3xx_HAL_Driver/Src/stm32f3xx_hal_can.c ****     (+) RxFifo0MsgPendingCallback    : Rx Fifo 0 Message Pending Callback.
 178:Drivers/STM32F3xx_HAL_Driver/Src/stm32f3xx_hal_can.c ****     (+) RxFifo0FullCallback          : Rx Fifo 0 Full Callback.
 179:Drivers/STM32F3xx_HAL_Driver/Src/stm32f3xx_hal_can.c ****     (+) RxFifo1MsgPendingCallback    : Rx Fifo 1 Message Pending Callback.
 180:Drivers/STM32F3xx_HAL_Driver/Src/stm32f3xx_hal_can.c ****     (+) RxFifo1FullCallback          : Rx Fifo 1 Full Callback.
 181:Drivers/STM32F3xx_HAL_Driver/Src/stm32f3xx_hal_can.c ****     (+) SleepCallback                : Sleep Callback.
 182:Drivers/STM32F3xx_HAL_Driver/Src/stm32f3xx_hal_can.c ****     (+) WakeUpFromRxMsgCallback      : Wake Up From Rx Message Callback.
 183:Drivers/STM32F3xx_HAL_Driver/Src/stm32f3xx_hal_can.c ****     (+) ErrorCallback                : Error Callback.
 184:Drivers/STM32F3xx_HAL_Driver/Src/stm32f3xx_hal_can.c ****     (+) MspInitCallback              : CAN MspInit.
 185:Drivers/STM32F3xx_HAL_Driver/Src/stm32f3xx_hal_can.c ****     (+) MspDeInitCallback            : CAN MspDeInit.
 186:Drivers/STM32F3xx_HAL_Driver/Src/stm32f3xx_hal_can.c **** 
 187:Drivers/STM32F3xx_HAL_Driver/Src/stm32f3xx_hal_can.c ****   By default, after the HAL_CAN_Init() and when the state is HAL_CAN_STATE_RESET,
 188:Drivers/STM32F3xx_HAL_Driver/Src/stm32f3xx_hal_can.c ****   all callbacks are set to the corresponding weak functions:
 189:Drivers/STM32F3xx_HAL_Driver/Src/stm32f3xx_hal_can.c ****   example HAL_CAN_ErrorCallback().
 190:Drivers/STM32F3xx_HAL_Driver/Src/stm32f3xx_hal_can.c ****   Exception done for MspInit and MspDeInit functions that are
 191:Drivers/STM32F3xx_HAL_Driver/Src/stm32f3xx_hal_can.c ****   reset to the legacy weak function in the HAL_CAN_Init()/ HAL_CAN_DeInit() only when
 192:Drivers/STM32F3xx_HAL_Driver/Src/stm32f3xx_hal_can.c ****   these callbacks are null (not registered beforehand).
 193:Drivers/STM32F3xx_HAL_Driver/Src/stm32f3xx_hal_can.c ****   if not, MspInit or MspDeInit are not null, the HAL_CAN_Init()/ HAL_CAN_DeInit()
 194:Drivers/STM32F3xx_HAL_Driver/Src/stm32f3xx_hal_can.c ****   keep and use the user MspInit/MspDeInit callbacks (registered beforehand)
 195:Drivers/STM32F3xx_HAL_Driver/Src/stm32f3xx_hal_can.c **** 
 196:Drivers/STM32F3xx_HAL_Driver/Src/stm32f3xx_hal_can.c ****   Callbacks can be registered/unregistered in HAL_CAN_STATE_READY state only.
 197:Drivers/STM32F3xx_HAL_Driver/Src/stm32f3xx_hal_can.c ****   Exception done MspInit/MspDeInit that can be registered/unregistered
 198:Drivers/STM32F3xx_HAL_Driver/Src/stm32f3xx_hal_can.c ****   in HAL_CAN_STATE_READY or HAL_CAN_STATE_RESET state,
 199:Drivers/STM32F3xx_HAL_Driver/Src/stm32f3xx_hal_can.c ****   thus registered (user) MspInit/DeInit callbacks can be used during the Init/DeInit.
 200:Drivers/STM32F3xx_HAL_Driver/Src/stm32f3xx_hal_can.c ****   In that case first register the MspInit/MspDeInit user callbacks
ARM GAS  C:\msys64\tmp\cc8m32jh.s 			page 5


 201:Drivers/STM32F3xx_HAL_Driver/Src/stm32f3xx_hal_can.c ****   using HAL_CAN_RegisterCallback() before calling HAL_CAN_DeInit()
 202:Drivers/STM32F3xx_HAL_Driver/Src/stm32f3xx_hal_can.c ****   or HAL_CAN_Init() function.
 203:Drivers/STM32F3xx_HAL_Driver/Src/stm32f3xx_hal_can.c **** 
 204:Drivers/STM32F3xx_HAL_Driver/Src/stm32f3xx_hal_can.c ****   When The compilation define USE_HAL_CAN_REGISTER_CALLBACKS is set to 0 or
 205:Drivers/STM32F3xx_HAL_Driver/Src/stm32f3xx_hal_can.c ****   not defined, the callback registration feature is not available and all callbacks
 206:Drivers/STM32F3xx_HAL_Driver/Src/stm32f3xx_hal_can.c ****   are set to the corresponding weak functions.
 207:Drivers/STM32F3xx_HAL_Driver/Src/stm32f3xx_hal_can.c **** 
 208:Drivers/STM32F3xx_HAL_Driver/Src/stm32f3xx_hal_can.c ****   @endverbatim
 209:Drivers/STM32F3xx_HAL_Driver/Src/stm32f3xx_hal_can.c ****   ******************************************************************************
 210:Drivers/STM32F3xx_HAL_Driver/Src/stm32f3xx_hal_can.c ****   */
 211:Drivers/STM32F3xx_HAL_Driver/Src/stm32f3xx_hal_can.c **** 
 212:Drivers/STM32F3xx_HAL_Driver/Src/stm32f3xx_hal_can.c **** /* Includes ------------------------------------------------------------------*/
 213:Drivers/STM32F3xx_HAL_Driver/Src/stm32f3xx_hal_can.c **** #include "stm32f3xx_hal.h"
 214:Drivers/STM32F3xx_HAL_Driver/Src/stm32f3xx_hal_can.c **** 
 215:Drivers/STM32F3xx_HAL_Driver/Src/stm32f3xx_hal_can.c **** /** @addtogroup STM32F3xx_HAL_Driver
 216:Drivers/STM32F3xx_HAL_Driver/Src/stm32f3xx_hal_can.c ****   * @{
 217:Drivers/STM32F3xx_HAL_Driver/Src/stm32f3xx_hal_can.c ****   */
 218:Drivers/STM32F3xx_HAL_Driver/Src/stm32f3xx_hal_can.c **** 
 219:Drivers/STM32F3xx_HAL_Driver/Src/stm32f3xx_hal_can.c **** #if defined(CAN)
 220:Drivers/STM32F3xx_HAL_Driver/Src/stm32f3xx_hal_can.c **** 
 221:Drivers/STM32F3xx_HAL_Driver/Src/stm32f3xx_hal_can.c **** /** @defgroup CAN CAN
 222:Drivers/STM32F3xx_HAL_Driver/Src/stm32f3xx_hal_can.c ****   * @brief CAN driver modules
 223:Drivers/STM32F3xx_HAL_Driver/Src/stm32f3xx_hal_can.c ****   * @{
 224:Drivers/STM32F3xx_HAL_Driver/Src/stm32f3xx_hal_can.c ****   */
 225:Drivers/STM32F3xx_HAL_Driver/Src/stm32f3xx_hal_can.c **** 
 226:Drivers/STM32F3xx_HAL_Driver/Src/stm32f3xx_hal_can.c **** #ifdef HAL_CAN_MODULE_ENABLED
 227:Drivers/STM32F3xx_HAL_Driver/Src/stm32f3xx_hal_can.c **** 
 228:Drivers/STM32F3xx_HAL_Driver/Src/stm32f3xx_hal_can.c **** #ifdef HAL_CAN_LEGACY_MODULE_ENABLED
 229:Drivers/STM32F3xx_HAL_Driver/Src/stm32f3xx_hal_can.c **** #error "The CAN driver cannot be used with its legacy, Please enable only one CAN module at once"
 230:Drivers/STM32F3xx_HAL_Driver/Src/stm32f3xx_hal_can.c **** #endif /* HAL_CAN_LEGACY_MODULE_ENABLED */
 231:Drivers/STM32F3xx_HAL_Driver/Src/stm32f3xx_hal_can.c **** 
 232:Drivers/STM32F3xx_HAL_Driver/Src/stm32f3xx_hal_can.c **** /* Private typedef -----------------------------------------------------------*/
 233:Drivers/STM32F3xx_HAL_Driver/Src/stm32f3xx_hal_can.c **** /* Private define ------------------------------------------------------------*/
 234:Drivers/STM32F3xx_HAL_Driver/Src/stm32f3xx_hal_can.c **** /** @defgroup CAN_Private_Constants CAN Private Constants
 235:Drivers/STM32F3xx_HAL_Driver/Src/stm32f3xx_hal_can.c ****   * @{
 236:Drivers/STM32F3xx_HAL_Driver/Src/stm32f3xx_hal_can.c ****   */
 237:Drivers/STM32F3xx_HAL_Driver/Src/stm32f3xx_hal_can.c **** #define CAN_TIMEOUT_VALUE 10U
 238:Drivers/STM32F3xx_HAL_Driver/Src/stm32f3xx_hal_can.c **** #define CAN_WAKEUP_TIMEOUT_COUNTER 1000000U
 239:Drivers/STM32F3xx_HAL_Driver/Src/stm32f3xx_hal_can.c **** /**
 240:Drivers/STM32F3xx_HAL_Driver/Src/stm32f3xx_hal_can.c ****   * @}
 241:Drivers/STM32F3xx_HAL_Driver/Src/stm32f3xx_hal_can.c ****   */
 242:Drivers/STM32F3xx_HAL_Driver/Src/stm32f3xx_hal_can.c **** /* Private macro -------------------------------------------------------------*/
 243:Drivers/STM32F3xx_HAL_Driver/Src/stm32f3xx_hal_can.c **** /* Private variables ---------------------------------------------------------*/
 244:Drivers/STM32F3xx_HAL_Driver/Src/stm32f3xx_hal_can.c **** /* Private function prototypes -----------------------------------------------*/
 245:Drivers/STM32F3xx_HAL_Driver/Src/stm32f3xx_hal_can.c **** /* Exported functions --------------------------------------------------------*/
 246:Drivers/STM32F3xx_HAL_Driver/Src/stm32f3xx_hal_can.c **** 
 247:Drivers/STM32F3xx_HAL_Driver/Src/stm32f3xx_hal_can.c **** /** @defgroup CAN_Exported_Functions CAN Exported Functions
 248:Drivers/STM32F3xx_HAL_Driver/Src/stm32f3xx_hal_can.c ****   * @{
 249:Drivers/STM32F3xx_HAL_Driver/Src/stm32f3xx_hal_can.c ****   */
 250:Drivers/STM32F3xx_HAL_Driver/Src/stm32f3xx_hal_can.c **** 
 251:Drivers/STM32F3xx_HAL_Driver/Src/stm32f3xx_hal_can.c **** /** @defgroup CAN_Exported_Functions_Group1 Initialization and de-initialization functions
 252:Drivers/STM32F3xx_HAL_Driver/Src/stm32f3xx_hal_can.c ****   * @brief    Initialization and Configuration functions
 253:Drivers/STM32F3xx_HAL_Driver/Src/stm32f3xx_hal_can.c ****   *
 254:Drivers/STM32F3xx_HAL_Driver/Src/stm32f3xx_hal_can.c **** @verbatim
 255:Drivers/STM32F3xx_HAL_Driver/Src/stm32f3xx_hal_can.c ****   ==============================================================================
 256:Drivers/STM32F3xx_HAL_Driver/Src/stm32f3xx_hal_can.c ****               ##### Initialization and de-initialization functions #####
 257:Drivers/STM32F3xx_HAL_Driver/Src/stm32f3xx_hal_can.c ****   ==============================================================================
ARM GAS  C:\msys64\tmp\cc8m32jh.s 			page 6


 258:Drivers/STM32F3xx_HAL_Driver/Src/stm32f3xx_hal_can.c ****     [..]  This section provides functions allowing to:
 259:Drivers/STM32F3xx_HAL_Driver/Src/stm32f3xx_hal_can.c ****       (+) HAL_CAN_Init                       : Initialize and configure the CAN.
 260:Drivers/STM32F3xx_HAL_Driver/Src/stm32f3xx_hal_can.c ****       (+) HAL_CAN_DeInit                     : De-initialize the CAN.
 261:Drivers/STM32F3xx_HAL_Driver/Src/stm32f3xx_hal_can.c ****       (+) HAL_CAN_MspInit                    : Initialize the CAN MSP.
 262:Drivers/STM32F3xx_HAL_Driver/Src/stm32f3xx_hal_can.c ****       (+) HAL_CAN_MspDeInit                  : DeInitialize the CAN MSP.
 263:Drivers/STM32F3xx_HAL_Driver/Src/stm32f3xx_hal_can.c **** 
 264:Drivers/STM32F3xx_HAL_Driver/Src/stm32f3xx_hal_can.c **** @endverbatim
 265:Drivers/STM32F3xx_HAL_Driver/Src/stm32f3xx_hal_can.c ****   * @{
 266:Drivers/STM32F3xx_HAL_Driver/Src/stm32f3xx_hal_can.c ****   */
 267:Drivers/STM32F3xx_HAL_Driver/Src/stm32f3xx_hal_can.c **** 
 268:Drivers/STM32F3xx_HAL_Driver/Src/stm32f3xx_hal_can.c **** /**
 269:Drivers/STM32F3xx_HAL_Driver/Src/stm32f3xx_hal_can.c ****   * @brief  Initializes the CAN peripheral according to the specified
 270:Drivers/STM32F3xx_HAL_Driver/Src/stm32f3xx_hal_can.c ****   *         parameters in the CAN_InitStruct.
 271:Drivers/STM32F3xx_HAL_Driver/Src/stm32f3xx_hal_can.c ****   * @param  hcan pointer to a CAN_HandleTypeDef structure that contains
 272:Drivers/STM32F3xx_HAL_Driver/Src/stm32f3xx_hal_can.c ****   *         the configuration information for the specified CAN.
 273:Drivers/STM32F3xx_HAL_Driver/Src/stm32f3xx_hal_can.c ****   * @retval HAL status
 274:Drivers/STM32F3xx_HAL_Driver/Src/stm32f3xx_hal_can.c ****   */
 275:Drivers/STM32F3xx_HAL_Driver/Src/stm32f3xx_hal_can.c **** HAL_StatusTypeDef HAL_CAN_Init(CAN_HandleTypeDef *hcan)
 276:Drivers/STM32F3xx_HAL_Driver/Src/stm32f3xx_hal_can.c **** {
 277:Drivers/STM32F3xx_HAL_Driver/Src/stm32f3xx_hal_can.c ****   uint32_t tickstart;
 278:Drivers/STM32F3xx_HAL_Driver/Src/stm32f3xx_hal_can.c **** 
 279:Drivers/STM32F3xx_HAL_Driver/Src/stm32f3xx_hal_can.c ****   /* Check CAN handle */
 280:Drivers/STM32F3xx_HAL_Driver/Src/stm32f3xx_hal_can.c ****   if (hcan == NULL)
 281:Drivers/STM32F3xx_HAL_Driver/Src/stm32f3xx_hal_can.c ****   {
 282:Drivers/STM32F3xx_HAL_Driver/Src/stm32f3xx_hal_can.c ****     return HAL_ERROR;
 283:Drivers/STM32F3xx_HAL_Driver/Src/stm32f3xx_hal_can.c ****   }
 284:Drivers/STM32F3xx_HAL_Driver/Src/stm32f3xx_hal_can.c **** 
 285:Drivers/STM32F3xx_HAL_Driver/Src/stm32f3xx_hal_can.c ****   /* Check the parameters */
 286:Drivers/STM32F3xx_HAL_Driver/Src/stm32f3xx_hal_can.c ****   assert_param(IS_CAN_ALL_INSTANCE(hcan->Instance));
 287:Drivers/STM32F3xx_HAL_Driver/Src/stm32f3xx_hal_can.c ****   assert_param(IS_FUNCTIONAL_STATE(hcan->Init.TimeTriggeredMode));
 288:Drivers/STM32F3xx_HAL_Driver/Src/stm32f3xx_hal_can.c ****   assert_param(IS_FUNCTIONAL_STATE(hcan->Init.AutoBusOff));
 289:Drivers/STM32F3xx_HAL_Driver/Src/stm32f3xx_hal_can.c ****   assert_param(IS_FUNCTIONAL_STATE(hcan->Init.AutoWakeUp));
 290:Drivers/STM32F3xx_HAL_Driver/Src/stm32f3xx_hal_can.c ****   assert_param(IS_FUNCTIONAL_STATE(hcan->Init.AutoRetransmission));
 291:Drivers/STM32F3xx_HAL_Driver/Src/stm32f3xx_hal_can.c ****   assert_param(IS_FUNCTIONAL_STATE(hcan->Init.ReceiveFifoLocked));
 292:Drivers/STM32F3xx_HAL_Driver/Src/stm32f3xx_hal_can.c ****   assert_param(IS_FUNCTIONAL_STATE(hcan->Init.TransmitFifoPriority));
 293:Drivers/STM32F3xx_HAL_Driver/Src/stm32f3xx_hal_can.c ****   assert_param(IS_CAN_MODE(hcan->Init.Mode));
 294:Drivers/STM32F3xx_HAL_Driver/Src/stm32f3xx_hal_can.c ****   assert_param(IS_CAN_SJW(hcan->Init.SyncJumpWidth));
 295:Drivers/STM32F3xx_HAL_Driver/Src/stm32f3xx_hal_can.c ****   assert_param(IS_CAN_BS1(hcan->Init.TimeSeg1));
 296:Drivers/STM32F3xx_HAL_Driver/Src/stm32f3xx_hal_can.c ****   assert_param(IS_CAN_BS2(hcan->Init.TimeSeg2));
 297:Drivers/STM32F3xx_HAL_Driver/Src/stm32f3xx_hal_can.c ****   assert_param(IS_CAN_PRESCALER(hcan->Init.Prescaler));
 298:Drivers/STM32F3xx_HAL_Driver/Src/stm32f3xx_hal_can.c **** 
 299:Drivers/STM32F3xx_HAL_Driver/Src/stm32f3xx_hal_can.c **** #if USE_HAL_CAN_REGISTER_CALLBACKS == 1
 300:Drivers/STM32F3xx_HAL_Driver/Src/stm32f3xx_hal_can.c ****   if (hcan->State == HAL_CAN_STATE_RESET)
 301:Drivers/STM32F3xx_HAL_Driver/Src/stm32f3xx_hal_can.c ****   {
 302:Drivers/STM32F3xx_HAL_Driver/Src/stm32f3xx_hal_can.c ****     /* Reset callbacks to legacy functions */
 303:Drivers/STM32F3xx_HAL_Driver/Src/stm32f3xx_hal_can.c ****     hcan->RxFifo0MsgPendingCallback  =  HAL_CAN_RxFifo0MsgPendingCallback;  /* Legacy weak RxFifo0M
 304:Drivers/STM32F3xx_HAL_Driver/Src/stm32f3xx_hal_can.c ****     hcan->RxFifo0FullCallback        =  HAL_CAN_RxFifo0FullCallback;        /* Legacy weak RxFifo0F
 305:Drivers/STM32F3xx_HAL_Driver/Src/stm32f3xx_hal_can.c ****     hcan->RxFifo1MsgPendingCallback  =  HAL_CAN_RxFifo1MsgPendingCallback;  /* Legacy weak RxFifo1M
 306:Drivers/STM32F3xx_HAL_Driver/Src/stm32f3xx_hal_can.c ****     hcan->RxFifo1FullCallback        =  HAL_CAN_RxFifo1FullCallback;        /* Legacy weak RxFifo1F
 307:Drivers/STM32F3xx_HAL_Driver/Src/stm32f3xx_hal_can.c ****     hcan->TxMailbox0CompleteCallback =  HAL_CAN_TxMailbox0CompleteCallback; /* Legacy weak TxMailbo
 308:Drivers/STM32F3xx_HAL_Driver/Src/stm32f3xx_hal_can.c ****     hcan->TxMailbox1CompleteCallback =  HAL_CAN_TxMailbox1CompleteCallback; /* Legacy weak TxMailbo
 309:Drivers/STM32F3xx_HAL_Driver/Src/stm32f3xx_hal_can.c ****     hcan->TxMailbox2CompleteCallback =  HAL_CAN_TxMailbox2CompleteCallback; /* Legacy weak TxMailbo
 310:Drivers/STM32F3xx_HAL_Driver/Src/stm32f3xx_hal_can.c ****     hcan->TxMailbox0AbortCallback    =  HAL_CAN_TxMailbox0AbortCallback;    /* Legacy weak TxMailbo
 311:Drivers/STM32F3xx_HAL_Driver/Src/stm32f3xx_hal_can.c ****     hcan->TxMailbox1AbortCallback    =  HAL_CAN_TxMailbox1AbortCallback;    /* Legacy weak TxMailbo
 312:Drivers/STM32F3xx_HAL_Driver/Src/stm32f3xx_hal_can.c ****     hcan->TxMailbox2AbortCallback    =  HAL_CAN_TxMailbox2AbortCallback;    /* Legacy weak TxMailbo
 313:Drivers/STM32F3xx_HAL_Driver/Src/stm32f3xx_hal_can.c ****     hcan->SleepCallback              =  HAL_CAN_SleepCallback;              /* Legacy weak SleepCal
 314:Drivers/STM32F3xx_HAL_Driver/Src/stm32f3xx_hal_can.c ****     hcan->WakeUpFromRxMsgCallback    =  HAL_CAN_WakeUpFromRxMsgCallback;    /* Legacy weak WakeUpFr
ARM GAS  C:\msys64\tmp\cc8m32jh.s 			page 7


 315:Drivers/STM32F3xx_HAL_Driver/Src/stm32f3xx_hal_can.c ****     hcan->ErrorCallback              =  HAL_CAN_ErrorCallback;              /* Legacy weak ErrorCal
 316:Drivers/STM32F3xx_HAL_Driver/Src/stm32f3xx_hal_can.c **** 
 317:Drivers/STM32F3xx_HAL_Driver/Src/stm32f3xx_hal_can.c ****     if (hcan->MspInitCallback == NULL)
 318:Drivers/STM32F3xx_HAL_Driver/Src/stm32f3xx_hal_can.c ****     {
 319:Drivers/STM32F3xx_HAL_Driver/Src/stm32f3xx_hal_can.c ****       hcan->MspInitCallback = HAL_CAN_MspInit; /* Legacy weak MspInit */
 320:Drivers/STM32F3xx_HAL_Driver/Src/stm32f3xx_hal_can.c ****     }
 321:Drivers/STM32F3xx_HAL_Driver/Src/stm32f3xx_hal_can.c **** 
 322:Drivers/STM32F3xx_HAL_Driver/Src/stm32f3xx_hal_can.c ****     /* Init the low level hardware: CLOCK, NVIC */
 323:Drivers/STM32F3xx_HAL_Driver/Src/stm32f3xx_hal_can.c ****     hcan->MspInitCallback(hcan);
 324:Drivers/STM32F3xx_HAL_Driver/Src/stm32f3xx_hal_can.c ****   }
 325:Drivers/STM32F3xx_HAL_Driver/Src/stm32f3xx_hal_can.c **** 
 326:Drivers/STM32F3xx_HAL_Driver/Src/stm32f3xx_hal_can.c **** #else
 327:Drivers/STM32F3xx_HAL_Driver/Src/stm32f3xx_hal_can.c ****   if (hcan->State == HAL_CAN_STATE_RESET)
 328:Drivers/STM32F3xx_HAL_Driver/Src/stm32f3xx_hal_can.c ****   {
 329:Drivers/STM32F3xx_HAL_Driver/Src/stm32f3xx_hal_can.c ****     /* Init the low level hardware: CLOCK, NVIC */
 330:Drivers/STM32F3xx_HAL_Driver/Src/stm32f3xx_hal_can.c ****     HAL_CAN_MspInit(hcan);
 331:Drivers/STM32F3xx_HAL_Driver/Src/stm32f3xx_hal_can.c ****   }
 332:Drivers/STM32F3xx_HAL_Driver/Src/stm32f3xx_hal_can.c **** #endif /* USE_HAL_CAN_REGISTER_CALLBACKS */
 333:Drivers/STM32F3xx_HAL_Driver/Src/stm32f3xx_hal_can.c **** 
 334:Drivers/STM32F3xx_HAL_Driver/Src/stm32f3xx_hal_can.c ****   /* Request initialisation */
 335:Drivers/STM32F3xx_HAL_Driver/Src/stm32f3xx_hal_can.c ****   SET_BIT(hcan->Instance->MCR, CAN_MCR_INRQ);
 336:Drivers/STM32F3xx_HAL_Driver/Src/stm32f3xx_hal_can.c **** 
 337:Drivers/STM32F3xx_HAL_Driver/Src/stm32f3xx_hal_can.c ****   /* Get tick */
 338:Drivers/STM32F3xx_HAL_Driver/Src/stm32f3xx_hal_can.c ****   tickstart = HAL_GetTick();
 339:Drivers/STM32F3xx_HAL_Driver/Src/stm32f3xx_hal_can.c **** 
 340:Drivers/STM32F3xx_HAL_Driver/Src/stm32f3xx_hal_can.c ****   /* Wait initialisation acknowledge */
 341:Drivers/STM32F3xx_HAL_Driver/Src/stm32f3xx_hal_can.c ****   while ((hcan->Instance->MSR & CAN_MSR_INAK) == 0U)
 342:Drivers/STM32F3xx_HAL_Driver/Src/stm32f3xx_hal_can.c ****   {
 343:Drivers/STM32F3xx_HAL_Driver/Src/stm32f3xx_hal_can.c ****     if ((HAL_GetTick() - tickstart) > CAN_TIMEOUT_VALUE)
 344:Drivers/STM32F3xx_HAL_Driver/Src/stm32f3xx_hal_can.c ****     {
 345:Drivers/STM32F3xx_HAL_Driver/Src/stm32f3xx_hal_can.c ****       /* Update error code */
 346:Drivers/STM32F3xx_HAL_Driver/Src/stm32f3xx_hal_can.c ****       hcan->ErrorCode |= HAL_CAN_ERROR_TIMEOUT;
 347:Drivers/STM32F3xx_HAL_Driver/Src/stm32f3xx_hal_can.c **** 
 348:Drivers/STM32F3xx_HAL_Driver/Src/stm32f3xx_hal_can.c ****       /* Change CAN state */
 349:Drivers/STM32F3xx_HAL_Driver/Src/stm32f3xx_hal_can.c ****       hcan->State = HAL_CAN_STATE_ERROR;
 350:Drivers/STM32F3xx_HAL_Driver/Src/stm32f3xx_hal_can.c **** 
 351:Drivers/STM32F3xx_HAL_Driver/Src/stm32f3xx_hal_can.c ****       return HAL_ERROR;
 352:Drivers/STM32F3xx_HAL_Driver/Src/stm32f3xx_hal_can.c ****     }
 353:Drivers/STM32F3xx_HAL_Driver/Src/stm32f3xx_hal_can.c ****   }
 354:Drivers/STM32F3xx_HAL_Driver/Src/stm32f3xx_hal_can.c **** 
 355:Drivers/STM32F3xx_HAL_Driver/Src/stm32f3xx_hal_can.c ****   /* Exit from sleep mode */
 356:Drivers/STM32F3xx_HAL_Driver/Src/stm32f3xx_hal_can.c ****   CLEAR_BIT(hcan->Instance->MCR, CAN_MCR_SLEEP);
 357:Drivers/STM32F3xx_HAL_Driver/Src/stm32f3xx_hal_can.c **** 
 358:Drivers/STM32F3xx_HAL_Driver/Src/stm32f3xx_hal_can.c ****   /* Get tick */
 359:Drivers/STM32F3xx_HAL_Driver/Src/stm32f3xx_hal_can.c ****   tickstart = HAL_GetTick();
 360:Drivers/STM32F3xx_HAL_Driver/Src/stm32f3xx_hal_can.c **** 
 361:Drivers/STM32F3xx_HAL_Driver/Src/stm32f3xx_hal_can.c ****   /* Check Sleep mode leave acknowledge */
 362:Drivers/STM32F3xx_HAL_Driver/Src/stm32f3xx_hal_can.c ****   while ((hcan->Instance->MSR & CAN_MSR_SLAK) != 0U)
 363:Drivers/STM32F3xx_HAL_Driver/Src/stm32f3xx_hal_can.c ****   {
 364:Drivers/STM32F3xx_HAL_Driver/Src/stm32f3xx_hal_can.c ****     if ((HAL_GetTick() - tickstart) > CAN_TIMEOUT_VALUE)
 365:Drivers/STM32F3xx_HAL_Driver/Src/stm32f3xx_hal_can.c ****     {
 366:Drivers/STM32F3xx_HAL_Driver/Src/stm32f3xx_hal_can.c ****       /* Update error code */
 367:Drivers/STM32F3xx_HAL_Driver/Src/stm32f3xx_hal_can.c ****       hcan->ErrorCode |= HAL_CAN_ERROR_TIMEOUT;
 368:Drivers/STM32F3xx_HAL_Driver/Src/stm32f3xx_hal_can.c **** 
 369:Drivers/STM32F3xx_HAL_Driver/Src/stm32f3xx_hal_can.c ****       /* Change CAN state */
 370:Drivers/STM32F3xx_HAL_Driver/Src/stm32f3xx_hal_can.c ****       hcan->State = HAL_CAN_STATE_ERROR;
 371:Drivers/STM32F3xx_HAL_Driver/Src/stm32f3xx_hal_can.c **** 
ARM GAS  C:\msys64\tmp\cc8m32jh.s 			page 8


 372:Drivers/STM32F3xx_HAL_Driver/Src/stm32f3xx_hal_can.c ****       return HAL_ERROR;
 373:Drivers/STM32F3xx_HAL_Driver/Src/stm32f3xx_hal_can.c ****     }
 374:Drivers/STM32F3xx_HAL_Driver/Src/stm32f3xx_hal_can.c ****   }
 375:Drivers/STM32F3xx_HAL_Driver/Src/stm32f3xx_hal_can.c **** 
 376:Drivers/STM32F3xx_HAL_Driver/Src/stm32f3xx_hal_can.c ****   /* Set the time triggered communication mode */
 377:Drivers/STM32F3xx_HAL_Driver/Src/stm32f3xx_hal_can.c ****   if (hcan->Init.TimeTriggeredMode == ENABLE)
 378:Drivers/STM32F3xx_HAL_Driver/Src/stm32f3xx_hal_can.c ****   {
 379:Drivers/STM32F3xx_HAL_Driver/Src/stm32f3xx_hal_can.c ****     SET_BIT(hcan->Instance->MCR, CAN_MCR_TTCM);
 380:Drivers/STM32F3xx_HAL_Driver/Src/stm32f3xx_hal_can.c ****   }
 381:Drivers/STM32F3xx_HAL_Driver/Src/stm32f3xx_hal_can.c ****   else
 382:Drivers/STM32F3xx_HAL_Driver/Src/stm32f3xx_hal_can.c ****   {
 383:Drivers/STM32F3xx_HAL_Driver/Src/stm32f3xx_hal_can.c ****     CLEAR_BIT(hcan->Instance->MCR, CAN_MCR_TTCM);
 384:Drivers/STM32F3xx_HAL_Driver/Src/stm32f3xx_hal_can.c ****   }
 385:Drivers/STM32F3xx_HAL_Driver/Src/stm32f3xx_hal_can.c **** 
 386:Drivers/STM32F3xx_HAL_Driver/Src/stm32f3xx_hal_can.c ****   /* Set the automatic bus-off management */
 387:Drivers/STM32F3xx_HAL_Driver/Src/stm32f3xx_hal_can.c ****   if (hcan->Init.AutoBusOff == ENABLE)
 388:Drivers/STM32F3xx_HAL_Driver/Src/stm32f3xx_hal_can.c ****   {
 389:Drivers/STM32F3xx_HAL_Driver/Src/stm32f3xx_hal_can.c ****     SET_BIT(hcan->Instance->MCR, CAN_MCR_ABOM);
 390:Drivers/STM32F3xx_HAL_Driver/Src/stm32f3xx_hal_can.c ****   }
 391:Drivers/STM32F3xx_HAL_Driver/Src/stm32f3xx_hal_can.c ****   else
 392:Drivers/STM32F3xx_HAL_Driver/Src/stm32f3xx_hal_can.c ****   {
 393:Drivers/STM32F3xx_HAL_Driver/Src/stm32f3xx_hal_can.c ****     CLEAR_BIT(hcan->Instance->MCR, CAN_MCR_ABOM);
 394:Drivers/STM32F3xx_HAL_Driver/Src/stm32f3xx_hal_can.c ****   }
 395:Drivers/STM32F3xx_HAL_Driver/Src/stm32f3xx_hal_can.c **** 
 396:Drivers/STM32F3xx_HAL_Driver/Src/stm32f3xx_hal_can.c ****   /* Set the automatic wake-up mode */
 397:Drivers/STM32F3xx_HAL_Driver/Src/stm32f3xx_hal_can.c ****   if (hcan->Init.AutoWakeUp == ENABLE)
 398:Drivers/STM32F3xx_HAL_Driver/Src/stm32f3xx_hal_can.c ****   {
 399:Drivers/STM32F3xx_HAL_Driver/Src/stm32f3xx_hal_can.c ****     SET_BIT(hcan->Instance->MCR, CAN_MCR_AWUM);
 400:Drivers/STM32F3xx_HAL_Driver/Src/stm32f3xx_hal_can.c ****   }
 401:Drivers/STM32F3xx_HAL_Driver/Src/stm32f3xx_hal_can.c ****   else
 402:Drivers/STM32F3xx_HAL_Driver/Src/stm32f3xx_hal_can.c ****   {
 403:Drivers/STM32F3xx_HAL_Driver/Src/stm32f3xx_hal_can.c ****     CLEAR_BIT(hcan->Instance->MCR, CAN_MCR_AWUM);
 404:Drivers/STM32F3xx_HAL_Driver/Src/stm32f3xx_hal_can.c ****   }
 405:Drivers/STM32F3xx_HAL_Driver/Src/stm32f3xx_hal_can.c **** 
 406:Drivers/STM32F3xx_HAL_Driver/Src/stm32f3xx_hal_can.c ****   /* Set the automatic retransmission */
 407:Drivers/STM32F3xx_HAL_Driver/Src/stm32f3xx_hal_can.c ****   if (hcan->Init.AutoRetransmission == ENABLE)
 408:Drivers/STM32F3xx_HAL_Driver/Src/stm32f3xx_hal_can.c ****   {
 409:Drivers/STM32F3xx_HAL_Driver/Src/stm32f3xx_hal_can.c ****     CLEAR_BIT(hcan->Instance->MCR, CAN_MCR_NART);
 410:Drivers/STM32F3xx_HAL_Driver/Src/stm32f3xx_hal_can.c ****   }
 411:Drivers/STM32F3xx_HAL_Driver/Src/stm32f3xx_hal_can.c ****   else
 412:Drivers/STM32F3xx_HAL_Driver/Src/stm32f3xx_hal_can.c ****   {
 413:Drivers/STM32F3xx_HAL_Driver/Src/stm32f3xx_hal_can.c ****     SET_BIT(hcan->Instance->MCR, CAN_MCR_NART);
 414:Drivers/STM32F3xx_HAL_Driver/Src/stm32f3xx_hal_can.c ****   }
 415:Drivers/STM32F3xx_HAL_Driver/Src/stm32f3xx_hal_can.c **** 
 416:Drivers/STM32F3xx_HAL_Driver/Src/stm32f3xx_hal_can.c ****   /* Set the receive FIFO locked mode */
 417:Drivers/STM32F3xx_HAL_Driver/Src/stm32f3xx_hal_can.c ****   if (hcan->Init.ReceiveFifoLocked == ENABLE)
 418:Drivers/STM32F3xx_HAL_Driver/Src/stm32f3xx_hal_can.c ****   {
 419:Drivers/STM32F3xx_HAL_Driver/Src/stm32f3xx_hal_can.c ****     SET_BIT(hcan->Instance->MCR, CAN_MCR_RFLM);
 420:Drivers/STM32F3xx_HAL_Driver/Src/stm32f3xx_hal_can.c ****   }
 421:Drivers/STM32F3xx_HAL_Driver/Src/stm32f3xx_hal_can.c ****   else
 422:Drivers/STM32F3xx_HAL_Driver/Src/stm32f3xx_hal_can.c ****   {
 423:Drivers/STM32F3xx_HAL_Driver/Src/stm32f3xx_hal_can.c ****     CLEAR_BIT(hcan->Instance->MCR, CAN_MCR_RFLM);
 424:Drivers/STM32F3xx_HAL_Driver/Src/stm32f3xx_hal_can.c ****   }
 425:Drivers/STM32F3xx_HAL_Driver/Src/stm32f3xx_hal_can.c **** 
 426:Drivers/STM32F3xx_HAL_Driver/Src/stm32f3xx_hal_can.c ****   /* Set the transmit FIFO priority */
 427:Drivers/STM32F3xx_HAL_Driver/Src/stm32f3xx_hal_can.c ****   if (hcan->Init.TransmitFifoPriority == ENABLE)
 428:Drivers/STM32F3xx_HAL_Driver/Src/stm32f3xx_hal_can.c ****   {
ARM GAS  C:\msys64\tmp\cc8m32jh.s 			page 9


 429:Drivers/STM32F3xx_HAL_Driver/Src/stm32f3xx_hal_can.c ****     SET_BIT(hcan->Instance->MCR, CAN_MCR_TXFP);
 430:Drivers/STM32F3xx_HAL_Driver/Src/stm32f3xx_hal_can.c ****   }
 431:Drivers/STM32F3xx_HAL_Driver/Src/stm32f3xx_hal_can.c ****   else
 432:Drivers/STM32F3xx_HAL_Driver/Src/stm32f3xx_hal_can.c ****   {
 433:Drivers/STM32F3xx_HAL_Driver/Src/stm32f3xx_hal_can.c ****     CLEAR_BIT(hcan->Instance->MCR, CAN_MCR_TXFP);
 434:Drivers/STM32F3xx_HAL_Driver/Src/stm32f3xx_hal_can.c ****   }
 435:Drivers/STM32F3xx_HAL_Driver/Src/stm32f3xx_hal_can.c **** 
 436:Drivers/STM32F3xx_HAL_Driver/Src/stm32f3xx_hal_can.c ****   /* Set the bit timing register */
 437:Drivers/STM32F3xx_HAL_Driver/Src/stm32f3xx_hal_can.c ****   WRITE_REG(hcan->Instance->BTR, (uint32_t)(hcan->Init.Mode           |
 438:Drivers/STM32F3xx_HAL_Driver/Src/stm32f3xx_hal_can.c ****                                             hcan->Init.SyncJumpWidth  |
 439:Drivers/STM32F3xx_HAL_Driver/Src/stm32f3xx_hal_can.c ****                                             hcan->Init.TimeSeg1       |
 440:Drivers/STM32F3xx_HAL_Driver/Src/stm32f3xx_hal_can.c ****                                             hcan->Init.TimeSeg2       |
 441:Drivers/STM32F3xx_HAL_Driver/Src/stm32f3xx_hal_can.c ****                                             (hcan->Init.Prescaler - 1U)));
 442:Drivers/STM32F3xx_HAL_Driver/Src/stm32f3xx_hal_can.c **** 
 443:Drivers/STM32F3xx_HAL_Driver/Src/stm32f3xx_hal_can.c ****   /* Initialize the error code */
 444:Drivers/STM32F3xx_HAL_Driver/Src/stm32f3xx_hal_can.c ****   hcan->ErrorCode = HAL_CAN_ERROR_NONE;
 445:Drivers/STM32F3xx_HAL_Driver/Src/stm32f3xx_hal_can.c **** 
 446:Drivers/STM32F3xx_HAL_Driver/Src/stm32f3xx_hal_can.c ****   /* Initialize the CAN state */
 447:Drivers/STM32F3xx_HAL_Driver/Src/stm32f3xx_hal_can.c ****   hcan->State = HAL_CAN_STATE_READY;
 448:Drivers/STM32F3xx_HAL_Driver/Src/stm32f3xx_hal_can.c **** 
 449:Drivers/STM32F3xx_HAL_Driver/Src/stm32f3xx_hal_can.c ****   /* Return function status */
 450:Drivers/STM32F3xx_HAL_Driver/Src/stm32f3xx_hal_can.c ****   return HAL_OK;
 451:Drivers/STM32F3xx_HAL_Driver/Src/stm32f3xx_hal_can.c **** }
 452:Drivers/STM32F3xx_HAL_Driver/Src/stm32f3xx_hal_can.c **** 
 453:Drivers/STM32F3xx_HAL_Driver/Src/stm32f3xx_hal_can.c **** /**
 454:Drivers/STM32F3xx_HAL_Driver/Src/stm32f3xx_hal_can.c ****   * @brief  Deinitializes the CAN peripheral registers to their default
 455:Drivers/STM32F3xx_HAL_Driver/Src/stm32f3xx_hal_can.c ****   *         reset values.
 456:Drivers/STM32F3xx_HAL_Driver/Src/stm32f3xx_hal_can.c ****   * @param  hcan pointer to a CAN_HandleTypeDef structure that contains
 457:Drivers/STM32F3xx_HAL_Driver/Src/stm32f3xx_hal_can.c ****   *         the configuration information for the specified CAN.
 458:Drivers/STM32F3xx_HAL_Driver/Src/stm32f3xx_hal_can.c ****   * @retval HAL status
 459:Drivers/STM32F3xx_HAL_Driver/Src/stm32f3xx_hal_can.c ****   */
 460:Drivers/STM32F3xx_HAL_Driver/Src/stm32f3xx_hal_can.c **** HAL_StatusTypeDef HAL_CAN_DeInit(CAN_HandleTypeDef *hcan)
 461:Drivers/STM32F3xx_HAL_Driver/Src/stm32f3xx_hal_can.c **** {
 462:Drivers/STM32F3xx_HAL_Driver/Src/stm32f3xx_hal_can.c ****   /* Check CAN handle */
 463:Drivers/STM32F3xx_HAL_Driver/Src/stm32f3xx_hal_can.c ****   if (hcan == NULL)
 464:Drivers/STM32F3xx_HAL_Driver/Src/stm32f3xx_hal_can.c ****   {
 465:Drivers/STM32F3xx_HAL_Driver/Src/stm32f3xx_hal_can.c ****     return HAL_ERROR;
 466:Drivers/STM32F3xx_HAL_Driver/Src/stm32f3xx_hal_can.c ****   }
 467:Drivers/STM32F3xx_HAL_Driver/Src/stm32f3xx_hal_can.c **** 
 468:Drivers/STM32F3xx_HAL_Driver/Src/stm32f3xx_hal_can.c ****   /* Check the parameters */
 469:Drivers/STM32F3xx_HAL_Driver/Src/stm32f3xx_hal_can.c ****   assert_param(IS_CAN_ALL_INSTANCE(hcan->Instance));
 470:Drivers/STM32F3xx_HAL_Driver/Src/stm32f3xx_hal_can.c **** 
 471:Drivers/STM32F3xx_HAL_Driver/Src/stm32f3xx_hal_can.c ****   /* Stop the CAN module */
 472:Drivers/STM32F3xx_HAL_Driver/Src/stm32f3xx_hal_can.c ****   (void)HAL_CAN_Stop(hcan);
 473:Drivers/STM32F3xx_HAL_Driver/Src/stm32f3xx_hal_can.c **** 
 474:Drivers/STM32F3xx_HAL_Driver/Src/stm32f3xx_hal_can.c **** #if USE_HAL_CAN_REGISTER_CALLBACKS == 1
 475:Drivers/STM32F3xx_HAL_Driver/Src/stm32f3xx_hal_can.c ****   if (hcan->MspDeInitCallback == NULL)
 476:Drivers/STM32F3xx_HAL_Driver/Src/stm32f3xx_hal_can.c ****   {
 477:Drivers/STM32F3xx_HAL_Driver/Src/stm32f3xx_hal_can.c ****     hcan->MspDeInitCallback = HAL_CAN_MspDeInit; /* Legacy weak MspDeInit */
 478:Drivers/STM32F3xx_HAL_Driver/Src/stm32f3xx_hal_can.c ****   }
 479:Drivers/STM32F3xx_HAL_Driver/Src/stm32f3xx_hal_can.c **** 
 480:Drivers/STM32F3xx_HAL_Driver/Src/stm32f3xx_hal_can.c ****   /* DeInit the low level hardware: CLOCK, NVIC */
 481:Drivers/STM32F3xx_HAL_Driver/Src/stm32f3xx_hal_can.c ****   hcan->MspDeInitCallback(hcan);
 482:Drivers/STM32F3xx_HAL_Driver/Src/stm32f3xx_hal_can.c **** 
 483:Drivers/STM32F3xx_HAL_Driver/Src/stm32f3xx_hal_can.c **** #else
 484:Drivers/STM32F3xx_HAL_Driver/Src/stm32f3xx_hal_can.c ****   /* DeInit the low level hardware: CLOCK, NVIC */
 485:Drivers/STM32F3xx_HAL_Driver/Src/stm32f3xx_hal_can.c ****   HAL_CAN_MspDeInit(hcan);
ARM GAS  C:\msys64\tmp\cc8m32jh.s 			page 10


 486:Drivers/STM32F3xx_HAL_Driver/Src/stm32f3xx_hal_can.c **** #endif /* USE_HAL_CAN_REGISTER_CALLBACKS */
 487:Drivers/STM32F3xx_HAL_Driver/Src/stm32f3xx_hal_can.c **** 
 488:Drivers/STM32F3xx_HAL_Driver/Src/stm32f3xx_hal_can.c ****   /* Reset the CAN peripheral */
 489:Drivers/STM32F3xx_HAL_Driver/Src/stm32f3xx_hal_can.c ****   SET_BIT(hcan->Instance->MCR, CAN_MCR_RESET);
 490:Drivers/STM32F3xx_HAL_Driver/Src/stm32f3xx_hal_can.c **** 
 491:Drivers/STM32F3xx_HAL_Driver/Src/stm32f3xx_hal_can.c ****   /* Reset the CAN ErrorCode */
 492:Drivers/STM32F3xx_HAL_Driver/Src/stm32f3xx_hal_can.c ****   hcan->ErrorCode = HAL_CAN_ERROR_NONE;
 493:Drivers/STM32F3xx_HAL_Driver/Src/stm32f3xx_hal_can.c **** 
 494:Drivers/STM32F3xx_HAL_Driver/Src/stm32f3xx_hal_can.c ****   /* Change CAN state */
 495:Drivers/STM32F3xx_HAL_Driver/Src/stm32f3xx_hal_can.c ****   hcan->State = HAL_CAN_STATE_RESET;
 496:Drivers/STM32F3xx_HAL_Driver/Src/stm32f3xx_hal_can.c **** 
 497:Drivers/STM32F3xx_HAL_Driver/Src/stm32f3xx_hal_can.c ****   /* Return function status */
 498:Drivers/STM32F3xx_HAL_Driver/Src/stm32f3xx_hal_can.c ****   return HAL_OK;
 499:Drivers/STM32F3xx_HAL_Driver/Src/stm32f3xx_hal_can.c **** }
 500:Drivers/STM32F3xx_HAL_Driver/Src/stm32f3xx_hal_can.c **** 
 501:Drivers/STM32F3xx_HAL_Driver/Src/stm32f3xx_hal_can.c **** /**
 502:Drivers/STM32F3xx_HAL_Driver/Src/stm32f3xx_hal_can.c ****   * @brief  Initializes the CAN MSP.
 503:Drivers/STM32F3xx_HAL_Driver/Src/stm32f3xx_hal_can.c ****   * @param  hcan pointer to a CAN_HandleTypeDef structure that contains
 504:Drivers/STM32F3xx_HAL_Driver/Src/stm32f3xx_hal_can.c ****   *         the configuration information for the specified CAN.
 505:Drivers/STM32F3xx_HAL_Driver/Src/stm32f3xx_hal_can.c ****   * @retval None
 506:Drivers/STM32F3xx_HAL_Driver/Src/stm32f3xx_hal_can.c ****   */
 507:Drivers/STM32F3xx_HAL_Driver/Src/stm32f3xx_hal_can.c **** __weak void HAL_CAN_MspInit(CAN_HandleTypeDef *hcan)
 508:Drivers/STM32F3xx_HAL_Driver/Src/stm32f3xx_hal_can.c **** {
  30              		.loc 1 508 1 view -0
  31              		.cfi_startproc
  32              		@ args = 0, pretend = 0, frame = 0
  33              		@ frame_needed = 0, uses_anonymous_args = 0
  34              		@ link register save eliminated.
 509:Drivers/STM32F3xx_HAL_Driver/Src/stm32f3xx_hal_can.c ****   /* Prevent unused argument(s) compilation warning */
 510:Drivers/STM32F3xx_HAL_Driver/Src/stm32f3xx_hal_can.c ****   UNUSED(hcan);
  35              		.loc 1 510 3 view .LVU1
 511:Drivers/STM32F3xx_HAL_Driver/Src/stm32f3xx_hal_can.c **** 
 512:Drivers/STM32F3xx_HAL_Driver/Src/stm32f3xx_hal_can.c ****   /* NOTE : This function Should not be modified, when the callback is needed,
 513:Drivers/STM32F3xx_HAL_Driver/Src/stm32f3xx_hal_can.c ****             the HAL_CAN_MspInit could be implemented in the user file
 514:Drivers/STM32F3xx_HAL_Driver/Src/stm32f3xx_hal_can.c ****    */
 515:Drivers/STM32F3xx_HAL_Driver/Src/stm32f3xx_hal_can.c **** }
  36              		.loc 1 515 1 is_stmt 0 view .LVU2
  37 0000 7047     		bx	lr
  38              		.cfi_endproc
  39              	.LFE125:
  41              		.section	.text.HAL_CAN_Init,"ax",%progbits
  42              		.align	1
  43              		.global	HAL_CAN_Init
  44              		.syntax unified
  45              		.thumb
  46              		.thumb_func
  48              	HAL_CAN_Init:
  49              	.LVL1:
  50              	.LFB123:
 276:Drivers/STM32F3xx_HAL_Driver/Src/stm32f3xx_hal_can.c ****   uint32_t tickstart;
  51              		.loc 1 276 1 is_stmt 1 view -0
  52              		.cfi_startproc
  53              		@ args = 0, pretend = 0, frame = 0
  54              		@ frame_needed = 0, uses_anonymous_args = 0
 277:Drivers/STM32F3xx_HAL_Driver/Src/stm32f3xx_hal_can.c **** 
  55              		.loc 1 277 3 view .LVU4
 280:Drivers/STM32F3xx_HAL_Driver/Src/stm32f3xx_hal_can.c ****   {
ARM GAS  C:\msys64\tmp\cc8m32jh.s 			page 11


  56              		.loc 1 280 3 view .LVU5
 280:Drivers/STM32F3xx_HAL_Driver/Src/stm32f3xx_hal_can.c ****   {
  57              		.loc 1 280 6 is_stmt 0 view .LVU6
  58 0000 0028     		cmp	r0, #0
  59 0002 00F0A180 		beq	.L21
 276:Drivers/STM32F3xx_HAL_Driver/Src/stm32f3xx_hal_can.c ****   uint32_t tickstart;
  60              		.loc 1 276 1 view .LVU7
  61 0006 38B5     		push	{r3, r4, r5, lr}
  62              	.LCFI0:
  63              		.cfi_def_cfa_offset 16
  64              		.cfi_offset 3, -16
  65              		.cfi_offset 4, -12
  66              		.cfi_offset 5, -8
  67              		.cfi_offset 14, -4
  68 0008 0446     		mov	r4, r0
 286:Drivers/STM32F3xx_HAL_Driver/Src/stm32f3xx_hal_can.c ****   assert_param(IS_FUNCTIONAL_STATE(hcan->Init.TimeTriggeredMode));
  69              		.loc 1 286 3 is_stmt 1 view .LVU8
 287:Drivers/STM32F3xx_HAL_Driver/Src/stm32f3xx_hal_can.c ****   assert_param(IS_FUNCTIONAL_STATE(hcan->Init.AutoBusOff));
  70              		.loc 1 287 3 view .LVU9
 288:Drivers/STM32F3xx_HAL_Driver/Src/stm32f3xx_hal_can.c ****   assert_param(IS_FUNCTIONAL_STATE(hcan->Init.AutoWakeUp));
  71              		.loc 1 288 3 view .LVU10
 289:Drivers/STM32F3xx_HAL_Driver/Src/stm32f3xx_hal_can.c ****   assert_param(IS_FUNCTIONAL_STATE(hcan->Init.AutoRetransmission));
  72              		.loc 1 289 3 view .LVU11
 290:Drivers/STM32F3xx_HAL_Driver/Src/stm32f3xx_hal_can.c ****   assert_param(IS_FUNCTIONAL_STATE(hcan->Init.ReceiveFifoLocked));
  73              		.loc 1 290 3 view .LVU12
 291:Drivers/STM32F3xx_HAL_Driver/Src/stm32f3xx_hal_can.c ****   assert_param(IS_FUNCTIONAL_STATE(hcan->Init.TransmitFifoPriority));
  74              		.loc 1 291 3 view .LVU13
 292:Drivers/STM32F3xx_HAL_Driver/Src/stm32f3xx_hal_can.c ****   assert_param(IS_CAN_MODE(hcan->Init.Mode));
  75              		.loc 1 292 3 view .LVU14
 293:Drivers/STM32F3xx_HAL_Driver/Src/stm32f3xx_hal_can.c ****   assert_param(IS_CAN_SJW(hcan->Init.SyncJumpWidth));
  76              		.loc 1 293 3 view .LVU15
 294:Drivers/STM32F3xx_HAL_Driver/Src/stm32f3xx_hal_can.c ****   assert_param(IS_CAN_BS1(hcan->Init.TimeSeg1));
  77              		.loc 1 294 3 view .LVU16
 295:Drivers/STM32F3xx_HAL_Driver/Src/stm32f3xx_hal_can.c ****   assert_param(IS_CAN_BS2(hcan->Init.TimeSeg2));
  78              		.loc 1 295 3 view .LVU17
 296:Drivers/STM32F3xx_HAL_Driver/Src/stm32f3xx_hal_can.c ****   assert_param(IS_CAN_PRESCALER(hcan->Init.Prescaler));
  79              		.loc 1 296 3 view .LVU18
 297:Drivers/STM32F3xx_HAL_Driver/Src/stm32f3xx_hal_can.c **** 
  80              		.loc 1 297 3 view .LVU19
 327:Drivers/STM32F3xx_HAL_Driver/Src/stm32f3xx_hal_can.c ****   {
  81              		.loc 1 327 3 view .LVU20
 327:Drivers/STM32F3xx_HAL_Driver/Src/stm32f3xx_hal_can.c ****   {
  82              		.loc 1 327 11 is_stmt 0 view .LVU21
  83 000a 90F82030 		ldrb	r3, [r0, #32]	@ zero_extendqisi2
 327:Drivers/STM32F3xx_HAL_Driver/Src/stm32f3xx_hal_can.c ****   {
  84              		.loc 1 327 6 view .LVU22
  85 000e D3B1     		cbz	r3, .L26
  86              	.LVL2:
  87              	.L4:
 335:Drivers/STM32F3xx_HAL_Driver/Src/stm32f3xx_hal_can.c **** 
  88              		.loc 1 335 3 is_stmt 1 view .LVU23
  89 0010 2268     		ldr	r2, [r4]
  90 0012 1368     		ldr	r3, [r2]
  91 0014 43F00103 		orr	r3, r3, #1
  92 0018 1360     		str	r3, [r2]
 338:Drivers/STM32F3xx_HAL_Driver/Src/stm32f3xx_hal_can.c **** 
  93              		.loc 1 338 3 view .LVU24
ARM GAS  C:\msys64\tmp\cc8m32jh.s 			page 12


 338:Drivers/STM32F3xx_HAL_Driver/Src/stm32f3xx_hal_can.c **** 
  94              		.loc 1 338 15 is_stmt 0 view .LVU25
  95 001a FFF7FEFF 		bl	HAL_GetTick
  96              	.LVL3:
  97 001e 0546     		mov	r5, r0
  98              	.LVL4:
 341:Drivers/STM32F3xx_HAL_Driver/Src/stm32f3xx_hal_can.c ****   {
  99              		.loc 1 341 3 is_stmt 1 view .LVU26
 100              	.L5:
 341:Drivers/STM32F3xx_HAL_Driver/Src/stm32f3xx_hal_can.c ****   {
 101              		.loc 1 341 47 view .LVU27
 341:Drivers/STM32F3xx_HAL_Driver/Src/stm32f3xx_hal_can.c ****   {
 102              		.loc 1 341 15 is_stmt 0 view .LVU28
 103 0020 2368     		ldr	r3, [r4]
 341:Drivers/STM32F3xx_HAL_Driver/Src/stm32f3xx_hal_can.c ****   {
 104              		.loc 1 341 25 view .LVU29
 105 0022 5A68     		ldr	r2, [r3, #4]
 341:Drivers/STM32F3xx_HAL_Driver/Src/stm32f3xx_hal_can.c ****   {
 106              		.loc 1 341 47 view .LVU30
 107 0024 12F0010F 		tst	r2, #1
 108 0028 10D1     		bne	.L27
 343:Drivers/STM32F3xx_HAL_Driver/Src/stm32f3xx_hal_can.c ****     {
 109              		.loc 1 343 5 is_stmt 1 view .LVU31
 343:Drivers/STM32F3xx_HAL_Driver/Src/stm32f3xx_hal_can.c ****     {
 110              		.loc 1 343 10 is_stmt 0 view .LVU32
 111 002a FFF7FEFF 		bl	HAL_GetTick
 112              	.LVL5:
 343:Drivers/STM32F3xx_HAL_Driver/Src/stm32f3xx_hal_can.c ****     {
 113              		.loc 1 343 24 discriminator 1 view .LVU33
 114 002e 401B     		subs	r0, r0, r5
 343:Drivers/STM32F3xx_HAL_Driver/Src/stm32f3xx_hal_can.c ****     {
 115              		.loc 1 343 8 discriminator 1 view .LVU34
 116 0030 0A28     		cmp	r0, #10
 117 0032 F5D9     		bls	.L5
 346:Drivers/STM32F3xx_HAL_Driver/Src/stm32f3xx_hal_can.c **** 
 118              		.loc 1 346 7 is_stmt 1 view .LVU35
 346:Drivers/STM32F3xx_HAL_Driver/Src/stm32f3xx_hal_can.c **** 
 119              		.loc 1 346 11 is_stmt 0 view .LVU36
 120 0034 636A     		ldr	r3, [r4, #36]
 346:Drivers/STM32F3xx_HAL_Driver/Src/stm32f3xx_hal_can.c **** 
 121              		.loc 1 346 23 view .LVU37
 122 0036 43F40033 		orr	r3, r3, #131072
 123 003a 6362     		str	r3, [r4, #36]
 349:Drivers/STM32F3xx_HAL_Driver/Src/stm32f3xx_hal_can.c **** 
 124              		.loc 1 349 7 is_stmt 1 view .LVU38
 349:Drivers/STM32F3xx_HAL_Driver/Src/stm32f3xx_hal_can.c **** 
 125              		.loc 1 349 19 is_stmt 0 view .LVU39
 126 003c 0523     		movs	r3, #5
 127 003e 84F82030 		strb	r3, [r4, #32]
 351:Drivers/STM32F3xx_HAL_Driver/Src/stm32f3xx_hal_can.c ****     }
 128              		.loc 1 351 7 is_stmt 1 view .LVU40
 351:Drivers/STM32F3xx_HAL_Driver/Src/stm32f3xx_hal_can.c ****     }
 129              		.loc 1 351 14 is_stmt 0 view .LVU41
 130 0042 0120     		movs	r0, #1
 131              	.L3:
 451:Drivers/STM32F3xx_HAL_Driver/Src/stm32f3xx_hal_can.c **** 
 132              		.loc 1 451 1 view .LVU42
ARM GAS  C:\msys64\tmp\cc8m32jh.s 			page 13


 133 0044 38BD     		pop	{r3, r4, r5, pc}
 134              	.LVL6:
 135              	.L26:
 330:Drivers/STM32F3xx_HAL_Driver/Src/stm32f3xx_hal_can.c ****   }
 136              		.loc 1 330 5 is_stmt 1 view .LVU43
 137 0046 FFF7FEFF 		bl	HAL_CAN_MspInit
 138              	.LVL7:
 330:Drivers/STM32F3xx_HAL_Driver/Src/stm32f3xx_hal_can.c ****   }
 139              		.loc 1 330 5 is_stmt 0 view .LVU44
 140 004a E1E7     		b	.L4
 141              	.LVL8:
 142              	.L27:
 356:Drivers/STM32F3xx_HAL_Driver/Src/stm32f3xx_hal_can.c **** 
 143              		.loc 1 356 3 is_stmt 1 view .LVU45
 144 004c 1A68     		ldr	r2, [r3]
 145 004e 22F00202 		bic	r2, r2, #2
 146 0052 1A60     		str	r2, [r3]
 359:Drivers/STM32F3xx_HAL_Driver/Src/stm32f3xx_hal_can.c **** 
 147              		.loc 1 359 3 view .LVU46
 359:Drivers/STM32F3xx_HAL_Driver/Src/stm32f3xx_hal_can.c **** 
 148              		.loc 1 359 15 is_stmt 0 view .LVU47
 149 0054 FFF7FEFF 		bl	HAL_GetTick
 150              	.LVL9:
 151 0058 0546     		mov	r5, r0
 152              	.LVL10:
 362:Drivers/STM32F3xx_HAL_Driver/Src/stm32f3xx_hal_can.c ****   {
 153              		.loc 1 362 3 is_stmt 1 view .LVU48
 154              	.L7:
 362:Drivers/STM32F3xx_HAL_Driver/Src/stm32f3xx_hal_can.c ****   {
 155              		.loc 1 362 47 view .LVU49
 362:Drivers/STM32F3xx_HAL_Driver/Src/stm32f3xx_hal_can.c ****   {
 156              		.loc 1 362 15 is_stmt 0 view .LVU50
 157 005a 2368     		ldr	r3, [r4]
 362:Drivers/STM32F3xx_HAL_Driver/Src/stm32f3xx_hal_can.c ****   {
 158              		.loc 1 362 25 view .LVU51
 159 005c 5A68     		ldr	r2, [r3, #4]
 362:Drivers/STM32F3xx_HAL_Driver/Src/stm32f3xx_hal_can.c ****   {
 160              		.loc 1 362 47 view .LVU52
 161 005e 12F0020F 		tst	r2, #2
 162 0062 0DD0     		beq	.L28
 364:Drivers/STM32F3xx_HAL_Driver/Src/stm32f3xx_hal_can.c ****     {
 163              		.loc 1 364 5 is_stmt 1 view .LVU53
 364:Drivers/STM32F3xx_HAL_Driver/Src/stm32f3xx_hal_can.c ****     {
 164              		.loc 1 364 10 is_stmt 0 view .LVU54
 165 0064 FFF7FEFF 		bl	HAL_GetTick
 166              	.LVL11:
 364:Drivers/STM32F3xx_HAL_Driver/Src/stm32f3xx_hal_can.c ****     {
 167              		.loc 1 364 24 discriminator 1 view .LVU55
 168 0068 401B     		subs	r0, r0, r5
 364:Drivers/STM32F3xx_HAL_Driver/Src/stm32f3xx_hal_can.c ****     {
 169              		.loc 1 364 8 discriminator 1 view .LVU56
 170 006a 0A28     		cmp	r0, #10
 171 006c F5D9     		bls	.L7
 367:Drivers/STM32F3xx_HAL_Driver/Src/stm32f3xx_hal_can.c **** 
 172              		.loc 1 367 7 is_stmt 1 view .LVU57
 367:Drivers/STM32F3xx_HAL_Driver/Src/stm32f3xx_hal_can.c **** 
 173              		.loc 1 367 11 is_stmt 0 view .LVU58
ARM GAS  C:\msys64\tmp\cc8m32jh.s 			page 14


 174 006e 636A     		ldr	r3, [r4, #36]
 367:Drivers/STM32F3xx_HAL_Driver/Src/stm32f3xx_hal_can.c **** 
 175              		.loc 1 367 23 view .LVU59
 176 0070 43F40033 		orr	r3, r3, #131072
 177 0074 6362     		str	r3, [r4, #36]
 370:Drivers/STM32F3xx_HAL_Driver/Src/stm32f3xx_hal_can.c **** 
 178              		.loc 1 370 7 is_stmt 1 view .LVU60
 370:Drivers/STM32F3xx_HAL_Driver/Src/stm32f3xx_hal_can.c **** 
 179              		.loc 1 370 19 is_stmt 0 view .LVU61
 180 0076 0523     		movs	r3, #5
 181 0078 84F82030 		strb	r3, [r4, #32]
 372:Drivers/STM32F3xx_HAL_Driver/Src/stm32f3xx_hal_can.c ****     }
 182              		.loc 1 372 7 is_stmt 1 view .LVU62
 372:Drivers/STM32F3xx_HAL_Driver/Src/stm32f3xx_hal_can.c ****     }
 183              		.loc 1 372 14 is_stmt 0 view .LVU63
 184 007c 0120     		movs	r0, #1
 185 007e E1E7     		b	.L3
 186              	.L28:
 377:Drivers/STM32F3xx_HAL_Driver/Src/stm32f3xx_hal_can.c ****   {
 187              		.loc 1 377 3 is_stmt 1 view .LVU64
 377:Drivers/STM32F3xx_HAL_Driver/Src/stm32f3xx_hal_can.c ****   {
 188              		.loc 1 377 17 is_stmt 0 view .LVU65
 189 0080 227E     		ldrb	r2, [r4, #24]	@ zero_extendqisi2
 377:Drivers/STM32F3xx_HAL_Driver/Src/stm32f3xx_hal_can.c ****   {
 190              		.loc 1 377 6 view .LVU66
 191 0082 012A     		cmp	r2, #1
 192 0084 3DD0     		beq	.L29
 383:Drivers/STM32F3xx_HAL_Driver/Src/stm32f3xx_hal_can.c ****   }
 193              		.loc 1 383 5 is_stmt 1 view .LVU67
 194 0086 1A68     		ldr	r2, [r3]
 195 0088 22F08002 		bic	r2, r2, #128
 196 008c 1A60     		str	r2, [r3]
 197              	.L10:
 387:Drivers/STM32F3xx_HAL_Driver/Src/stm32f3xx_hal_can.c ****   {
 198              		.loc 1 387 3 view .LVU68
 387:Drivers/STM32F3xx_HAL_Driver/Src/stm32f3xx_hal_can.c ****   {
 199              		.loc 1 387 17 is_stmt 0 view .LVU69
 200 008e 637E     		ldrb	r3, [r4, #25]	@ zero_extendqisi2
 387:Drivers/STM32F3xx_HAL_Driver/Src/stm32f3xx_hal_can.c ****   {
 201              		.loc 1 387 6 view .LVU70
 202 0090 012B     		cmp	r3, #1
 203 0092 3BD0     		beq	.L30
 393:Drivers/STM32F3xx_HAL_Driver/Src/stm32f3xx_hal_can.c ****   }
 204              		.loc 1 393 5 is_stmt 1 view .LVU71
 205 0094 2268     		ldr	r2, [r4]
 206 0096 1368     		ldr	r3, [r2]
 207 0098 23F04003 		bic	r3, r3, #64
 208 009c 1360     		str	r3, [r2]
 209              	.L12:
 397:Drivers/STM32F3xx_HAL_Driver/Src/stm32f3xx_hal_can.c ****   {
 210              		.loc 1 397 3 view .LVU72
 397:Drivers/STM32F3xx_HAL_Driver/Src/stm32f3xx_hal_can.c ****   {
 211              		.loc 1 397 17 is_stmt 0 view .LVU73
 212 009e A37E     		ldrb	r3, [r4, #26]	@ zero_extendqisi2
 397:Drivers/STM32F3xx_HAL_Driver/Src/stm32f3xx_hal_can.c ****   {
 213              		.loc 1 397 6 view .LVU74
 214 00a0 012B     		cmp	r3, #1
ARM GAS  C:\msys64\tmp\cc8m32jh.s 			page 15


 215 00a2 39D0     		beq	.L31
 403:Drivers/STM32F3xx_HAL_Driver/Src/stm32f3xx_hal_can.c ****   }
 216              		.loc 1 403 5 is_stmt 1 view .LVU75
 217 00a4 2268     		ldr	r2, [r4]
 218 00a6 1368     		ldr	r3, [r2]
 219 00a8 23F02003 		bic	r3, r3, #32
 220 00ac 1360     		str	r3, [r2]
 221              	.L14:
 407:Drivers/STM32F3xx_HAL_Driver/Src/stm32f3xx_hal_can.c ****   {
 222              		.loc 1 407 3 view .LVU76
 407:Drivers/STM32F3xx_HAL_Driver/Src/stm32f3xx_hal_can.c ****   {
 223              		.loc 1 407 17 is_stmt 0 view .LVU77
 224 00ae E37E     		ldrb	r3, [r4, #27]	@ zero_extendqisi2
 407:Drivers/STM32F3xx_HAL_Driver/Src/stm32f3xx_hal_can.c ****   {
 225              		.loc 1 407 6 view .LVU78
 226 00b0 012B     		cmp	r3, #1
 227 00b2 37D0     		beq	.L32
 413:Drivers/STM32F3xx_HAL_Driver/Src/stm32f3xx_hal_can.c ****   }
 228              		.loc 1 413 5 is_stmt 1 view .LVU79
 229 00b4 2268     		ldr	r2, [r4]
 230 00b6 1368     		ldr	r3, [r2]
 231 00b8 43F01003 		orr	r3, r3, #16
 232 00bc 1360     		str	r3, [r2]
 233              	.L16:
 417:Drivers/STM32F3xx_HAL_Driver/Src/stm32f3xx_hal_can.c ****   {
 234              		.loc 1 417 3 view .LVU80
 417:Drivers/STM32F3xx_HAL_Driver/Src/stm32f3xx_hal_can.c ****   {
 235              		.loc 1 417 17 is_stmt 0 view .LVU81
 236 00be 237F     		ldrb	r3, [r4, #28]	@ zero_extendqisi2
 417:Drivers/STM32F3xx_HAL_Driver/Src/stm32f3xx_hal_can.c ****   {
 237              		.loc 1 417 6 view .LVU82
 238 00c0 012B     		cmp	r3, #1
 239 00c2 35D0     		beq	.L33
 423:Drivers/STM32F3xx_HAL_Driver/Src/stm32f3xx_hal_can.c ****   }
 240              		.loc 1 423 5 is_stmt 1 view .LVU83
 241 00c4 2268     		ldr	r2, [r4]
 242 00c6 1368     		ldr	r3, [r2]
 243 00c8 23F00803 		bic	r3, r3, #8
 244 00cc 1360     		str	r3, [r2]
 245              	.L18:
 427:Drivers/STM32F3xx_HAL_Driver/Src/stm32f3xx_hal_can.c ****   {
 246              		.loc 1 427 3 view .LVU84
 427:Drivers/STM32F3xx_HAL_Driver/Src/stm32f3xx_hal_can.c ****   {
 247              		.loc 1 427 17 is_stmt 0 view .LVU85
 248 00ce 637F     		ldrb	r3, [r4, #29]	@ zero_extendqisi2
 427:Drivers/STM32F3xx_HAL_Driver/Src/stm32f3xx_hal_can.c ****   {
 249              		.loc 1 427 6 view .LVU86
 250 00d0 012B     		cmp	r3, #1
 251 00d2 33D0     		beq	.L34
 433:Drivers/STM32F3xx_HAL_Driver/Src/stm32f3xx_hal_can.c ****   }
 252              		.loc 1 433 5 is_stmt 1 view .LVU87
 253 00d4 2268     		ldr	r2, [r4]
 254 00d6 1368     		ldr	r3, [r2]
 255 00d8 23F00403 		bic	r3, r3, #4
 256 00dc 1360     		str	r3, [r2]
 257              	.L20:
 437:Drivers/STM32F3xx_HAL_Driver/Src/stm32f3xx_hal_can.c ****                                             hcan->Init.SyncJumpWidth  |
ARM GAS  C:\msys64\tmp\cc8m32jh.s 			page 16


 258              		.loc 1 437 3 view .LVU88
 259 00de A368     		ldr	r3, [r4, #8]
 260 00e0 E268     		ldr	r2, [r4, #12]
 261 00e2 1343     		orrs	r3, r3, r2
 262 00e4 2269     		ldr	r2, [r4, #16]
 263 00e6 1343     		orrs	r3, r3, r2
 264 00e8 6269     		ldr	r2, [r4, #20]
 265 00ea 1343     		orrs	r3, r3, r2
 266 00ec 6268     		ldr	r2, [r4, #4]
 267 00ee 013A     		subs	r2, r2, #1
 268 00f0 2168     		ldr	r1, [r4]
 269 00f2 1343     		orrs	r3, r3, r2
 270 00f4 CB61     		str	r3, [r1, #28]
 444:Drivers/STM32F3xx_HAL_Driver/Src/stm32f3xx_hal_can.c **** 
 271              		.loc 1 444 3 view .LVU89
 444:Drivers/STM32F3xx_HAL_Driver/Src/stm32f3xx_hal_can.c **** 
 272              		.loc 1 444 19 is_stmt 0 view .LVU90
 273 00f6 0020     		movs	r0, #0
 274 00f8 6062     		str	r0, [r4, #36]
 447:Drivers/STM32F3xx_HAL_Driver/Src/stm32f3xx_hal_can.c **** 
 275              		.loc 1 447 3 is_stmt 1 view .LVU91
 447:Drivers/STM32F3xx_HAL_Driver/Src/stm32f3xx_hal_can.c **** 
 276              		.loc 1 447 15 is_stmt 0 view .LVU92
 277 00fa 0123     		movs	r3, #1
 278 00fc 84F82030 		strb	r3, [r4, #32]
 450:Drivers/STM32F3xx_HAL_Driver/Src/stm32f3xx_hal_can.c **** }
 279              		.loc 1 450 3 is_stmt 1 view .LVU93
 450:Drivers/STM32F3xx_HAL_Driver/Src/stm32f3xx_hal_can.c **** }
 280              		.loc 1 450 10 is_stmt 0 view .LVU94
 281 0100 A0E7     		b	.L3
 282              	.L29:
 379:Drivers/STM32F3xx_HAL_Driver/Src/stm32f3xx_hal_can.c ****   }
 283              		.loc 1 379 5 is_stmt 1 view .LVU95
 284 0102 1A68     		ldr	r2, [r3]
 285 0104 42F08002 		orr	r2, r2, #128
 286 0108 1A60     		str	r2, [r3]
 287 010a C0E7     		b	.L10
 288              	.L30:
 389:Drivers/STM32F3xx_HAL_Driver/Src/stm32f3xx_hal_can.c ****   }
 289              		.loc 1 389 5 view .LVU96
 290 010c 2268     		ldr	r2, [r4]
 291 010e 1368     		ldr	r3, [r2]
 292 0110 43F04003 		orr	r3, r3, #64
 293 0114 1360     		str	r3, [r2]
 294 0116 C2E7     		b	.L12
 295              	.L31:
 399:Drivers/STM32F3xx_HAL_Driver/Src/stm32f3xx_hal_can.c ****   }
 296              		.loc 1 399 5 view .LVU97
 297 0118 2268     		ldr	r2, [r4]
 298 011a 1368     		ldr	r3, [r2]
 299 011c 43F02003 		orr	r3, r3, #32
 300 0120 1360     		str	r3, [r2]
 301 0122 C4E7     		b	.L14
 302              	.L32:
 409:Drivers/STM32F3xx_HAL_Driver/Src/stm32f3xx_hal_can.c ****   }
 303              		.loc 1 409 5 view .LVU98
 304 0124 2268     		ldr	r2, [r4]
ARM GAS  C:\msys64\tmp\cc8m32jh.s 			page 17


 305 0126 1368     		ldr	r3, [r2]
 306 0128 23F01003 		bic	r3, r3, #16
 307 012c 1360     		str	r3, [r2]
 308 012e C6E7     		b	.L16
 309              	.L33:
 419:Drivers/STM32F3xx_HAL_Driver/Src/stm32f3xx_hal_can.c ****   }
 310              		.loc 1 419 5 view .LVU99
 311 0130 2268     		ldr	r2, [r4]
 312 0132 1368     		ldr	r3, [r2]
 313 0134 43F00803 		orr	r3, r3, #8
 314 0138 1360     		str	r3, [r2]
 315 013a C8E7     		b	.L18
 316              	.L34:
 429:Drivers/STM32F3xx_HAL_Driver/Src/stm32f3xx_hal_can.c ****   }
 317              		.loc 1 429 5 view .LVU100
 318 013c 2268     		ldr	r2, [r4]
 319 013e 1368     		ldr	r3, [r2]
 320 0140 43F00403 		orr	r3, r3, #4
 321 0144 1360     		str	r3, [r2]
 322 0146 CAE7     		b	.L20
 323              	.LVL12:
 324              	.L21:
 325              	.LCFI1:
 326              		.cfi_def_cfa_offset 0
 327              		.cfi_restore 3
 328              		.cfi_restore 4
 329              		.cfi_restore 5
 330              		.cfi_restore 14
 282:Drivers/STM32F3xx_HAL_Driver/Src/stm32f3xx_hal_can.c ****   }
 331              		.loc 1 282 12 is_stmt 0 view .LVU101
 332 0148 0120     		movs	r0, #1
 333              	.LVL13:
 451:Drivers/STM32F3xx_HAL_Driver/Src/stm32f3xx_hal_can.c **** 
 334              		.loc 1 451 1 view .LVU102
 335 014a 7047     		bx	lr
 336              		.cfi_endproc
 337              	.LFE123:
 339              		.section	.text.HAL_CAN_MspDeInit,"ax",%progbits
 340              		.align	1
 341              		.weak	HAL_CAN_MspDeInit
 342              		.syntax unified
 343              		.thumb
 344              		.thumb_func
 346              	HAL_CAN_MspDeInit:
 347              	.LVL14:
 348              	.LFB126:
 516:Drivers/STM32F3xx_HAL_Driver/Src/stm32f3xx_hal_can.c **** 
 517:Drivers/STM32F3xx_HAL_Driver/Src/stm32f3xx_hal_can.c **** /**
 518:Drivers/STM32F3xx_HAL_Driver/Src/stm32f3xx_hal_can.c ****   * @brief  DeInitializes the CAN MSP.
 519:Drivers/STM32F3xx_HAL_Driver/Src/stm32f3xx_hal_can.c ****   * @param  hcan pointer to a CAN_HandleTypeDef structure that contains
 520:Drivers/STM32F3xx_HAL_Driver/Src/stm32f3xx_hal_can.c ****   *         the configuration information for the specified CAN.
 521:Drivers/STM32F3xx_HAL_Driver/Src/stm32f3xx_hal_can.c ****   * @retval None
 522:Drivers/STM32F3xx_HAL_Driver/Src/stm32f3xx_hal_can.c ****   */
 523:Drivers/STM32F3xx_HAL_Driver/Src/stm32f3xx_hal_can.c **** __weak void HAL_CAN_MspDeInit(CAN_HandleTypeDef *hcan)
 524:Drivers/STM32F3xx_HAL_Driver/Src/stm32f3xx_hal_can.c **** {
 349              		.loc 1 524 1 is_stmt 1 view -0
 350              		.cfi_startproc
ARM GAS  C:\msys64\tmp\cc8m32jh.s 			page 18


 351              		@ args = 0, pretend = 0, frame = 0
 352              		@ frame_needed = 0, uses_anonymous_args = 0
 353              		@ link register save eliminated.
 525:Drivers/STM32F3xx_HAL_Driver/Src/stm32f3xx_hal_can.c ****   /* Prevent unused argument(s) compilation warning */
 526:Drivers/STM32F3xx_HAL_Driver/Src/stm32f3xx_hal_can.c ****   UNUSED(hcan);
 354              		.loc 1 526 3 view .LVU104
 527:Drivers/STM32F3xx_HAL_Driver/Src/stm32f3xx_hal_can.c **** 
 528:Drivers/STM32F3xx_HAL_Driver/Src/stm32f3xx_hal_can.c ****   /* NOTE : This function Should not be modified, when the callback is needed,
 529:Drivers/STM32F3xx_HAL_Driver/Src/stm32f3xx_hal_can.c ****             the HAL_CAN_MspDeInit could be implemented in the user file
 530:Drivers/STM32F3xx_HAL_Driver/Src/stm32f3xx_hal_can.c ****    */
 531:Drivers/STM32F3xx_HAL_Driver/Src/stm32f3xx_hal_can.c **** }
 355              		.loc 1 531 1 is_stmt 0 view .LVU105
 356 0000 7047     		bx	lr
 357              		.cfi_endproc
 358              	.LFE126:
 360              		.section	.text.HAL_CAN_ConfigFilter,"ax",%progbits
 361              		.align	1
 362              		.global	HAL_CAN_ConfigFilter
 363              		.syntax unified
 364              		.thumb
 365              		.thumb_func
 367              	HAL_CAN_ConfigFilter:
 368              	.LVL15:
 369              	.LFB127:
 532:Drivers/STM32F3xx_HAL_Driver/Src/stm32f3xx_hal_can.c **** 
 533:Drivers/STM32F3xx_HAL_Driver/Src/stm32f3xx_hal_can.c **** #if USE_HAL_CAN_REGISTER_CALLBACKS == 1
 534:Drivers/STM32F3xx_HAL_Driver/Src/stm32f3xx_hal_can.c **** /**
 535:Drivers/STM32F3xx_HAL_Driver/Src/stm32f3xx_hal_can.c ****   * @brief  Register a CAN CallBack.
 536:Drivers/STM32F3xx_HAL_Driver/Src/stm32f3xx_hal_can.c ****   *         To be used instead of the weak predefined callback
 537:Drivers/STM32F3xx_HAL_Driver/Src/stm32f3xx_hal_can.c ****   * @param  hcan pointer to a CAN_HandleTypeDef structure that contains
 538:Drivers/STM32F3xx_HAL_Driver/Src/stm32f3xx_hal_can.c ****   *         the configuration information for CAN module
 539:Drivers/STM32F3xx_HAL_Driver/Src/stm32f3xx_hal_can.c ****   * @param  CallbackID ID of the callback to be registered
 540:Drivers/STM32F3xx_HAL_Driver/Src/stm32f3xx_hal_can.c ****   *         This parameter can be one of the following values:
 541:Drivers/STM32F3xx_HAL_Driver/Src/stm32f3xx_hal_can.c ****   *           @arg @ref HAL_CAN_TX_MAILBOX0_COMPLETE_CB_ID Tx Mailbox 0 Complete callback ID
 542:Drivers/STM32F3xx_HAL_Driver/Src/stm32f3xx_hal_can.c ****   *           @arg @ref HAL_CAN_TX_MAILBOX1_COMPLETE_CB_ID Tx Mailbox 1 Complete callback ID
 543:Drivers/STM32F3xx_HAL_Driver/Src/stm32f3xx_hal_can.c ****   *           @arg @ref HAL_CAN_TX_MAILBOX2_COMPLETE_CB_ID Tx Mailbox 2 Complete callback ID
 544:Drivers/STM32F3xx_HAL_Driver/Src/stm32f3xx_hal_can.c ****   *           @arg @ref HAL_CAN_TX_MAILBOX0_ABORT_CB_ID Tx Mailbox 0 Abort callback ID
 545:Drivers/STM32F3xx_HAL_Driver/Src/stm32f3xx_hal_can.c ****   *           @arg @ref HAL_CAN_TX_MAILBOX1_ABORT_CB_ID Tx Mailbox 1 Abort callback ID
 546:Drivers/STM32F3xx_HAL_Driver/Src/stm32f3xx_hal_can.c ****   *           @arg @ref HAL_CAN_TX_MAILBOX2_ABORT_CB_ID Tx Mailbox 2 Abort callback ID
 547:Drivers/STM32F3xx_HAL_Driver/Src/stm32f3xx_hal_can.c ****   *           @arg @ref HAL_CAN_RX_FIFO0_MSG_PENDING_CB_ID Rx Fifo 0 message pending callback ID
 548:Drivers/STM32F3xx_HAL_Driver/Src/stm32f3xx_hal_can.c ****   *           @arg @ref HAL_CAN_RX_FIFO0_FULL_CB_ID Rx Fifo 0 full callback ID
 549:Drivers/STM32F3xx_HAL_Driver/Src/stm32f3xx_hal_can.c ****   *           @arg @ref HAL_CAN_RX_FIFO1_MSG_PENDING_CB_ID Rx Fifo 1 message pending callback ID
 550:Drivers/STM32F3xx_HAL_Driver/Src/stm32f3xx_hal_can.c ****   *           @arg @ref HAL_CAN_RX_FIFO1_FULL_CB_ID Rx Fifo 1 full callback ID
 551:Drivers/STM32F3xx_HAL_Driver/Src/stm32f3xx_hal_can.c ****   *           @arg @ref HAL_CAN_SLEEP_CB_ID Sleep callback ID
 552:Drivers/STM32F3xx_HAL_Driver/Src/stm32f3xx_hal_can.c ****   *           @arg @ref HAL_CAN_WAKEUP_FROM_RX_MSG_CB_ID Wake Up from Rx message callback ID
 553:Drivers/STM32F3xx_HAL_Driver/Src/stm32f3xx_hal_can.c ****   *           @arg @ref HAL_CAN_ERROR_CB_ID Error callback ID
 554:Drivers/STM32F3xx_HAL_Driver/Src/stm32f3xx_hal_can.c ****   *           @arg @ref HAL_CAN_MSPINIT_CB_ID MspInit callback ID
 555:Drivers/STM32F3xx_HAL_Driver/Src/stm32f3xx_hal_can.c ****   *           @arg @ref HAL_CAN_MSPDEINIT_CB_ID MspDeInit callback ID
 556:Drivers/STM32F3xx_HAL_Driver/Src/stm32f3xx_hal_can.c ****   * @param  pCallback pointer to the Callback function
 557:Drivers/STM32F3xx_HAL_Driver/Src/stm32f3xx_hal_can.c ****   * @retval HAL status
 558:Drivers/STM32F3xx_HAL_Driver/Src/stm32f3xx_hal_can.c ****   */
 559:Drivers/STM32F3xx_HAL_Driver/Src/stm32f3xx_hal_can.c **** HAL_StatusTypeDef HAL_CAN_RegisterCallback(CAN_HandleTypeDef *hcan, HAL_CAN_CallbackIDTypeDef Callb
 560:Drivers/STM32F3xx_HAL_Driver/Src/stm32f3xx_hal_can.c ****                                            void (* pCallback)(CAN_HandleTypeDef *_hcan))
 561:Drivers/STM32F3xx_HAL_Driver/Src/stm32f3xx_hal_can.c **** {
 562:Drivers/STM32F3xx_HAL_Driver/Src/stm32f3xx_hal_can.c ****   HAL_StatusTypeDef status = HAL_OK;
 563:Drivers/STM32F3xx_HAL_Driver/Src/stm32f3xx_hal_can.c **** 
 564:Drivers/STM32F3xx_HAL_Driver/Src/stm32f3xx_hal_can.c ****   if (pCallback == NULL)
ARM GAS  C:\msys64\tmp\cc8m32jh.s 			page 19


 565:Drivers/STM32F3xx_HAL_Driver/Src/stm32f3xx_hal_can.c ****   {
 566:Drivers/STM32F3xx_HAL_Driver/Src/stm32f3xx_hal_can.c ****     /* Update the error code */
 567:Drivers/STM32F3xx_HAL_Driver/Src/stm32f3xx_hal_can.c ****     hcan->ErrorCode |= HAL_CAN_ERROR_INVALID_CALLBACK;
 568:Drivers/STM32F3xx_HAL_Driver/Src/stm32f3xx_hal_can.c **** 
 569:Drivers/STM32F3xx_HAL_Driver/Src/stm32f3xx_hal_can.c ****     return HAL_ERROR;
 570:Drivers/STM32F3xx_HAL_Driver/Src/stm32f3xx_hal_can.c ****   }
 571:Drivers/STM32F3xx_HAL_Driver/Src/stm32f3xx_hal_can.c **** 
 572:Drivers/STM32F3xx_HAL_Driver/Src/stm32f3xx_hal_can.c ****   if (hcan->State == HAL_CAN_STATE_READY)
 573:Drivers/STM32F3xx_HAL_Driver/Src/stm32f3xx_hal_can.c ****   {
 574:Drivers/STM32F3xx_HAL_Driver/Src/stm32f3xx_hal_can.c ****     switch (CallbackID)
 575:Drivers/STM32F3xx_HAL_Driver/Src/stm32f3xx_hal_can.c ****     {
 576:Drivers/STM32F3xx_HAL_Driver/Src/stm32f3xx_hal_can.c ****       case HAL_CAN_TX_MAILBOX0_COMPLETE_CB_ID :
 577:Drivers/STM32F3xx_HAL_Driver/Src/stm32f3xx_hal_can.c ****         hcan->TxMailbox0CompleteCallback = pCallback;
 578:Drivers/STM32F3xx_HAL_Driver/Src/stm32f3xx_hal_can.c ****         break;
 579:Drivers/STM32F3xx_HAL_Driver/Src/stm32f3xx_hal_can.c **** 
 580:Drivers/STM32F3xx_HAL_Driver/Src/stm32f3xx_hal_can.c ****       case HAL_CAN_TX_MAILBOX1_COMPLETE_CB_ID :
 581:Drivers/STM32F3xx_HAL_Driver/Src/stm32f3xx_hal_can.c ****         hcan->TxMailbox1CompleteCallback = pCallback;
 582:Drivers/STM32F3xx_HAL_Driver/Src/stm32f3xx_hal_can.c ****         break;
 583:Drivers/STM32F3xx_HAL_Driver/Src/stm32f3xx_hal_can.c **** 
 584:Drivers/STM32F3xx_HAL_Driver/Src/stm32f3xx_hal_can.c ****       case HAL_CAN_TX_MAILBOX2_COMPLETE_CB_ID :
 585:Drivers/STM32F3xx_HAL_Driver/Src/stm32f3xx_hal_can.c ****         hcan->TxMailbox2CompleteCallback = pCallback;
 586:Drivers/STM32F3xx_HAL_Driver/Src/stm32f3xx_hal_can.c ****         break;
 587:Drivers/STM32F3xx_HAL_Driver/Src/stm32f3xx_hal_can.c **** 
 588:Drivers/STM32F3xx_HAL_Driver/Src/stm32f3xx_hal_can.c ****       case HAL_CAN_TX_MAILBOX0_ABORT_CB_ID :
 589:Drivers/STM32F3xx_HAL_Driver/Src/stm32f3xx_hal_can.c ****         hcan->TxMailbox0AbortCallback = pCallback;
 590:Drivers/STM32F3xx_HAL_Driver/Src/stm32f3xx_hal_can.c ****         break;
 591:Drivers/STM32F3xx_HAL_Driver/Src/stm32f3xx_hal_can.c **** 
 592:Drivers/STM32F3xx_HAL_Driver/Src/stm32f3xx_hal_can.c ****       case HAL_CAN_TX_MAILBOX1_ABORT_CB_ID :
 593:Drivers/STM32F3xx_HAL_Driver/Src/stm32f3xx_hal_can.c ****         hcan->TxMailbox1AbortCallback = pCallback;
 594:Drivers/STM32F3xx_HAL_Driver/Src/stm32f3xx_hal_can.c ****         break;
 595:Drivers/STM32F3xx_HAL_Driver/Src/stm32f3xx_hal_can.c **** 
 596:Drivers/STM32F3xx_HAL_Driver/Src/stm32f3xx_hal_can.c ****       case HAL_CAN_TX_MAILBOX2_ABORT_CB_ID :
 597:Drivers/STM32F3xx_HAL_Driver/Src/stm32f3xx_hal_can.c ****         hcan->TxMailbox2AbortCallback = pCallback;
 598:Drivers/STM32F3xx_HAL_Driver/Src/stm32f3xx_hal_can.c ****         break;
 599:Drivers/STM32F3xx_HAL_Driver/Src/stm32f3xx_hal_can.c **** 
 600:Drivers/STM32F3xx_HAL_Driver/Src/stm32f3xx_hal_can.c ****       case HAL_CAN_RX_FIFO0_MSG_PENDING_CB_ID :
 601:Drivers/STM32F3xx_HAL_Driver/Src/stm32f3xx_hal_can.c ****         hcan->RxFifo0MsgPendingCallback = pCallback;
 602:Drivers/STM32F3xx_HAL_Driver/Src/stm32f3xx_hal_can.c ****         break;
 603:Drivers/STM32F3xx_HAL_Driver/Src/stm32f3xx_hal_can.c **** 
 604:Drivers/STM32F3xx_HAL_Driver/Src/stm32f3xx_hal_can.c ****       case HAL_CAN_RX_FIFO0_FULL_CB_ID :
 605:Drivers/STM32F3xx_HAL_Driver/Src/stm32f3xx_hal_can.c ****         hcan->RxFifo0FullCallback = pCallback;
 606:Drivers/STM32F3xx_HAL_Driver/Src/stm32f3xx_hal_can.c ****         break;
 607:Drivers/STM32F3xx_HAL_Driver/Src/stm32f3xx_hal_can.c **** 
 608:Drivers/STM32F3xx_HAL_Driver/Src/stm32f3xx_hal_can.c ****       case HAL_CAN_RX_FIFO1_MSG_PENDING_CB_ID :
 609:Drivers/STM32F3xx_HAL_Driver/Src/stm32f3xx_hal_can.c ****         hcan->RxFifo1MsgPendingCallback = pCallback;
 610:Drivers/STM32F3xx_HAL_Driver/Src/stm32f3xx_hal_can.c ****         break;
 611:Drivers/STM32F3xx_HAL_Driver/Src/stm32f3xx_hal_can.c **** 
 612:Drivers/STM32F3xx_HAL_Driver/Src/stm32f3xx_hal_can.c ****       case HAL_CAN_RX_FIFO1_FULL_CB_ID :
 613:Drivers/STM32F3xx_HAL_Driver/Src/stm32f3xx_hal_can.c ****         hcan->RxFifo1FullCallback = pCallback;
 614:Drivers/STM32F3xx_HAL_Driver/Src/stm32f3xx_hal_can.c ****         break;
 615:Drivers/STM32F3xx_HAL_Driver/Src/stm32f3xx_hal_can.c **** 
 616:Drivers/STM32F3xx_HAL_Driver/Src/stm32f3xx_hal_can.c ****       case HAL_CAN_SLEEP_CB_ID :
 617:Drivers/STM32F3xx_HAL_Driver/Src/stm32f3xx_hal_can.c ****         hcan->SleepCallback = pCallback;
 618:Drivers/STM32F3xx_HAL_Driver/Src/stm32f3xx_hal_can.c ****         break;
 619:Drivers/STM32F3xx_HAL_Driver/Src/stm32f3xx_hal_can.c **** 
 620:Drivers/STM32F3xx_HAL_Driver/Src/stm32f3xx_hal_can.c ****       case HAL_CAN_WAKEUP_FROM_RX_MSG_CB_ID :
 621:Drivers/STM32F3xx_HAL_Driver/Src/stm32f3xx_hal_can.c ****         hcan->WakeUpFromRxMsgCallback = pCallback;
ARM GAS  C:\msys64\tmp\cc8m32jh.s 			page 20


 622:Drivers/STM32F3xx_HAL_Driver/Src/stm32f3xx_hal_can.c ****         break;
 623:Drivers/STM32F3xx_HAL_Driver/Src/stm32f3xx_hal_can.c **** 
 624:Drivers/STM32F3xx_HAL_Driver/Src/stm32f3xx_hal_can.c ****       case HAL_CAN_ERROR_CB_ID :
 625:Drivers/STM32F3xx_HAL_Driver/Src/stm32f3xx_hal_can.c ****         hcan->ErrorCallback = pCallback;
 626:Drivers/STM32F3xx_HAL_Driver/Src/stm32f3xx_hal_can.c ****         break;
 627:Drivers/STM32F3xx_HAL_Driver/Src/stm32f3xx_hal_can.c **** 
 628:Drivers/STM32F3xx_HAL_Driver/Src/stm32f3xx_hal_can.c ****       case HAL_CAN_MSPINIT_CB_ID :
 629:Drivers/STM32F3xx_HAL_Driver/Src/stm32f3xx_hal_can.c ****         hcan->MspInitCallback = pCallback;
 630:Drivers/STM32F3xx_HAL_Driver/Src/stm32f3xx_hal_can.c ****         break;
 631:Drivers/STM32F3xx_HAL_Driver/Src/stm32f3xx_hal_can.c **** 
 632:Drivers/STM32F3xx_HAL_Driver/Src/stm32f3xx_hal_can.c ****       case HAL_CAN_MSPDEINIT_CB_ID :
 633:Drivers/STM32F3xx_HAL_Driver/Src/stm32f3xx_hal_can.c ****         hcan->MspDeInitCallback = pCallback;
 634:Drivers/STM32F3xx_HAL_Driver/Src/stm32f3xx_hal_can.c ****         break;
 635:Drivers/STM32F3xx_HAL_Driver/Src/stm32f3xx_hal_can.c **** 
 636:Drivers/STM32F3xx_HAL_Driver/Src/stm32f3xx_hal_can.c ****       default :
 637:Drivers/STM32F3xx_HAL_Driver/Src/stm32f3xx_hal_can.c ****         /* Update the error code */
 638:Drivers/STM32F3xx_HAL_Driver/Src/stm32f3xx_hal_can.c ****         hcan->ErrorCode |= HAL_CAN_ERROR_INVALID_CALLBACK;
 639:Drivers/STM32F3xx_HAL_Driver/Src/stm32f3xx_hal_can.c **** 
 640:Drivers/STM32F3xx_HAL_Driver/Src/stm32f3xx_hal_can.c ****         /* Return error status */
 641:Drivers/STM32F3xx_HAL_Driver/Src/stm32f3xx_hal_can.c ****         status =  HAL_ERROR;
 642:Drivers/STM32F3xx_HAL_Driver/Src/stm32f3xx_hal_can.c ****         break;
 643:Drivers/STM32F3xx_HAL_Driver/Src/stm32f3xx_hal_can.c ****     }
 644:Drivers/STM32F3xx_HAL_Driver/Src/stm32f3xx_hal_can.c ****   }
 645:Drivers/STM32F3xx_HAL_Driver/Src/stm32f3xx_hal_can.c ****   else if (hcan->State == HAL_CAN_STATE_RESET)
 646:Drivers/STM32F3xx_HAL_Driver/Src/stm32f3xx_hal_can.c ****   {
 647:Drivers/STM32F3xx_HAL_Driver/Src/stm32f3xx_hal_can.c ****     switch (CallbackID)
 648:Drivers/STM32F3xx_HAL_Driver/Src/stm32f3xx_hal_can.c ****     {
 649:Drivers/STM32F3xx_HAL_Driver/Src/stm32f3xx_hal_can.c ****       case HAL_CAN_MSPINIT_CB_ID :
 650:Drivers/STM32F3xx_HAL_Driver/Src/stm32f3xx_hal_can.c ****         hcan->MspInitCallback = pCallback;
 651:Drivers/STM32F3xx_HAL_Driver/Src/stm32f3xx_hal_can.c ****         break;
 652:Drivers/STM32F3xx_HAL_Driver/Src/stm32f3xx_hal_can.c **** 
 653:Drivers/STM32F3xx_HAL_Driver/Src/stm32f3xx_hal_can.c ****       case HAL_CAN_MSPDEINIT_CB_ID :
 654:Drivers/STM32F3xx_HAL_Driver/Src/stm32f3xx_hal_can.c ****         hcan->MspDeInitCallback = pCallback;
 655:Drivers/STM32F3xx_HAL_Driver/Src/stm32f3xx_hal_can.c ****         break;
 656:Drivers/STM32F3xx_HAL_Driver/Src/stm32f3xx_hal_can.c **** 
 657:Drivers/STM32F3xx_HAL_Driver/Src/stm32f3xx_hal_can.c ****       default :
 658:Drivers/STM32F3xx_HAL_Driver/Src/stm32f3xx_hal_can.c ****         /* Update the error code */
 659:Drivers/STM32F3xx_HAL_Driver/Src/stm32f3xx_hal_can.c ****         hcan->ErrorCode |= HAL_CAN_ERROR_INVALID_CALLBACK;
 660:Drivers/STM32F3xx_HAL_Driver/Src/stm32f3xx_hal_can.c **** 
 661:Drivers/STM32F3xx_HAL_Driver/Src/stm32f3xx_hal_can.c ****         /* Return error status */
 662:Drivers/STM32F3xx_HAL_Driver/Src/stm32f3xx_hal_can.c ****         status =  HAL_ERROR;
 663:Drivers/STM32F3xx_HAL_Driver/Src/stm32f3xx_hal_can.c ****         break;
 664:Drivers/STM32F3xx_HAL_Driver/Src/stm32f3xx_hal_can.c ****     }
 665:Drivers/STM32F3xx_HAL_Driver/Src/stm32f3xx_hal_can.c ****   }
 666:Drivers/STM32F3xx_HAL_Driver/Src/stm32f3xx_hal_can.c ****   else
 667:Drivers/STM32F3xx_HAL_Driver/Src/stm32f3xx_hal_can.c ****   {
 668:Drivers/STM32F3xx_HAL_Driver/Src/stm32f3xx_hal_can.c ****     /* Update the error code */
 669:Drivers/STM32F3xx_HAL_Driver/Src/stm32f3xx_hal_can.c ****     hcan->ErrorCode |= HAL_CAN_ERROR_INVALID_CALLBACK;
 670:Drivers/STM32F3xx_HAL_Driver/Src/stm32f3xx_hal_can.c **** 
 671:Drivers/STM32F3xx_HAL_Driver/Src/stm32f3xx_hal_can.c ****     /* Return error status */
 672:Drivers/STM32F3xx_HAL_Driver/Src/stm32f3xx_hal_can.c ****     status =  HAL_ERROR;
 673:Drivers/STM32F3xx_HAL_Driver/Src/stm32f3xx_hal_can.c ****   }
 674:Drivers/STM32F3xx_HAL_Driver/Src/stm32f3xx_hal_can.c **** 
 675:Drivers/STM32F3xx_HAL_Driver/Src/stm32f3xx_hal_can.c ****   return status;
 676:Drivers/STM32F3xx_HAL_Driver/Src/stm32f3xx_hal_can.c **** }
 677:Drivers/STM32F3xx_HAL_Driver/Src/stm32f3xx_hal_can.c **** 
 678:Drivers/STM32F3xx_HAL_Driver/Src/stm32f3xx_hal_can.c **** /**
ARM GAS  C:\msys64\tmp\cc8m32jh.s 			page 21


 679:Drivers/STM32F3xx_HAL_Driver/Src/stm32f3xx_hal_can.c ****   * @brief  Unregister a CAN CallBack.
 680:Drivers/STM32F3xx_HAL_Driver/Src/stm32f3xx_hal_can.c ****   *         CAN callback is redirected to the weak predefined callback
 681:Drivers/STM32F3xx_HAL_Driver/Src/stm32f3xx_hal_can.c ****   * @param  hcan pointer to a CAN_HandleTypeDef structure that contains
 682:Drivers/STM32F3xx_HAL_Driver/Src/stm32f3xx_hal_can.c ****   *         the configuration information for CAN module
 683:Drivers/STM32F3xx_HAL_Driver/Src/stm32f3xx_hal_can.c ****   * @param  CallbackID ID of the callback to be unregistered
 684:Drivers/STM32F3xx_HAL_Driver/Src/stm32f3xx_hal_can.c ****   *         This parameter can be one of the following values:
 685:Drivers/STM32F3xx_HAL_Driver/Src/stm32f3xx_hal_can.c ****   *           @arg @ref HAL_CAN_TX_MAILBOX0_COMPLETE_CB_ID Tx Mailbox 0 Complete callback ID
 686:Drivers/STM32F3xx_HAL_Driver/Src/stm32f3xx_hal_can.c ****   *           @arg @ref HAL_CAN_TX_MAILBOX1_COMPLETE_CB_ID Tx Mailbox 1 Complete callback ID
 687:Drivers/STM32F3xx_HAL_Driver/Src/stm32f3xx_hal_can.c ****   *           @arg @ref HAL_CAN_TX_MAILBOX2_COMPLETE_CB_ID Tx Mailbox 2 Complete callback ID
 688:Drivers/STM32F3xx_HAL_Driver/Src/stm32f3xx_hal_can.c ****   *           @arg @ref HAL_CAN_TX_MAILBOX0_ABORT_CB_ID Tx Mailbox 0 Abort callback ID
 689:Drivers/STM32F3xx_HAL_Driver/Src/stm32f3xx_hal_can.c ****   *           @arg @ref HAL_CAN_TX_MAILBOX1_ABORT_CB_ID Tx Mailbox 1 Abort callback ID
 690:Drivers/STM32F3xx_HAL_Driver/Src/stm32f3xx_hal_can.c ****   *           @arg @ref HAL_CAN_TX_MAILBOX2_ABORT_CB_ID Tx Mailbox 2 Abort callback ID
 691:Drivers/STM32F3xx_HAL_Driver/Src/stm32f3xx_hal_can.c ****   *           @arg @ref HAL_CAN_RX_FIFO0_MSG_PENDING_CB_ID Rx Fifo 0 message pending callback ID
 692:Drivers/STM32F3xx_HAL_Driver/Src/stm32f3xx_hal_can.c ****   *           @arg @ref HAL_CAN_RX_FIFO0_FULL_CB_ID Rx Fifo 0 full callback ID
 693:Drivers/STM32F3xx_HAL_Driver/Src/stm32f3xx_hal_can.c ****   *           @arg @ref HAL_CAN_RX_FIFO1_MSG_PENDING_CB_ID Rx Fifo 1 message pending callback ID
 694:Drivers/STM32F3xx_HAL_Driver/Src/stm32f3xx_hal_can.c ****   *           @arg @ref HAL_CAN_RX_FIFO1_FULL_CB_ID Rx Fifo 1 full callback ID
 695:Drivers/STM32F3xx_HAL_Driver/Src/stm32f3xx_hal_can.c ****   *           @arg @ref HAL_CAN_SLEEP_CB_ID Sleep callback ID
 696:Drivers/STM32F3xx_HAL_Driver/Src/stm32f3xx_hal_can.c ****   *           @arg @ref HAL_CAN_WAKEUP_FROM_RX_MSG_CB_ID Wake Up from Rx message callback ID
 697:Drivers/STM32F3xx_HAL_Driver/Src/stm32f3xx_hal_can.c ****   *           @arg @ref HAL_CAN_ERROR_CB_ID Error callback ID
 698:Drivers/STM32F3xx_HAL_Driver/Src/stm32f3xx_hal_can.c ****   *           @arg @ref HAL_CAN_MSPINIT_CB_ID MspInit callback ID
 699:Drivers/STM32F3xx_HAL_Driver/Src/stm32f3xx_hal_can.c ****   *           @arg @ref HAL_CAN_MSPDEINIT_CB_ID MspDeInit callback ID
 700:Drivers/STM32F3xx_HAL_Driver/Src/stm32f3xx_hal_can.c ****   * @retval HAL status
 701:Drivers/STM32F3xx_HAL_Driver/Src/stm32f3xx_hal_can.c ****   */
 702:Drivers/STM32F3xx_HAL_Driver/Src/stm32f3xx_hal_can.c **** HAL_StatusTypeDef HAL_CAN_UnRegisterCallback(CAN_HandleTypeDef *hcan, HAL_CAN_CallbackIDTypeDef Cal
 703:Drivers/STM32F3xx_HAL_Driver/Src/stm32f3xx_hal_can.c **** {
 704:Drivers/STM32F3xx_HAL_Driver/Src/stm32f3xx_hal_can.c ****   HAL_StatusTypeDef status = HAL_OK;
 705:Drivers/STM32F3xx_HAL_Driver/Src/stm32f3xx_hal_can.c **** 
 706:Drivers/STM32F3xx_HAL_Driver/Src/stm32f3xx_hal_can.c ****   if (hcan->State == HAL_CAN_STATE_READY)
 707:Drivers/STM32F3xx_HAL_Driver/Src/stm32f3xx_hal_can.c ****   {
 708:Drivers/STM32F3xx_HAL_Driver/Src/stm32f3xx_hal_can.c ****     switch (CallbackID)
 709:Drivers/STM32F3xx_HAL_Driver/Src/stm32f3xx_hal_can.c ****     {
 710:Drivers/STM32F3xx_HAL_Driver/Src/stm32f3xx_hal_can.c ****       case HAL_CAN_TX_MAILBOX0_COMPLETE_CB_ID :
 711:Drivers/STM32F3xx_HAL_Driver/Src/stm32f3xx_hal_can.c ****         hcan->TxMailbox0CompleteCallback = HAL_CAN_TxMailbox0CompleteCallback;
 712:Drivers/STM32F3xx_HAL_Driver/Src/stm32f3xx_hal_can.c ****         break;
 713:Drivers/STM32F3xx_HAL_Driver/Src/stm32f3xx_hal_can.c **** 
 714:Drivers/STM32F3xx_HAL_Driver/Src/stm32f3xx_hal_can.c ****       case HAL_CAN_TX_MAILBOX1_COMPLETE_CB_ID :
 715:Drivers/STM32F3xx_HAL_Driver/Src/stm32f3xx_hal_can.c ****         hcan->TxMailbox1CompleteCallback = HAL_CAN_TxMailbox1CompleteCallback;
 716:Drivers/STM32F3xx_HAL_Driver/Src/stm32f3xx_hal_can.c ****         break;
 717:Drivers/STM32F3xx_HAL_Driver/Src/stm32f3xx_hal_can.c **** 
 718:Drivers/STM32F3xx_HAL_Driver/Src/stm32f3xx_hal_can.c ****       case HAL_CAN_TX_MAILBOX2_COMPLETE_CB_ID :
 719:Drivers/STM32F3xx_HAL_Driver/Src/stm32f3xx_hal_can.c ****         hcan->TxMailbox2CompleteCallback = HAL_CAN_TxMailbox2CompleteCallback;
 720:Drivers/STM32F3xx_HAL_Driver/Src/stm32f3xx_hal_can.c ****         break;
 721:Drivers/STM32F3xx_HAL_Driver/Src/stm32f3xx_hal_can.c **** 
 722:Drivers/STM32F3xx_HAL_Driver/Src/stm32f3xx_hal_can.c ****       case HAL_CAN_TX_MAILBOX0_ABORT_CB_ID :
 723:Drivers/STM32F3xx_HAL_Driver/Src/stm32f3xx_hal_can.c ****         hcan->TxMailbox0AbortCallback = HAL_CAN_TxMailbox0AbortCallback;
 724:Drivers/STM32F3xx_HAL_Driver/Src/stm32f3xx_hal_can.c ****         break;
 725:Drivers/STM32F3xx_HAL_Driver/Src/stm32f3xx_hal_can.c **** 
 726:Drivers/STM32F3xx_HAL_Driver/Src/stm32f3xx_hal_can.c ****       case HAL_CAN_TX_MAILBOX1_ABORT_CB_ID :
 727:Drivers/STM32F3xx_HAL_Driver/Src/stm32f3xx_hal_can.c ****         hcan->TxMailbox1AbortCallback = HAL_CAN_TxMailbox1AbortCallback;
 728:Drivers/STM32F3xx_HAL_Driver/Src/stm32f3xx_hal_can.c ****         break;
 729:Drivers/STM32F3xx_HAL_Driver/Src/stm32f3xx_hal_can.c **** 
 730:Drivers/STM32F3xx_HAL_Driver/Src/stm32f3xx_hal_can.c ****       case HAL_CAN_TX_MAILBOX2_ABORT_CB_ID :
 731:Drivers/STM32F3xx_HAL_Driver/Src/stm32f3xx_hal_can.c ****         hcan->TxMailbox2AbortCallback = HAL_CAN_TxMailbox2AbortCallback;
 732:Drivers/STM32F3xx_HAL_Driver/Src/stm32f3xx_hal_can.c ****         break;
 733:Drivers/STM32F3xx_HAL_Driver/Src/stm32f3xx_hal_can.c **** 
 734:Drivers/STM32F3xx_HAL_Driver/Src/stm32f3xx_hal_can.c ****       case HAL_CAN_RX_FIFO0_MSG_PENDING_CB_ID :
 735:Drivers/STM32F3xx_HAL_Driver/Src/stm32f3xx_hal_can.c ****         hcan->RxFifo0MsgPendingCallback = HAL_CAN_RxFifo0MsgPendingCallback;
ARM GAS  C:\msys64\tmp\cc8m32jh.s 			page 22


 736:Drivers/STM32F3xx_HAL_Driver/Src/stm32f3xx_hal_can.c ****         break;
 737:Drivers/STM32F3xx_HAL_Driver/Src/stm32f3xx_hal_can.c **** 
 738:Drivers/STM32F3xx_HAL_Driver/Src/stm32f3xx_hal_can.c ****       case HAL_CAN_RX_FIFO0_FULL_CB_ID :
 739:Drivers/STM32F3xx_HAL_Driver/Src/stm32f3xx_hal_can.c ****         hcan->RxFifo0FullCallback = HAL_CAN_RxFifo0FullCallback;
 740:Drivers/STM32F3xx_HAL_Driver/Src/stm32f3xx_hal_can.c ****         break;
 741:Drivers/STM32F3xx_HAL_Driver/Src/stm32f3xx_hal_can.c **** 
 742:Drivers/STM32F3xx_HAL_Driver/Src/stm32f3xx_hal_can.c ****       case HAL_CAN_RX_FIFO1_MSG_PENDING_CB_ID :
 743:Drivers/STM32F3xx_HAL_Driver/Src/stm32f3xx_hal_can.c ****         hcan->RxFifo1MsgPendingCallback = HAL_CAN_RxFifo1MsgPendingCallback;
 744:Drivers/STM32F3xx_HAL_Driver/Src/stm32f3xx_hal_can.c ****         break;
 745:Drivers/STM32F3xx_HAL_Driver/Src/stm32f3xx_hal_can.c **** 
 746:Drivers/STM32F3xx_HAL_Driver/Src/stm32f3xx_hal_can.c ****       case HAL_CAN_RX_FIFO1_FULL_CB_ID :
 747:Drivers/STM32F3xx_HAL_Driver/Src/stm32f3xx_hal_can.c ****         hcan->RxFifo1FullCallback = HAL_CAN_RxFifo1FullCallback;
 748:Drivers/STM32F3xx_HAL_Driver/Src/stm32f3xx_hal_can.c ****         break;
 749:Drivers/STM32F3xx_HAL_Driver/Src/stm32f3xx_hal_can.c **** 
 750:Drivers/STM32F3xx_HAL_Driver/Src/stm32f3xx_hal_can.c ****       case HAL_CAN_SLEEP_CB_ID :
 751:Drivers/STM32F3xx_HAL_Driver/Src/stm32f3xx_hal_can.c ****         hcan->SleepCallback = HAL_CAN_SleepCallback;
 752:Drivers/STM32F3xx_HAL_Driver/Src/stm32f3xx_hal_can.c ****         break;
 753:Drivers/STM32F3xx_HAL_Driver/Src/stm32f3xx_hal_can.c **** 
 754:Drivers/STM32F3xx_HAL_Driver/Src/stm32f3xx_hal_can.c ****       case HAL_CAN_WAKEUP_FROM_RX_MSG_CB_ID :
 755:Drivers/STM32F3xx_HAL_Driver/Src/stm32f3xx_hal_can.c ****         hcan->WakeUpFromRxMsgCallback = HAL_CAN_WakeUpFromRxMsgCallback;
 756:Drivers/STM32F3xx_HAL_Driver/Src/stm32f3xx_hal_can.c ****         break;
 757:Drivers/STM32F3xx_HAL_Driver/Src/stm32f3xx_hal_can.c **** 
 758:Drivers/STM32F3xx_HAL_Driver/Src/stm32f3xx_hal_can.c ****       case HAL_CAN_ERROR_CB_ID :
 759:Drivers/STM32F3xx_HAL_Driver/Src/stm32f3xx_hal_can.c ****         hcan->ErrorCallback = HAL_CAN_ErrorCallback;
 760:Drivers/STM32F3xx_HAL_Driver/Src/stm32f3xx_hal_can.c ****         break;
 761:Drivers/STM32F3xx_HAL_Driver/Src/stm32f3xx_hal_can.c **** 
 762:Drivers/STM32F3xx_HAL_Driver/Src/stm32f3xx_hal_can.c ****       case HAL_CAN_MSPINIT_CB_ID :
 763:Drivers/STM32F3xx_HAL_Driver/Src/stm32f3xx_hal_can.c ****         hcan->MspInitCallback = HAL_CAN_MspInit;
 764:Drivers/STM32F3xx_HAL_Driver/Src/stm32f3xx_hal_can.c ****         break;
 765:Drivers/STM32F3xx_HAL_Driver/Src/stm32f3xx_hal_can.c **** 
 766:Drivers/STM32F3xx_HAL_Driver/Src/stm32f3xx_hal_can.c ****       case HAL_CAN_MSPDEINIT_CB_ID :
 767:Drivers/STM32F3xx_HAL_Driver/Src/stm32f3xx_hal_can.c ****         hcan->MspDeInitCallback = HAL_CAN_MspDeInit;
 768:Drivers/STM32F3xx_HAL_Driver/Src/stm32f3xx_hal_can.c ****         break;
 769:Drivers/STM32F3xx_HAL_Driver/Src/stm32f3xx_hal_can.c **** 
 770:Drivers/STM32F3xx_HAL_Driver/Src/stm32f3xx_hal_can.c ****       default :
 771:Drivers/STM32F3xx_HAL_Driver/Src/stm32f3xx_hal_can.c ****         /* Update the error code */
 772:Drivers/STM32F3xx_HAL_Driver/Src/stm32f3xx_hal_can.c ****         hcan->ErrorCode |= HAL_CAN_ERROR_INVALID_CALLBACK;
 773:Drivers/STM32F3xx_HAL_Driver/Src/stm32f3xx_hal_can.c **** 
 774:Drivers/STM32F3xx_HAL_Driver/Src/stm32f3xx_hal_can.c ****         /* Return error status */
 775:Drivers/STM32F3xx_HAL_Driver/Src/stm32f3xx_hal_can.c ****         status =  HAL_ERROR;
 776:Drivers/STM32F3xx_HAL_Driver/Src/stm32f3xx_hal_can.c ****         break;
 777:Drivers/STM32F3xx_HAL_Driver/Src/stm32f3xx_hal_can.c ****     }
 778:Drivers/STM32F3xx_HAL_Driver/Src/stm32f3xx_hal_can.c ****   }
 779:Drivers/STM32F3xx_HAL_Driver/Src/stm32f3xx_hal_can.c ****   else if (hcan->State == HAL_CAN_STATE_RESET)
 780:Drivers/STM32F3xx_HAL_Driver/Src/stm32f3xx_hal_can.c ****   {
 781:Drivers/STM32F3xx_HAL_Driver/Src/stm32f3xx_hal_can.c ****     switch (CallbackID)
 782:Drivers/STM32F3xx_HAL_Driver/Src/stm32f3xx_hal_can.c ****     {
 783:Drivers/STM32F3xx_HAL_Driver/Src/stm32f3xx_hal_can.c ****       case HAL_CAN_MSPINIT_CB_ID :
 784:Drivers/STM32F3xx_HAL_Driver/Src/stm32f3xx_hal_can.c ****         hcan->MspInitCallback = HAL_CAN_MspInit;
 785:Drivers/STM32F3xx_HAL_Driver/Src/stm32f3xx_hal_can.c ****         break;
 786:Drivers/STM32F3xx_HAL_Driver/Src/stm32f3xx_hal_can.c **** 
 787:Drivers/STM32F3xx_HAL_Driver/Src/stm32f3xx_hal_can.c ****       case HAL_CAN_MSPDEINIT_CB_ID :
 788:Drivers/STM32F3xx_HAL_Driver/Src/stm32f3xx_hal_can.c ****         hcan->MspDeInitCallback = HAL_CAN_MspDeInit;
 789:Drivers/STM32F3xx_HAL_Driver/Src/stm32f3xx_hal_can.c ****         break;
 790:Drivers/STM32F3xx_HAL_Driver/Src/stm32f3xx_hal_can.c **** 
 791:Drivers/STM32F3xx_HAL_Driver/Src/stm32f3xx_hal_can.c ****       default :
 792:Drivers/STM32F3xx_HAL_Driver/Src/stm32f3xx_hal_can.c ****         /* Update the error code */
ARM GAS  C:\msys64\tmp\cc8m32jh.s 			page 23


 793:Drivers/STM32F3xx_HAL_Driver/Src/stm32f3xx_hal_can.c ****         hcan->ErrorCode |= HAL_CAN_ERROR_INVALID_CALLBACK;
 794:Drivers/STM32F3xx_HAL_Driver/Src/stm32f3xx_hal_can.c **** 
 795:Drivers/STM32F3xx_HAL_Driver/Src/stm32f3xx_hal_can.c ****         /* Return error status */
 796:Drivers/STM32F3xx_HAL_Driver/Src/stm32f3xx_hal_can.c ****         status =  HAL_ERROR;
 797:Drivers/STM32F3xx_HAL_Driver/Src/stm32f3xx_hal_can.c ****         break;
 798:Drivers/STM32F3xx_HAL_Driver/Src/stm32f3xx_hal_can.c ****     }
 799:Drivers/STM32F3xx_HAL_Driver/Src/stm32f3xx_hal_can.c ****   }
 800:Drivers/STM32F3xx_HAL_Driver/Src/stm32f3xx_hal_can.c ****   else
 801:Drivers/STM32F3xx_HAL_Driver/Src/stm32f3xx_hal_can.c ****   {
 802:Drivers/STM32F3xx_HAL_Driver/Src/stm32f3xx_hal_can.c ****     /* Update the error code */
 803:Drivers/STM32F3xx_HAL_Driver/Src/stm32f3xx_hal_can.c ****     hcan->ErrorCode |= HAL_CAN_ERROR_INVALID_CALLBACK;
 804:Drivers/STM32F3xx_HAL_Driver/Src/stm32f3xx_hal_can.c **** 
 805:Drivers/STM32F3xx_HAL_Driver/Src/stm32f3xx_hal_can.c ****     /* Return error status */
 806:Drivers/STM32F3xx_HAL_Driver/Src/stm32f3xx_hal_can.c ****     status =  HAL_ERROR;
 807:Drivers/STM32F3xx_HAL_Driver/Src/stm32f3xx_hal_can.c ****   }
 808:Drivers/STM32F3xx_HAL_Driver/Src/stm32f3xx_hal_can.c **** 
 809:Drivers/STM32F3xx_HAL_Driver/Src/stm32f3xx_hal_can.c ****   return status;
 810:Drivers/STM32F3xx_HAL_Driver/Src/stm32f3xx_hal_can.c **** }
 811:Drivers/STM32F3xx_HAL_Driver/Src/stm32f3xx_hal_can.c **** #endif /* USE_HAL_CAN_REGISTER_CALLBACKS */
 812:Drivers/STM32F3xx_HAL_Driver/Src/stm32f3xx_hal_can.c **** 
 813:Drivers/STM32F3xx_HAL_Driver/Src/stm32f3xx_hal_can.c **** /**
 814:Drivers/STM32F3xx_HAL_Driver/Src/stm32f3xx_hal_can.c ****   * @}
 815:Drivers/STM32F3xx_HAL_Driver/Src/stm32f3xx_hal_can.c ****   */
 816:Drivers/STM32F3xx_HAL_Driver/Src/stm32f3xx_hal_can.c **** 
 817:Drivers/STM32F3xx_HAL_Driver/Src/stm32f3xx_hal_can.c **** /** @defgroup CAN_Exported_Functions_Group2 Configuration functions
 818:Drivers/STM32F3xx_HAL_Driver/Src/stm32f3xx_hal_can.c ****   * @brief    Configuration functions.
 819:Drivers/STM32F3xx_HAL_Driver/Src/stm32f3xx_hal_can.c ****   *
 820:Drivers/STM32F3xx_HAL_Driver/Src/stm32f3xx_hal_can.c **** @verbatim
 821:Drivers/STM32F3xx_HAL_Driver/Src/stm32f3xx_hal_can.c ****   ==============================================================================
 822:Drivers/STM32F3xx_HAL_Driver/Src/stm32f3xx_hal_can.c ****               ##### Configuration functions #####
 823:Drivers/STM32F3xx_HAL_Driver/Src/stm32f3xx_hal_can.c ****   ==============================================================================
 824:Drivers/STM32F3xx_HAL_Driver/Src/stm32f3xx_hal_can.c ****     [..]  This section provides functions allowing to:
 825:Drivers/STM32F3xx_HAL_Driver/Src/stm32f3xx_hal_can.c ****       (+) HAL_CAN_ConfigFilter            : Configure the CAN reception filters
 826:Drivers/STM32F3xx_HAL_Driver/Src/stm32f3xx_hal_can.c **** 
 827:Drivers/STM32F3xx_HAL_Driver/Src/stm32f3xx_hal_can.c **** @endverbatim
 828:Drivers/STM32F3xx_HAL_Driver/Src/stm32f3xx_hal_can.c ****   * @{
 829:Drivers/STM32F3xx_HAL_Driver/Src/stm32f3xx_hal_can.c ****   */
 830:Drivers/STM32F3xx_HAL_Driver/Src/stm32f3xx_hal_can.c **** 
 831:Drivers/STM32F3xx_HAL_Driver/Src/stm32f3xx_hal_can.c **** /**
 832:Drivers/STM32F3xx_HAL_Driver/Src/stm32f3xx_hal_can.c ****   * @brief  Configures the CAN reception filter according to the specified
 833:Drivers/STM32F3xx_HAL_Driver/Src/stm32f3xx_hal_can.c ****   *         parameters in the CAN_FilterInitStruct.
 834:Drivers/STM32F3xx_HAL_Driver/Src/stm32f3xx_hal_can.c ****   * @param  hcan pointer to a CAN_HandleTypeDef structure that contains
 835:Drivers/STM32F3xx_HAL_Driver/Src/stm32f3xx_hal_can.c ****   *         the configuration information for the specified CAN.
 836:Drivers/STM32F3xx_HAL_Driver/Src/stm32f3xx_hal_can.c ****   * @param  sFilterConfig pointer to a CAN_FilterTypeDef structure that
 837:Drivers/STM32F3xx_HAL_Driver/Src/stm32f3xx_hal_can.c ****   *         contains the filter configuration information.
 838:Drivers/STM32F3xx_HAL_Driver/Src/stm32f3xx_hal_can.c ****   * @retval None
 839:Drivers/STM32F3xx_HAL_Driver/Src/stm32f3xx_hal_can.c ****   */
 840:Drivers/STM32F3xx_HAL_Driver/Src/stm32f3xx_hal_can.c **** HAL_StatusTypeDef HAL_CAN_ConfigFilter(CAN_HandleTypeDef *hcan, const CAN_FilterTypeDef *sFilterCon
 841:Drivers/STM32F3xx_HAL_Driver/Src/stm32f3xx_hal_can.c **** {
 370              		.loc 1 841 1 is_stmt 1 view -0
 371              		.cfi_startproc
 372              		@ args = 0, pretend = 0, frame = 0
 373              		@ frame_needed = 0, uses_anonymous_args = 0
 374              		@ link register save eliminated.
 842:Drivers/STM32F3xx_HAL_Driver/Src/stm32f3xx_hal_can.c ****   uint32_t filternbrbitpos;
 375              		.loc 1 842 3 view .LVU107
 843:Drivers/STM32F3xx_HAL_Driver/Src/stm32f3xx_hal_can.c ****   CAN_TypeDef *can_ip = hcan->Instance;
ARM GAS  C:\msys64\tmp\cc8m32jh.s 			page 24


 376              		.loc 1 843 3 view .LVU108
 377              		.loc 1 843 16 is_stmt 0 view .LVU109
 378 0000 0268     		ldr	r2, [r0]
 379              	.LVL16:
 844:Drivers/STM32F3xx_HAL_Driver/Src/stm32f3xx_hal_can.c ****   HAL_CAN_StateTypeDef state = hcan->State;
 380              		.loc 1 844 3 is_stmt 1 view .LVU110
 381              		.loc 1 844 24 is_stmt 0 view .LVU111
 382 0002 90F82030 		ldrb	r3, [r0, #32]	@ zero_extendqisi2
 383              	.LVL17:
 845:Drivers/STM32F3xx_HAL_Driver/Src/stm32f3xx_hal_can.c **** 
 846:Drivers/STM32F3xx_HAL_Driver/Src/stm32f3xx_hal_can.c ****   if ((state == HAL_CAN_STATE_READY) ||
 384              		.loc 1 846 3 is_stmt 1 view .LVU112
 385              		.loc 1 846 38 is_stmt 0 view .LVU113
 386 0006 013B     		subs	r3, r3, #1
 387              	.LVL18:
 388              		.loc 1 846 38 view .LVU114
 389 0008 DBB2     		uxtb	r3, r3
 390              	.LVL19:
 391              		.loc 1 846 6 view .LVU115
 392 000a 012B     		cmp	r3, #1
 393 000c 05D9     		bls	.L50
 847:Drivers/STM32F3xx_HAL_Driver/Src/stm32f3xx_hal_can.c ****       (state == HAL_CAN_STATE_LISTENING))
 848:Drivers/STM32F3xx_HAL_Driver/Src/stm32f3xx_hal_can.c ****   {
 849:Drivers/STM32F3xx_HAL_Driver/Src/stm32f3xx_hal_can.c ****     /* Check the parameters */
 850:Drivers/STM32F3xx_HAL_Driver/Src/stm32f3xx_hal_can.c ****     assert_param(IS_CAN_FILTER_ID_HALFWORD(sFilterConfig->FilterIdHigh));
 851:Drivers/STM32F3xx_HAL_Driver/Src/stm32f3xx_hal_can.c ****     assert_param(IS_CAN_FILTER_ID_HALFWORD(sFilterConfig->FilterIdLow));
 852:Drivers/STM32F3xx_HAL_Driver/Src/stm32f3xx_hal_can.c ****     assert_param(IS_CAN_FILTER_ID_HALFWORD(sFilterConfig->FilterMaskIdHigh));
 853:Drivers/STM32F3xx_HAL_Driver/Src/stm32f3xx_hal_can.c ****     assert_param(IS_CAN_FILTER_ID_HALFWORD(sFilterConfig->FilterMaskIdLow));
 854:Drivers/STM32F3xx_HAL_Driver/Src/stm32f3xx_hal_can.c ****     assert_param(IS_CAN_FILTER_MODE(sFilterConfig->FilterMode));
 855:Drivers/STM32F3xx_HAL_Driver/Src/stm32f3xx_hal_can.c ****     assert_param(IS_CAN_FILTER_SCALE(sFilterConfig->FilterScale));
 856:Drivers/STM32F3xx_HAL_Driver/Src/stm32f3xx_hal_can.c ****     assert_param(IS_CAN_FILTER_FIFO(sFilterConfig->FilterFIFOAssignment));
 857:Drivers/STM32F3xx_HAL_Driver/Src/stm32f3xx_hal_can.c ****     assert_param(IS_CAN_FILTER_ACTIVATION(sFilterConfig->FilterActivation));
 858:Drivers/STM32F3xx_HAL_Driver/Src/stm32f3xx_hal_can.c **** 
 859:Drivers/STM32F3xx_HAL_Driver/Src/stm32f3xx_hal_can.c ****     /* CAN is single instance with 14 dedicated filters banks */
 860:Drivers/STM32F3xx_HAL_Driver/Src/stm32f3xx_hal_can.c **** 
 861:Drivers/STM32F3xx_HAL_Driver/Src/stm32f3xx_hal_can.c ****     /* Check the parameters */
 862:Drivers/STM32F3xx_HAL_Driver/Src/stm32f3xx_hal_can.c ****     assert_param(IS_CAN_FILTER_BANK_SINGLE(sFilterConfig->FilterBank));
 863:Drivers/STM32F3xx_HAL_Driver/Src/stm32f3xx_hal_can.c **** 
 864:Drivers/STM32F3xx_HAL_Driver/Src/stm32f3xx_hal_can.c ****     /* Initialisation mode for the filter */
 865:Drivers/STM32F3xx_HAL_Driver/Src/stm32f3xx_hal_can.c ****     SET_BIT(can_ip->FMR, CAN_FMR_FINIT);
 866:Drivers/STM32F3xx_HAL_Driver/Src/stm32f3xx_hal_can.c **** 
 867:Drivers/STM32F3xx_HAL_Driver/Src/stm32f3xx_hal_can.c ****     /* Convert filter number into bit position */
 868:Drivers/STM32F3xx_HAL_Driver/Src/stm32f3xx_hal_can.c ****     filternbrbitpos = (uint32_t)1 << (sFilterConfig->FilterBank & 0x1FU);
 869:Drivers/STM32F3xx_HAL_Driver/Src/stm32f3xx_hal_can.c **** 
 870:Drivers/STM32F3xx_HAL_Driver/Src/stm32f3xx_hal_can.c ****     /* Filter Deactivation */
 871:Drivers/STM32F3xx_HAL_Driver/Src/stm32f3xx_hal_can.c ****     CLEAR_BIT(can_ip->FA1R, filternbrbitpos);
 872:Drivers/STM32F3xx_HAL_Driver/Src/stm32f3xx_hal_can.c **** 
 873:Drivers/STM32F3xx_HAL_Driver/Src/stm32f3xx_hal_can.c ****     /* Filter Scale */
 874:Drivers/STM32F3xx_HAL_Driver/Src/stm32f3xx_hal_can.c ****     if (sFilterConfig->FilterScale == CAN_FILTERSCALE_16BIT)
 875:Drivers/STM32F3xx_HAL_Driver/Src/stm32f3xx_hal_can.c ****     {
 876:Drivers/STM32F3xx_HAL_Driver/Src/stm32f3xx_hal_can.c ****       /* 16-bit scale for the filter */
 877:Drivers/STM32F3xx_HAL_Driver/Src/stm32f3xx_hal_can.c ****       CLEAR_BIT(can_ip->FS1R, filternbrbitpos);
 878:Drivers/STM32F3xx_HAL_Driver/Src/stm32f3xx_hal_can.c **** 
 879:Drivers/STM32F3xx_HAL_Driver/Src/stm32f3xx_hal_can.c ****       /* First 16-bit identifier and First 16-bit mask */
 880:Drivers/STM32F3xx_HAL_Driver/Src/stm32f3xx_hal_can.c ****       /* Or First 16-bit identifier and Second 16-bit identifier */
 881:Drivers/STM32F3xx_HAL_Driver/Src/stm32f3xx_hal_can.c ****       can_ip->sFilterRegister[sFilterConfig->FilterBank].FR1 =
 882:Drivers/STM32F3xx_HAL_Driver/Src/stm32f3xx_hal_can.c ****         ((0x0000FFFFU & (uint32_t)sFilterConfig->FilterMaskIdLow) << 16U) |
ARM GAS  C:\msys64\tmp\cc8m32jh.s 			page 25


 883:Drivers/STM32F3xx_HAL_Driver/Src/stm32f3xx_hal_can.c ****         (0x0000FFFFU & (uint32_t)sFilterConfig->FilterIdLow);
 884:Drivers/STM32F3xx_HAL_Driver/Src/stm32f3xx_hal_can.c **** 
 885:Drivers/STM32F3xx_HAL_Driver/Src/stm32f3xx_hal_can.c ****       /* Second 16-bit identifier and Second 16-bit mask */
 886:Drivers/STM32F3xx_HAL_Driver/Src/stm32f3xx_hal_can.c ****       /* Or Third 16-bit identifier and Fourth 16-bit identifier */
 887:Drivers/STM32F3xx_HAL_Driver/Src/stm32f3xx_hal_can.c ****       can_ip->sFilterRegister[sFilterConfig->FilterBank].FR2 =
 888:Drivers/STM32F3xx_HAL_Driver/Src/stm32f3xx_hal_can.c ****         ((0x0000FFFFU & (uint32_t)sFilterConfig->FilterMaskIdHigh) << 16U) |
 889:Drivers/STM32F3xx_HAL_Driver/Src/stm32f3xx_hal_can.c ****         (0x0000FFFFU & (uint32_t)sFilterConfig->FilterIdHigh);
 890:Drivers/STM32F3xx_HAL_Driver/Src/stm32f3xx_hal_can.c ****     }
 891:Drivers/STM32F3xx_HAL_Driver/Src/stm32f3xx_hal_can.c **** 
 892:Drivers/STM32F3xx_HAL_Driver/Src/stm32f3xx_hal_can.c ****     if (sFilterConfig->FilterScale == CAN_FILTERSCALE_32BIT)
 893:Drivers/STM32F3xx_HAL_Driver/Src/stm32f3xx_hal_can.c ****     {
 894:Drivers/STM32F3xx_HAL_Driver/Src/stm32f3xx_hal_can.c ****       /* 32-bit scale for the filter */
 895:Drivers/STM32F3xx_HAL_Driver/Src/stm32f3xx_hal_can.c ****       SET_BIT(can_ip->FS1R, filternbrbitpos);
 896:Drivers/STM32F3xx_HAL_Driver/Src/stm32f3xx_hal_can.c **** 
 897:Drivers/STM32F3xx_HAL_Driver/Src/stm32f3xx_hal_can.c ****       /* 32-bit identifier or First 32-bit identifier */
 898:Drivers/STM32F3xx_HAL_Driver/Src/stm32f3xx_hal_can.c ****       can_ip->sFilterRegister[sFilterConfig->FilterBank].FR1 =
 899:Drivers/STM32F3xx_HAL_Driver/Src/stm32f3xx_hal_can.c ****         ((0x0000FFFFU & (uint32_t)sFilterConfig->FilterIdHigh) << 16U) |
 900:Drivers/STM32F3xx_HAL_Driver/Src/stm32f3xx_hal_can.c ****         (0x0000FFFFU & (uint32_t)sFilterConfig->FilterIdLow);
 901:Drivers/STM32F3xx_HAL_Driver/Src/stm32f3xx_hal_can.c **** 
 902:Drivers/STM32F3xx_HAL_Driver/Src/stm32f3xx_hal_can.c ****       /* 32-bit mask or Second 32-bit identifier */
 903:Drivers/STM32F3xx_HAL_Driver/Src/stm32f3xx_hal_can.c ****       can_ip->sFilterRegister[sFilterConfig->FilterBank].FR2 =
 904:Drivers/STM32F3xx_HAL_Driver/Src/stm32f3xx_hal_can.c ****         ((0x0000FFFFU & (uint32_t)sFilterConfig->FilterMaskIdHigh) << 16U) |
 905:Drivers/STM32F3xx_HAL_Driver/Src/stm32f3xx_hal_can.c ****         (0x0000FFFFU & (uint32_t)sFilterConfig->FilterMaskIdLow);
 906:Drivers/STM32F3xx_HAL_Driver/Src/stm32f3xx_hal_can.c ****     }
 907:Drivers/STM32F3xx_HAL_Driver/Src/stm32f3xx_hal_can.c **** 
 908:Drivers/STM32F3xx_HAL_Driver/Src/stm32f3xx_hal_can.c ****     /* Filter Mode */
 909:Drivers/STM32F3xx_HAL_Driver/Src/stm32f3xx_hal_can.c ****     if (sFilterConfig->FilterMode == CAN_FILTERMODE_IDMASK)
 910:Drivers/STM32F3xx_HAL_Driver/Src/stm32f3xx_hal_can.c ****     {
 911:Drivers/STM32F3xx_HAL_Driver/Src/stm32f3xx_hal_can.c ****       /* Id/Mask mode for the filter*/
 912:Drivers/STM32F3xx_HAL_Driver/Src/stm32f3xx_hal_can.c ****       CLEAR_BIT(can_ip->FM1R, filternbrbitpos);
 913:Drivers/STM32F3xx_HAL_Driver/Src/stm32f3xx_hal_can.c ****     }
 914:Drivers/STM32F3xx_HAL_Driver/Src/stm32f3xx_hal_can.c ****     else /* CAN_FilterInitStruct->CAN_FilterMode == CAN_FilterMode_IdList */
 915:Drivers/STM32F3xx_HAL_Driver/Src/stm32f3xx_hal_can.c ****     {
 916:Drivers/STM32F3xx_HAL_Driver/Src/stm32f3xx_hal_can.c ****       /* Identifier list mode for the filter*/
 917:Drivers/STM32F3xx_HAL_Driver/Src/stm32f3xx_hal_can.c ****       SET_BIT(can_ip->FM1R, filternbrbitpos);
 918:Drivers/STM32F3xx_HAL_Driver/Src/stm32f3xx_hal_can.c ****     }
 919:Drivers/STM32F3xx_HAL_Driver/Src/stm32f3xx_hal_can.c **** 
 920:Drivers/STM32F3xx_HAL_Driver/Src/stm32f3xx_hal_can.c ****     /* Filter FIFO assignment */
 921:Drivers/STM32F3xx_HAL_Driver/Src/stm32f3xx_hal_can.c ****     if (sFilterConfig->FilterFIFOAssignment == CAN_FILTER_FIFO0)
 922:Drivers/STM32F3xx_HAL_Driver/Src/stm32f3xx_hal_can.c ****     {
 923:Drivers/STM32F3xx_HAL_Driver/Src/stm32f3xx_hal_can.c ****       /* FIFO 0 assignation for the filter */
 924:Drivers/STM32F3xx_HAL_Driver/Src/stm32f3xx_hal_can.c ****       CLEAR_BIT(can_ip->FFA1R, filternbrbitpos);
 925:Drivers/STM32F3xx_HAL_Driver/Src/stm32f3xx_hal_can.c ****     }
 926:Drivers/STM32F3xx_HAL_Driver/Src/stm32f3xx_hal_can.c ****     else
 927:Drivers/STM32F3xx_HAL_Driver/Src/stm32f3xx_hal_can.c ****     {
 928:Drivers/STM32F3xx_HAL_Driver/Src/stm32f3xx_hal_can.c ****       /* FIFO 1 assignation for the filter */
 929:Drivers/STM32F3xx_HAL_Driver/Src/stm32f3xx_hal_can.c ****       SET_BIT(can_ip->FFA1R, filternbrbitpos);
 930:Drivers/STM32F3xx_HAL_Driver/Src/stm32f3xx_hal_can.c ****     }
 931:Drivers/STM32F3xx_HAL_Driver/Src/stm32f3xx_hal_can.c **** 
 932:Drivers/STM32F3xx_HAL_Driver/Src/stm32f3xx_hal_can.c ****     /* Filter activation */
 933:Drivers/STM32F3xx_HAL_Driver/Src/stm32f3xx_hal_can.c ****     if (sFilterConfig->FilterActivation == CAN_FILTER_ENABLE)
 934:Drivers/STM32F3xx_HAL_Driver/Src/stm32f3xx_hal_can.c ****     {
 935:Drivers/STM32F3xx_HAL_Driver/Src/stm32f3xx_hal_can.c ****       SET_BIT(can_ip->FA1R, filternbrbitpos);
 936:Drivers/STM32F3xx_HAL_Driver/Src/stm32f3xx_hal_can.c ****     }
 937:Drivers/STM32F3xx_HAL_Driver/Src/stm32f3xx_hal_can.c **** 
 938:Drivers/STM32F3xx_HAL_Driver/Src/stm32f3xx_hal_can.c ****     /* Leave the initialisation mode for the filter */
 939:Drivers/STM32F3xx_HAL_Driver/Src/stm32f3xx_hal_can.c ****     CLEAR_BIT(can_ip->FMR, CAN_FMR_FINIT);
ARM GAS  C:\msys64\tmp\cc8m32jh.s 			page 26


 940:Drivers/STM32F3xx_HAL_Driver/Src/stm32f3xx_hal_can.c **** 
 941:Drivers/STM32F3xx_HAL_Driver/Src/stm32f3xx_hal_can.c ****     /* Return function status */
 942:Drivers/STM32F3xx_HAL_Driver/Src/stm32f3xx_hal_can.c ****     return HAL_OK;
 943:Drivers/STM32F3xx_HAL_Driver/Src/stm32f3xx_hal_can.c ****   }
 944:Drivers/STM32F3xx_HAL_Driver/Src/stm32f3xx_hal_can.c ****   else
 945:Drivers/STM32F3xx_HAL_Driver/Src/stm32f3xx_hal_can.c ****   {
 946:Drivers/STM32F3xx_HAL_Driver/Src/stm32f3xx_hal_can.c ****     /* Update error code */
 947:Drivers/STM32F3xx_HAL_Driver/Src/stm32f3xx_hal_can.c ****     hcan->ErrorCode |= HAL_CAN_ERROR_NOT_INITIALIZED;
 394              		.loc 1 947 5 is_stmt 1 view .LVU116
 395              		.loc 1 947 9 is_stmt 0 view .LVU117
 396 000e 436A     		ldr	r3, [r0, #36]
 397              		.loc 1 947 21 view .LVU118
 398 0010 43F48023 		orr	r3, r3, #262144
 399 0014 4362     		str	r3, [r0, #36]
 948:Drivers/STM32F3xx_HAL_Driver/Src/stm32f3xx_hal_can.c **** 
 949:Drivers/STM32F3xx_HAL_Driver/Src/stm32f3xx_hal_can.c ****     return HAL_ERROR;
 400              		.loc 1 949 5 is_stmt 1 view .LVU119
 401              		.loc 1 949 12 is_stmt 0 view .LVU120
 402 0016 0120     		movs	r0, #1
 403              	.LVL20:
 950:Drivers/STM32F3xx_HAL_Driver/Src/stm32f3xx_hal_can.c ****   }
 951:Drivers/STM32F3xx_HAL_Driver/Src/stm32f3xx_hal_can.c **** }
 404              		.loc 1 951 1 view .LVU121
 405 0018 7047     		bx	lr
 406              	.LVL21:
 407              	.L50:
 841:Drivers/STM32F3xx_HAL_Driver/Src/stm32f3xx_hal_can.c ****   uint32_t filternbrbitpos;
 408              		.loc 1 841 1 view .LVU122
 409 001a 30B4     		push	{r4, r5}
 410              	.LCFI2:
 411              		.cfi_def_cfa_offset 8
 412              		.cfi_offset 4, -8
 413              		.cfi_offset 5, -4
 850:Drivers/STM32F3xx_HAL_Driver/Src/stm32f3xx_hal_can.c ****     assert_param(IS_CAN_FILTER_ID_HALFWORD(sFilterConfig->FilterIdLow));
 414              		.loc 1 850 5 is_stmt 1 view .LVU123
 851:Drivers/STM32F3xx_HAL_Driver/Src/stm32f3xx_hal_can.c ****     assert_param(IS_CAN_FILTER_ID_HALFWORD(sFilterConfig->FilterMaskIdHigh));
 415              		.loc 1 851 5 view .LVU124
 852:Drivers/STM32F3xx_HAL_Driver/Src/stm32f3xx_hal_can.c ****     assert_param(IS_CAN_FILTER_ID_HALFWORD(sFilterConfig->FilterMaskIdLow));
 416              		.loc 1 852 5 view .LVU125
 853:Drivers/STM32F3xx_HAL_Driver/Src/stm32f3xx_hal_can.c ****     assert_param(IS_CAN_FILTER_MODE(sFilterConfig->FilterMode));
 417              		.loc 1 853 5 view .LVU126
 854:Drivers/STM32F3xx_HAL_Driver/Src/stm32f3xx_hal_can.c ****     assert_param(IS_CAN_FILTER_SCALE(sFilterConfig->FilterScale));
 418              		.loc 1 854 5 view .LVU127
 855:Drivers/STM32F3xx_HAL_Driver/Src/stm32f3xx_hal_can.c ****     assert_param(IS_CAN_FILTER_FIFO(sFilterConfig->FilterFIFOAssignment));
 419              		.loc 1 855 5 view .LVU128
 856:Drivers/STM32F3xx_HAL_Driver/Src/stm32f3xx_hal_can.c ****     assert_param(IS_CAN_FILTER_ACTIVATION(sFilterConfig->FilterActivation));
 420              		.loc 1 856 5 view .LVU129
 857:Drivers/STM32F3xx_HAL_Driver/Src/stm32f3xx_hal_can.c **** 
 421              		.loc 1 857 5 view .LVU130
 862:Drivers/STM32F3xx_HAL_Driver/Src/stm32f3xx_hal_can.c **** 
 422              		.loc 1 862 5 view .LVU131
 865:Drivers/STM32F3xx_HAL_Driver/Src/stm32f3xx_hal_can.c **** 
 423              		.loc 1 865 5 view .LVU132
 424 001c D2F80032 		ldr	r3, [r2, #512]
 425 0020 43F00103 		orr	r3, r3, #1
 426 0024 C2F80032 		str	r3, [r2, #512]
 868:Drivers/STM32F3xx_HAL_Driver/Src/stm32f3xx_hal_can.c **** 
ARM GAS  C:\msys64\tmp\cc8m32jh.s 			page 27


 427              		.loc 1 868 5 view .LVU133
 868:Drivers/STM32F3xx_HAL_Driver/Src/stm32f3xx_hal_can.c **** 
 428              		.loc 1 868 52 is_stmt 0 view .LVU134
 429 0028 4B69     		ldr	r3, [r1, #20]
 868:Drivers/STM32F3xx_HAL_Driver/Src/stm32f3xx_hal_can.c **** 
 430              		.loc 1 868 65 view .LVU135
 431 002a 03F01F03 		and	r3, r3, #31
 868:Drivers/STM32F3xx_HAL_Driver/Src/stm32f3xx_hal_can.c **** 
 432              		.loc 1 868 21 view .LVU136
 433 002e 0120     		movs	r0, #1
 434              	.LVL22:
 868:Drivers/STM32F3xx_HAL_Driver/Src/stm32f3xx_hal_can.c **** 
 435              		.loc 1 868 21 view .LVU137
 436 0030 00FA03F3 		lsl	r3, r0, r3
 437              	.LVL23:
 871:Drivers/STM32F3xx_HAL_Driver/Src/stm32f3xx_hal_can.c **** 
 438              		.loc 1 871 5 is_stmt 1 view .LVU138
 439 0034 D2F81C02 		ldr	r0, [r2, #540]
 440 0038 6FEA030C 		mvn	ip, r3
 441 003c 20EA0300 		bic	r0, r0, r3
 442 0040 C2F81C02 		str	r0, [r2, #540]
 874:Drivers/STM32F3xx_HAL_Driver/Src/stm32f3xx_hal_can.c ****     {
 443              		.loc 1 874 5 view .LVU139
 874:Drivers/STM32F3xx_HAL_Driver/Src/stm32f3xx_hal_can.c ****     {
 444              		.loc 1 874 22 is_stmt 0 view .LVU140
 445 0044 C869     		ldr	r0, [r1, #28]
 874:Drivers/STM32F3xx_HAL_Driver/Src/stm32f3xx_hal_can.c ****     {
 446              		.loc 1 874 8 view .LVU141
 447 0046 B0B9     		cbnz	r0, .L38
 877:Drivers/STM32F3xx_HAL_Driver/Src/stm32f3xx_hal_can.c **** 
 448              		.loc 1 877 7 is_stmt 1 view .LVU142
 449 0048 D2F80C02 		ldr	r0, [r2, #524]
 450 004c 0CEA0000 		and	r0, ip, r0
 451 0050 C2F80C02 		str	r0, [r2, #524]
 881:Drivers/STM32F3xx_HAL_Driver/Src/stm32f3xx_hal_can.c ****         ((0x0000FFFFU & (uint32_t)sFilterConfig->FilterMaskIdLow) << 16U) |
 452              		.loc 1 881 7 view .LVU143
 883:Drivers/STM32F3xx_HAL_Driver/Src/stm32f3xx_hal_can.c **** 
 453              		.loc 1 883 22 is_stmt 0 view .LVU144
 454 0054 8C88     		ldrh	r4, [r1, #4]
 881:Drivers/STM32F3xx_HAL_Driver/Src/stm32f3xx_hal_can.c ****         ((0x0000FFFFU & (uint32_t)sFilterConfig->FilterMaskIdLow) << 16U) |
 455              		.loc 1 881 44 view .LVU145
 456 0056 4869     		ldr	r0, [r1, #20]
 882:Drivers/STM32F3xx_HAL_Driver/Src/stm32f3xx_hal_can.c ****         (0x0000FFFFU & (uint32_t)sFilterConfig->FilterIdLow);
 457              		.loc 1 882 75 view .LVU146
 458 0058 CD68     		ldr	r5, [r1, #12]
 459 005a 44EA0544 		orr	r4, r4, r5, lsl #16
 881:Drivers/STM32F3xx_HAL_Driver/Src/stm32f3xx_hal_can.c ****         ((0x0000FFFFU & (uint32_t)sFilterConfig->FilterMaskIdLow) << 16U) |
 460              		.loc 1 881 62 view .LVU147
 461 005e 4830     		adds	r0, r0, #72
 462 0060 42F83040 		str	r4, [r2, r0, lsl #3]
 887:Drivers/STM32F3xx_HAL_Driver/Src/stm32f3xx_hal_can.c ****         ((0x0000FFFFU & (uint32_t)sFilterConfig->FilterMaskIdHigh) << 16U) |
 463              		.loc 1 887 7 is_stmt 1 view .LVU148
 889:Drivers/STM32F3xx_HAL_Driver/Src/stm32f3xx_hal_can.c ****     }
 464              		.loc 1 889 22 is_stmt 0 view .LVU149
 465 0064 0C88     		ldrh	r4, [r1]
 887:Drivers/STM32F3xx_HAL_Driver/Src/stm32f3xx_hal_can.c ****         ((0x0000FFFFU & (uint32_t)sFilterConfig->FilterMaskIdHigh) << 16U) |
 466              		.loc 1 887 44 view .LVU150
ARM GAS  C:\msys64\tmp\cc8m32jh.s 			page 28


 467 0066 4869     		ldr	r0, [r1, #20]
 888:Drivers/STM32F3xx_HAL_Driver/Src/stm32f3xx_hal_can.c ****         (0x0000FFFFU & (uint32_t)sFilterConfig->FilterIdHigh);
 468              		.loc 1 888 76 view .LVU151
 469 0068 8D68     		ldr	r5, [r1, #8]
 470 006a 44EA0544 		orr	r4, r4, r5, lsl #16
 887:Drivers/STM32F3xx_HAL_Driver/Src/stm32f3xx_hal_can.c ****         ((0x0000FFFFU & (uint32_t)sFilterConfig->FilterMaskIdHigh) << 16U) |
 471              		.loc 1 887 62 view .LVU152
 472 006e 4830     		adds	r0, r0, #72
 473 0070 02EBC000 		add	r0, r2, r0, lsl #3
 474 0074 4460     		str	r4, [r0, #4]
 475              	.L38:
 892:Drivers/STM32F3xx_HAL_Driver/Src/stm32f3xx_hal_can.c ****     {
 476              		.loc 1 892 5 is_stmt 1 view .LVU153
 892:Drivers/STM32F3xx_HAL_Driver/Src/stm32f3xx_hal_can.c ****     {
 477              		.loc 1 892 22 is_stmt 0 view .LVU154
 478 0076 C869     		ldr	r0, [r1, #28]
 892:Drivers/STM32F3xx_HAL_Driver/Src/stm32f3xx_hal_can.c ****     {
 479              		.loc 1 892 8 view .LVU155
 480 0078 0128     		cmp	r0, #1
 481 007a 1BD0     		beq	.L51
 482              	.L39:
 909:Drivers/STM32F3xx_HAL_Driver/Src/stm32f3xx_hal_can.c ****     {
 483              		.loc 1 909 5 is_stmt 1 view .LVU156
 909:Drivers/STM32F3xx_HAL_Driver/Src/stm32f3xx_hal_can.c ****     {
 484              		.loc 1 909 22 is_stmt 0 view .LVU157
 485 007c 8869     		ldr	r0, [r1, #24]
 909:Drivers/STM32F3xx_HAL_Driver/Src/stm32f3xx_hal_can.c ****     {
 486              		.loc 1 909 8 view .LVU158
 487 007e 80BB     		cbnz	r0, .L40
 912:Drivers/STM32F3xx_HAL_Driver/Src/stm32f3xx_hal_can.c ****     }
 488              		.loc 1 912 7 is_stmt 1 view .LVU159
 489 0080 D2F80402 		ldr	r0, [r2, #516]
 490 0084 0CEA0000 		and	r0, ip, r0
 491 0088 C2F80402 		str	r0, [r2, #516]
 492              	.L41:
 921:Drivers/STM32F3xx_HAL_Driver/Src/stm32f3xx_hal_can.c ****     {
 493              		.loc 1 921 5 view .LVU160
 921:Drivers/STM32F3xx_HAL_Driver/Src/stm32f3xx_hal_can.c ****     {
 494              		.loc 1 921 22 is_stmt 0 view .LVU161
 495 008c 0869     		ldr	r0, [r1, #16]
 921:Drivers/STM32F3xx_HAL_Driver/Src/stm32f3xx_hal_can.c ****     {
 496              		.loc 1 921 8 view .LVU162
 497 008e 70BB     		cbnz	r0, .L42
 924:Drivers/STM32F3xx_HAL_Driver/Src/stm32f3xx_hal_can.c ****     }
 498              		.loc 1 924 7 is_stmt 1 view .LVU163
 499 0090 D2F81402 		ldr	r0, [r2, #532]
 500 0094 0CEA0000 		and	r0, ip, r0
 501 0098 C2F81402 		str	r0, [r2, #532]
 502              	.L43:
 933:Drivers/STM32F3xx_HAL_Driver/Src/stm32f3xx_hal_can.c ****     {
 503              		.loc 1 933 5 view .LVU164
 933:Drivers/STM32F3xx_HAL_Driver/Src/stm32f3xx_hal_can.c ****     {
 504              		.loc 1 933 22 is_stmt 0 view .LVU165
 505 009c 096A     		ldr	r1, [r1, #32]
 506              	.LVL24:
 933:Drivers/STM32F3xx_HAL_Driver/Src/stm32f3xx_hal_can.c ****     {
 507              		.loc 1 933 8 view .LVU166
ARM GAS  C:\msys64\tmp\cc8m32jh.s 			page 29


 508 009e 0129     		cmp	r1, #1
 509 00a0 2BD0     		beq	.L52
 510              	.LVL25:
 511              	.L44:
 939:Drivers/STM32F3xx_HAL_Driver/Src/stm32f3xx_hal_can.c **** 
 512              		.loc 1 939 5 is_stmt 1 view .LVU167
 513 00a2 D2F80032 		ldr	r3, [r2, #512]
 514 00a6 23F00103 		bic	r3, r3, #1
 515 00aa C2F80032 		str	r3, [r2, #512]
 942:Drivers/STM32F3xx_HAL_Driver/Src/stm32f3xx_hal_can.c ****   }
 516              		.loc 1 942 5 view .LVU168
 942:Drivers/STM32F3xx_HAL_Driver/Src/stm32f3xx_hal_can.c ****   }
 517              		.loc 1 942 12 is_stmt 0 view .LVU169
 518 00ae 0020     		movs	r0, #0
 519              		.loc 1 951 1 view .LVU170
 520 00b0 30BC     		pop	{r4, r5}
 521              	.LCFI3:
 522              		.cfi_remember_state
 523              		.cfi_restore 5
 524              		.cfi_restore 4
 525              		.cfi_def_cfa_offset 0
 526 00b2 7047     		bx	lr
 527              	.LVL26:
 528              	.L51:
 529              	.LCFI4:
 530              		.cfi_restore_state
 895:Drivers/STM32F3xx_HAL_Driver/Src/stm32f3xx_hal_can.c **** 
 531              		.loc 1 895 7 is_stmt 1 view .LVU171
 532 00b4 D2F80C02 		ldr	r0, [r2, #524]
 533 00b8 1843     		orrs	r0, r0, r3
 534 00ba C2F80C02 		str	r0, [r2, #524]
 898:Drivers/STM32F3xx_HAL_Driver/Src/stm32f3xx_hal_can.c ****         ((0x0000FFFFU & (uint32_t)sFilterConfig->FilterIdHigh) << 16U) |
 535              		.loc 1 898 7 view .LVU172
 900:Drivers/STM32F3xx_HAL_Driver/Src/stm32f3xx_hal_can.c **** 
 536              		.loc 1 900 22 is_stmt 0 view .LVU173
 537 00be 8C88     		ldrh	r4, [r1, #4]
 898:Drivers/STM32F3xx_HAL_Driver/Src/stm32f3xx_hal_can.c ****         ((0x0000FFFFU & (uint32_t)sFilterConfig->FilterIdHigh) << 16U) |
 538              		.loc 1 898 44 view .LVU174
 539 00c0 4869     		ldr	r0, [r1, #20]
 899:Drivers/STM32F3xx_HAL_Driver/Src/stm32f3xx_hal_can.c ****         (0x0000FFFFU & (uint32_t)sFilterConfig->FilterIdLow);
 540              		.loc 1 899 72 view .LVU175
 541 00c2 0D68     		ldr	r5, [r1]
 542 00c4 44EA0544 		orr	r4, r4, r5, lsl #16
 898:Drivers/STM32F3xx_HAL_Driver/Src/stm32f3xx_hal_can.c ****         ((0x0000FFFFU & (uint32_t)sFilterConfig->FilterIdHigh) << 16U) |
 543              		.loc 1 898 62 view .LVU176
 544 00c8 4830     		adds	r0, r0, #72
 545 00ca 42F83040 		str	r4, [r2, r0, lsl #3]
 903:Drivers/STM32F3xx_HAL_Driver/Src/stm32f3xx_hal_can.c ****         ((0x0000FFFFU & (uint32_t)sFilterConfig->FilterMaskIdHigh) << 16U) |
 546              		.loc 1 903 7 is_stmt 1 view .LVU177
 905:Drivers/STM32F3xx_HAL_Driver/Src/stm32f3xx_hal_can.c ****     }
 547              		.loc 1 905 22 is_stmt 0 view .LVU178
 548 00ce 8C89     		ldrh	r4, [r1, #12]
 903:Drivers/STM32F3xx_HAL_Driver/Src/stm32f3xx_hal_can.c ****         ((0x0000FFFFU & (uint32_t)sFilterConfig->FilterMaskIdHigh) << 16U) |
 549              		.loc 1 903 44 view .LVU179
 550 00d0 4869     		ldr	r0, [r1, #20]
 904:Drivers/STM32F3xx_HAL_Driver/Src/stm32f3xx_hal_can.c ****         (0x0000FFFFU & (uint32_t)sFilterConfig->FilterMaskIdLow);
 551              		.loc 1 904 76 view .LVU180
ARM GAS  C:\msys64\tmp\cc8m32jh.s 			page 30


 552 00d2 8D68     		ldr	r5, [r1, #8]
 553 00d4 44EA0544 		orr	r4, r4, r5, lsl #16
 903:Drivers/STM32F3xx_HAL_Driver/Src/stm32f3xx_hal_can.c ****         ((0x0000FFFFU & (uint32_t)sFilterConfig->FilterMaskIdHigh) << 16U) |
 554              		.loc 1 903 62 view .LVU181
 555 00d8 4830     		adds	r0, r0, #72
 556 00da 02EBC000 		add	r0, r2, r0, lsl #3
 557 00de 4460     		str	r4, [r0, #4]
 558 00e0 CCE7     		b	.L39
 559              	.L40:
 917:Drivers/STM32F3xx_HAL_Driver/Src/stm32f3xx_hal_can.c ****     }
 560              		.loc 1 917 7 is_stmt 1 view .LVU182
 561 00e2 D2F80402 		ldr	r0, [r2, #516]
 562 00e6 1843     		orrs	r0, r0, r3
 563 00e8 C2F80402 		str	r0, [r2, #516]
 564 00ec CEE7     		b	.L41
 565              	.L42:
 929:Drivers/STM32F3xx_HAL_Driver/Src/stm32f3xx_hal_can.c ****     }
 566              		.loc 1 929 7 view .LVU183
 567 00ee D2F81402 		ldr	r0, [r2, #532]
 568 00f2 1843     		orrs	r0, r0, r3
 569 00f4 C2F81402 		str	r0, [r2, #532]
 570 00f8 D0E7     		b	.L43
 571              	.LVL27:
 572              	.L52:
 935:Drivers/STM32F3xx_HAL_Driver/Src/stm32f3xx_hal_can.c ****     }
 573              		.loc 1 935 7 view .LVU184
 574 00fa D2F81C12 		ldr	r1, [r2, #540]
 575 00fe 0B43     		orrs	r3, r3, r1
 576              	.LVL28:
 935:Drivers/STM32F3xx_HAL_Driver/Src/stm32f3xx_hal_can.c ****     }
 577              		.loc 1 935 7 is_stmt 0 view .LVU185
 578 0100 C2F81C32 		str	r3, [r2, #540]
 579 0104 CDE7     		b	.L44
 580              		.cfi_endproc
 581              	.LFE127:
 583              		.section	.text.HAL_CAN_Start,"ax",%progbits
 584              		.align	1
 585              		.global	HAL_CAN_Start
 586              		.syntax unified
 587              		.thumb
 588              		.thumb_func
 590              	HAL_CAN_Start:
 591              	.LVL29:
 592              	.LFB128:
 952:Drivers/STM32F3xx_HAL_Driver/Src/stm32f3xx_hal_can.c **** 
 953:Drivers/STM32F3xx_HAL_Driver/Src/stm32f3xx_hal_can.c **** /**
 954:Drivers/STM32F3xx_HAL_Driver/Src/stm32f3xx_hal_can.c ****   * @}
 955:Drivers/STM32F3xx_HAL_Driver/Src/stm32f3xx_hal_can.c ****   */
 956:Drivers/STM32F3xx_HAL_Driver/Src/stm32f3xx_hal_can.c **** 
 957:Drivers/STM32F3xx_HAL_Driver/Src/stm32f3xx_hal_can.c **** /** @defgroup CAN_Exported_Functions_Group3 Control functions
 958:Drivers/STM32F3xx_HAL_Driver/Src/stm32f3xx_hal_can.c ****   * @brief    Control functions
 959:Drivers/STM32F3xx_HAL_Driver/Src/stm32f3xx_hal_can.c ****   *
 960:Drivers/STM32F3xx_HAL_Driver/Src/stm32f3xx_hal_can.c **** @verbatim
 961:Drivers/STM32F3xx_HAL_Driver/Src/stm32f3xx_hal_can.c ****   ==============================================================================
 962:Drivers/STM32F3xx_HAL_Driver/Src/stm32f3xx_hal_can.c ****                       ##### Control functions #####
 963:Drivers/STM32F3xx_HAL_Driver/Src/stm32f3xx_hal_can.c ****   ==============================================================================
 964:Drivers/STM32F3xx_HAL_Driver/Src/stm32f3xx_hal_can.c ****     [..]  This section provides functions allowing to:
ARM GAS  C:\msys64\tmp\cc8m32jh.s 			page 31


 965:Drivers/STM32F3xx_HAL_Driver/Src/stm32f3xx_hal_can.c ****       (+) HAL_CAN_Start                    : Start the CAN module
 966:Drivers/STM32F3xx_HAL_Driver/Src/stm32f3xx_hal_can.c ****       (+) HAL_CAN_Stop                     : Stop the CAN module
 967:Drivers/STM32F3xx_HAL_Driver/Src/stm32f3xx_hal_can.c ****       (+) HAL_CAN_RequestSleep             : Request sleep mode entry.
 968:Drivers/STM32F3xx_HAL_Driver/Src/stm32f3xx_hal_can.c ****       (+) HAL_CAN_WakeUp                   : Wake up from sleep mode.
 969:Drivers/STM32F3xx_HAL_Driver/Src/stm32f3xx_hal_can.c ****       (+) HAL_CAN_IsSleepActive            : Check is sleep mode is active.
 970:Drivers/STM32F3xx_HAL_Driver/Src/stm32f3xx_hal_can.c ****       (+) HAL_CAN_AddTxMessage             : Add a message to the Tx mailboxes
 971:Drivers/STM32F3xx_HAL_Driver/Src/stm32f3xx_hal_can.c ****                                              and activate the corresponding
 972:Drivers/STM32F3xx_HAL_Driver/Src/stm32f3xx_hal_can.c ****                                              transmission request
 973:Drivers/STM32F3xx_HAL_Driver/Src/stm32f3xx_hal_can.c ****       (+) HAL_CAN_AbortTxRequest           : Abort transmission request
 974:Drivers/STM32F3xx_HAL_Driver/Src/stm32f3xx_hal_can.c ****       (+) HAL_CAN_GetTxMailboxesFreeLevel  : Return Tx mailboxes free level
 975:Drivers/STM32F3xx_HAL_Driver/Src/stm32f3xx_hal_can.c ****       (+) HAL_CAN_IsTxMessagePending       : Check if a transmission request is
 976:Drivers/STM32F3xx_HAL_Driver/Src/stm32f3xx_hal_can.c ****                                              pending on the selected Tx mailbox
 977:Drivers/STM32F3xx_HAL_Driver/Src/stm32f3xx_hal_can.c ****       (+) HAL_CAN_GetRxMessage             : Get a CAN frame from the Rx FIFO
 978:Drivers/STM32F3xx_HAL_Driver/Src/stm32f3xx_hal_can.c ****       (+) HAL_CAN_GetRxFifoFillLevel       : Return Rx FIFO fill level
 979:Drivers/STM32F3xx_HAL_Driver/Src/stm32f3xx_hal_can.c **** 
 980:Drivers/STM32F3xx_HAL_Driver/Src/stm32f3xx_hal_can.c **** @endverbatim
 981:Drivers/STM32F3xx_HAL_Driver/Src/stm32f3xx_hal_can.c ****   * @{
 982:Drivers/STM32F3xx_HAL_Driver/Src/stm32f3xx_hal_can.c ****   */
 983:Drivers/STM32F3xx_HAL_Driver/Src/stm32f3xx_hal_can.c **** 
 984:Drivers/STM32F3xx_HAL_Driver/Src/stm32f3xx_hal_can.c **** /**
 985:Drivers/STM32F3xx_HAL_Driver/Src/stm32f3xx_hal_can.c ****   * @brief  Start the CAN module.
 986:Drivers/STM32F3xx_HAL_Driver/Src/stm32f3xx_hal_can.c ****   * @param  hcan pointer to an CAN_HandleTypeDef structure that contains
 987:Drivers/STM32F3xx_HAL_Driver/Src/stm32f3xx_hal_can.c ****   *         the configuration information for the specified CAN.
 988:Drivers/STM32F3xx_HAL_Driver/Src/stm32f3xx_hal_can.c ****   * @retval HAL status
 989:Drivers/STM32F3xx_HAL_Driver/Src/stm32f3xx_hal_can.c ****   */
 990:Drivers/STM32F3xx_HAL_Driver/Src/stm32f3xx_hal_can.c **** HAL_StatusTypeDef HAL_CAN_Start(CAN_HandleTypeDef *hcan)
 991:Drivers/STM32F3xx_HAL_Driver/Src/stm32f3xx_hal_can.c **** {
 593              		.loc 1 991 1 is_stmt 1 view -0
 594              		.cfi_startproc
 595              		@ args = 0, pretend = 0, frame = 0
 596              		@ frame_needed = 0, uses_anonymous_args = 0
 597              		.loc 1 991 1 is_stmt 0 view .LVU187
 598 0000 70B5     		push	{r4, r5, r6, lr}
 599              	.LCFI5:
 600              		.cfi_def_cfa_offset 16
 601              		.cfi_offset 4, -16
 602              		.cfi_offset 5, -12
 603              		.cfi_offset 6, -8
 604              		.cfi_offset 14, -4
 605 0002 0446     		mov	r4, r0
 992:Drivers/STM32F3xx_HAL_Driver/Src/stm32f3xx_hal_can.c ****   uint32_t tickstart;
 606              		.loc 1 992 3 is_stmt 1 view .LVU188
 993:Drivers/STM32F3xx_HAL_Driver/Src/stm32f3xx_hal_can.c **** 
 994:Drivers/STM32F3xx_HAL_Driver/Src/stm32f3xx_hal_can.c ****   if (hcan->State == HAL_CAN_STATE_READY)
 607              		.loc 1 994 3 view .LVU189
 608              		.loc 1 994 11 is_stmt 0 view .LVU190
 609 0004 90F82050 		ldrb	r5, [r0, #32]	@ zero_extendqisi2
 610 0008 EDB2     		uxtb	r5, r5
 611              		.loc 1 994 6 view .LVU191
 612 000a 012D     		cmp	r5, #1
 613 000c 06D0     		beq	.L59
 995:Drivers/STM32F3xx_HAL_Driver/Src/stm32f3xx_hal_can.c ****   {
 996:Drivers/STM32F3xx_HAL_Driver/Src/stm32f3xx_hal_can.c ****     /* Change CAN peripheral state */
 997:Drivers/STM32F3xx_HAL_Driver/Src/stm32f3xx_hal_can.c ****     hcan->State = HAL_CAN_STATE_LISTENING;
 998:Drivers/STM32F3xx_HAL_Driver/Src/stm32f3xx_hal_can.c **** 
 999:Drivers/STM32F3xx_HAL_Driver/Src/stm32f3xx_hal_can.c ****     /* Request leave initialisation */
1000:Drivers/STM32F3xx_HAL_Driver/Src/stm32f3xx_hal_can.c ****     CLEAR_BIT(hcan->Instance->MCR, CAN_MCR_INRQ);
ARM GAS  C:\msys64\tmp\cc8m32jh.s 			page 32


1001:Drivers/STM32F3xx_HAL_Driver/Src/stm32f3xx_hal_can.c **** 
1002:Drivers/STM32F3xx_HAL_Driver/Src/stm32f3xx_hal_can.c ****     /* Get tick */
1003:Drivers/STM32F3xx_HAL_Driver/Src/stm32f3xx_hal_can.c ****     tickstart = HAL_GetTick();
1004:Drivers/STM32F3xx_HAL_Driver/Src/stm32f3xx_hal_can.c **** 
1005:Drivers/STM32F3xx_HAL_Driver/Src/stm32f3xx_hal_can.c ****     /* Wait the acknowledge */
1006:Drivers/STM32F3xx_HAL_Driver/Src/stm32f3xx_hal_can.c ****     while ((hcan->Instance->MSR & CAN_MSR_INAK) != 0U)
1007:Drivers/STM32F3xx_HAL_Driver/Src/stm32f3xx_hal_can.c ****     {
1008:Drivers/STM32F3xx_HAL_Driver/Src/stm32f3xx_hal_can.c ****       /* Check for the Timeout */
1009:Drivers/STM32F3xx_HAL_Driver/Src/stm32f3xx_hal_can.c ****       if ((HAL_GetTick() - tickstart) > CAN_TIMEOUT_VALUE)
1010:Drivers/STM32F3xx_HAL_Driver/Src/stm32f3xx_hal_can.c ****       {
1011:Drivers/STM32F3xx_HAL_Driver/Src/stm32f3xx_hal_can.c ****         /* Update error code */
1012:Drivers/STM32F3xx_HAL_Driver/Src/stm32f3xx_hal_can.c ****         hcan->ErrorCode |= HAL_CAN_ERROR_TIMEOUT;
1013:Drivers/STM32F3xx_HAL_Driver/Src/stm32f3xx_hal_can.c **** 
1014:Drivers/STM32F3xx_HAL_Driver/Src/stm32f3xx_hal_can.c ****         /* Change CAN state */
1015:Drivers/STM32F3xx_HAL_Driver/Src/stm32f3xx_hal_can.c ****         hcan->State = HAL_CAN_STATE_ERROR;
1016:Drivers/STM32F3xx_HAL_Driver/Src/stm32f3xx_hal_can.c **** 
1017:Drivers/STM32F3xx_HAL_Driver/Src/stm32f3xx_hal_can.c ****         return HAL_ERROR;
1018:Drivers/STM32F3xx_HAL_Driver/Src/stm32f3xx_hal_can.c ****       }
1019:Drivers/STM32F3xx_HAL_Driver/Src/stm32f3xx_hal_can.c ****     }
1020:Drivers/STM32F3xx_HAL_Driver/Src/stm32f3xx_hal_can.c **** 
1021:Drivers/STM32F3xx_HAL_Driver/Src/stm32f3xx_hal_can.c ****     /* Reset the CAN ErrorCode */
1022:Drivers/STM32F3xx_HAL_Driver/Src/stm32f3xx_hal_can.c ****     hcan->ErrorCode = HAL_CAN_ERROR_NONE;
1023:Drivers/STM32F3xx_HAL_Driver/Src/stm32f3xx_hal_can.c **** 
1024:Drivers/STM32F3xx_HAL_Driver/Src/stm32f3xx_hal_can.c ****     /* Return function status */
1025:Drivers/STM32F3xx_HAL_Driver/Src/stm32f3xx_hal_can.c ****     return HAL_OK;
1026:Drivers/STM32F3xx_HAL_Driver/Src/stm32f3xx_hal_can.c ****   }
1027:Drivers/STM32F3xx_HAL_Driver/Src/stm32f3xx_hal_can.c ****   else
1028:Drivers/STM32F3xx_HAL_Driver/Src/stm32f3xx_hal_can.c ****   {
1029:Drivers/STM32F3xx_HAL_Driver/Src/stm32f3xx_hal_can.c ****     /* Update error code */
1030:Drivers/STM32F3xx_HAL_Driver/Src/stm32f3xx_hal_can.c ****     hcan->ErrorCode |= HAL_CAN_ERROR_NOT_READY;
 614              		.loc 1 1030 5 is_stmt 1 view .LVU192
 615              		.loc 1 1030 9 is_stmt 0 view .LVU193
 616 000e 436A     		ldr	r3, [r0, #36]
 617              		.loc 1 1030 21 view .LVU194
 618 0010 43F40023 		orr	r3, r3, #524288
 619 0014 4362     		str	r3, [r0, #36]
1031:Drivers/STM32F3xx_HAL_Driver/Src/stm32f3xx_hal_can.c **** 
1032:Drivers/STM32F3xx_HAL_Driver/Src/stm32f3xx_hal_can.c ****     return HAL_ERROR;
 620              		.loc 1 1032 5 is_stmt 1 view .LVU195
 621              		.loc 1 1032 12 is_stmt 0 view .LVU196
 622 0016 0125     		movs	r5, #1
 623              	.LVL30:
 624              	.L56:
1033:Drivers/STM32F3xx_HAL_Driver/Src/stm32f3xx_hal_can.c ****   }
1034:Drivers/STM32F3xx_HAL_Driver/Src/stm32f3xx_hal_can.c **** }
 625              		.loc 1 1034 1 view .LVU197
 626 0018 2846     		mov	r0, r5
 627 001a 70BD     		pop	{r4, r5, r6, pc}
 628              	.LVL31:
 629              	.L59:
 997:Drivers/STM32F3xx_HAL_Driver/Src/stm32f3xx_hal_can.c **** 
 630              		.loc 1 997 5 is_stmt 1 view .LVU198
 997:Drivers/STM32F3xx_HAL_Driver/Src/stm32f3xx_hal_can.c **** 
 631              		.loc 1 997 17 is_stmt 0 view .LVU199
 632 001c 0223     		movs	r3, #2
 633 001e 80F82030 		strb	r3, [r0, #32]
1000:Drivers/STM32F3xx_HAL_Driver/Src/stm32f3xx_hal_can.c **** 
ARM GAS  C:\msys64\tmp\cc8m32jh.s 			page 33


 634              		.loc 1 1000 5 is_stmt 1 view .LVU200
 635 0022 0268     		ldr	r2, [r0]
 636 0024 1368     		ldr	r3, [r2]
 637 0026 23F00103 		bic	r3, r3, #1
 638 002a 1360     		str	r3, [r2]
1003:Drivers/STM32F3xx_HAL_Driver/Src/stm32f3xx_hal_can.c **** 
 639              		.loc 1 1003 5 view .LVU201
1003:Drivers/STM32F3xx_HAL_Driver/Src/stm32f3xx_hal_can.c **** 
 640              		.loc 1 1003 17 is_stmt 0 view .LVU202
 641 002c FFF7FEFF 		bl	HAL_GetTick
 642              	.LVL32:
1003:Drivers/STM32F3xx_HAL_Driver/Src/stm32f3xx_hal_can.c **** 
 643              		.loc 1 1003 17 view .LVU203
 644 0030 0646     		mov	r6, r0
 645              	.LVL33:
1006:Drivers/STM32F3xx_HAL_Driver/Src/stm32f3xx_hal_can.c ****     {
 646              		.loc 1 1006 5 is_stmt 1 view .LVU204
 647              	.L55:
1006:Drivers/STM32F3xx_HAL_Driver/Src/stm32f3xx_hal_can.c ****     {
 648              		.loc 1 1006 49 view .LVU205
1006:Drivers/STM32F3xx_HAL_Driver/Src/stm32f3xx_hal_can.c ****     {
 649              		.loc 1 1006 17 is_stmt 0 view .LVU206
 650 0032 2368     		ldr	r3, [r4]
1006:Drivers/STM32F3xx_HAL_Driver/Src/stm32f3xx_hal_can.c ****     {
 651              		.loc 1 1006 27 view .LVU207
 652 0034 5B68     		ldr	r3, [r3, #4]
1006:Drivers/STM32F3xx_HAL_Driver/Src/stm32f3xx_hal_can.c ****     {
 653              		.loc 1 1006 49 view .LVU208
 654 0036 13F0010F 		tst	r3, #1
 655 003a 0CD0     		beq	.L60
1009:Drivers/STM32F3xx_HAL_Driver/Src/stm32f3xx_hal_can.c ****       {
 656              		.loc 1 1009 7 is_stmt 1 view .LVU209
1009:Drivers/STM32F3xx_HAL_Driver/Src/stm32f3xx_hal_can.c ****       {
 657              		.loc 1 1009 12 is_stmt 0 view .LVU210
 658 003c FFF7FEFF 		bl	HAL_GetTick
 659              	.LVL34:
1009:Drivers/STM32F3xx_HAL_Driver/Src/stm32f3xx_hal_can.c ****       {
 660              		.loc 1 1009 26 discriminator 1 view .LVU211
 661 0040 831B     		subs	r3, r0, r6
1009:Drivers/STM32F3xx_HAL_Driver/Src/stm32f3xx_hal_can.c ****       {
 662              		.loc 1 1009 10 discriminator 1 view .LVU212
 663 0042 0A2B     		cmp	r3, #10
 664 0044 F5D9     		bls	.L55
1012:Drivers/STM32F3xx_HAL_Driver/Src/stm32f3xx_hal_can.c **** 
 665              		.loc 1 1012 9 is_stmt 1 view .LVU213
1012:Drivers/STM32F3xx_HAL_Driver/Src/stm32f3xx_hal_can.c **** 
 666              		.loc 1 1012 13 is_stmt 0 view .LVU214
 667 0046 636A     		ldr	r3, [r4, #36]
1012:Drivers/STM32F3xx_HAL_Driver/Src/stm32f3xx_hal_can.c **** 
 668              		.loc 1 1012 25 view .LVU215
 669 0048 43F40033 		orr	r3, r3, #131072
 670 004c 6362     		str	r3, [r4, #36]
1015:Drivers/STM32F3xx_HAL_Driver/Src/stm32f3xx_hal_can.c **** 
 671              		.loc 1 1015 9 is_stmt 1 view .LVU216
1015:Drivers/STM32F3xx_HAL_Driver/Src/stm32f3xx_hal_can.c **** 
 672              		.loc 1 1015 21 is_stmt 0 view .LVU217
 673 004e 0523     		movs	r3, #5
ARM GAS  C:\msys64\tmp\cc8m32jh.s 			page 34


 674 0050 84F82030 		strb	r3, [r4, #32]
1017:Drivers/STM32F3xx_HAL_Driver/Src/stm32f3xx_hal_can.c ****       }
 675              		.loc 1 1017 9 is_stmt 1 view .LVU218
1017:Drivers/STM32F3xx_HAL_Driver/Src/stm32f3xx_hal_can.c ****       }
 676              		.loc 1 1017 16 is_stmt 0 view .LVU219
 677 0054 E0E7     		b	.L56
 678              	.L60:
1022:Drivers/STM32F3xx_HAL_Driver/Src/stm32f3xx_hal_can.c **** 
 679              		.loc 1 1022 5 is_stmt 1 view .LVU220
1022:Drivers/STM32F3xx_HAL_Driver/Src/stm32f3xx_hal_can.c **** 
 680              		.loc 1 1022 21 is_stmt 0 view .LVU221
 681 0056 0025     		movs	r5, #0
 682 0058 6562     		str	r5, [r4, #36]
1025:Drivers/STM32F3xx_HAL_Driver/Src/stm32f3xx_hal_can.c ****   }
 683              		.loc 1 1025 5 is_stmt 1 view .LVU222
1025:Drivers/STM32F3xx_HAL_Driver/Src/stm32f3xx_hal_can.c ****   }
 684              		.loc 1 1025 12 is_stmt 0 view .LVU223
 685 005a DDE7     		b	.L56
 686              		.cfi_endproc
 687              	.LFE128:
 689              		.section	.text.HAL_CAN_Stop,"ax",%progbits
 690              		.align	1
 691              		.global	HAL_CAN_Stop
 692              		.syntax unified
 693              		.thumb
 694              		.thumb_func
 696              	HAL_CAN_Stop:
 697              	.LVL35:
 698              	.LFB129:
1035:Drivers/STM32F3xx_HAL_Driver/Src/stm32f3xx_hal_can.c **** 
1036:Drivers/STM32F3xx_HAL_Driver/Src/stm32f3xx_hal_can.c **** /**
1037:Drivers/STM32F3xx_HAL_Driver/Src/stm32f3xx_hal_can.c ****   * @brief  Stop the CAN module and enable access to configuration registers.
1038:Drivers/STM32F3xx_HAL_Driver/Src/stm32f3xx_hal_can.c ****   * @param  hcan pointer to an CAN_HandleTypeDef structure that contains
1039:Drivers/STM32F3xx_HAL_Driver/Src/stm32f3xx_hal_can.c ****   *         the configuration information for the specified CAN.
1040:Drivers/STM32F3xx_HAL_Driver/Src/stm32f3xx_hal_can.c ****   * @retval HAL status
1041:Drivers/STM32F3xx_HAL_Driver/Src/stm32f3xx_hal_can.c ****   */
1042:Drivers/STM32F3xx_HAL_Driver/Src/stm32f3xx_hal_can.c **** HAL_StatusTypeDef HAL_CAN_Stop(CAN_HandleTypeDef *hcan)
1043:Drivers/STM32F3xx_HAL_Driver/Src/stm32f3xx_hal_can.c **** {
 699              		.loc 1 1043 1 is_stmt 1 view -0
 700              		.cfi_startproc
 701              		@ args = 0, pretend = 0, frame = 0
 702              		@ frame_needed = 0, uses_anonymous_args = 0
 703              		.loc 1 1043 1 is_stmt 0 view .LVU225
 704 0000 38B5     		push	{r3, r4, r5, lr}
 705              	.LCFI6:
 706              		.cfi_def_cfa_offset 16
 707              		.cfi_offset 3, -16
 708              		.cfi_offset 4, -12
 709              		.cfi_offset 5, -8
 710              		.cfi_offset 14, -4
 711 0002 0446     		mov	r4, r0
1044:Drivers/STM32F3xx_HAL_Driver/Src/stm32f3xx_hal_can.c ****   uint32_t tickstart;
 712              		.loc 1 1044 3 is_stmt 1 view .LVU226
1045:Drivers/STM32F3xx_HAL_Driver/Src/stm32f3xx_hal_can.c **** 
1046:Drivers/STM32F3xx_HAL_Driver/Src/stm32f3xx_hal_can.c ****   if (hcan->State == HAL_CAN_STATE_LISTENING)
 713              		.loc 1 1046 3 view .LVU227
 714              		.loc 1 1046 11 is_stmt 0 view .LVU228
ARM GAS  C:\msys64\tmp\cc8m32jh.s 			page 35


 715 0004 90F82030 		ldrb	r3, [r0, #32]	@ zero_extendqisi2
 716 0008 DBB2     		uxtb	r3, r3
 717              		.loc 1 1046 6 view .LVU229
 718 000a 022B     		cmp	r3, #2
 719 000c 05D0     		beq	.L67
1047:Drivers/STM32F3xx_HAL_Driver/Src/stm32f3xx_hal_can.c ****   {
1048:Drivers/STM32F3xx_HAL_Driver/Src/stm32f3xx_hal_can.c ****     /* Request initialisation */
1049:Drivers/STM32F3xx_HAL_Driver/Src/stm32f3xx_hal_can.c ****     SET_BIT(hcan->Instance->MCR, CAN_MCR_INRQ);
1050:Drivers/STM32F3xx_HAL_Driver/Src/stm32f3xx_hal_can.c **** 
1051:Drivers/STM32F3xx_HAL_Driver/Src/stm32f3xx_hal_can.c ****     /* Get tick */
1052:Drivers/STM32F3xx_HAL_Driver/Src/stm32f3xx_hal_can.c ****     tickstart = HAL_GetTick();
1053:Drivers/STM32F3xx_HAL_Driver/Src/stm32f3xx_hal_can.c **** 
1054:Drivers/STM32F3xx_HAL_Driver/Src/stm32f3xx_hal_can.c ****     /* Wait the acknowledge */
1055:Drivers/STM32F3xx_HAL_Driver/Src/stm32f3xx_hal_can.c ****     while ((hcan->Instance->MSR & CAN_MSR_INAK) == 0U)
1056:Drivers/STM32F3xx_HAL_Driver/Src/stm32f3xx_hal_can.c ****     {
1057:Drivers/STM32F3xx_HAL_Driver/Src/stm32f3xx_hal_can.c ****       /* Check for the Timeout */
1058:Drivers/STM32F3xx_HAL_Driver/Src/stm32f3xx_hal_can.c ****       if ((HAL_GetTick() - tickstart) > CAN_TIMEOUT_VALUE)
1059:Drivers/STM32F3xx_HAL_Driver/Src/stm32f3xx_hal_can.c ****       {
1060:Drivers/STM32F3xx_HAL_Driver/Src/stm32f3xx_hal_can.c ****         /* Update error code */
1061:Drivers/STM32F3xx_HAL_Driver/Src/stm32f3xx_hal_can.c ****         hcan->ErrorCode |= HAL_CAN_ERROR_TIMEOUT;
1062:Drivers/STM32F3xx_HAL_Driver/Src/stm32f3xx_hal_can.c **** 
1063:Drivers/STM32F3xx_HAL_Driver/Src/stm32f3xx_hal_can.c ****         /* Change CAN state */
1064:Drivers/STM32F3xx_HAL_Driver/Src/stm32f3xx_hal_can.c ****         hcan->State = HAL_CAN_STATE_ERROR;
1065:Drivers/STM32F3xx_HAL_Driver/Src/stm32f3xx_hal_can.c **** 
1066:Drivers/STM32F3xx_HAL_Driver/Src/stm32f3xx_hal_can.c ****         return HAL_ERROR;
1067:Drivers/STM32F3xx_HAL_Driver/Src/stm32f3xx_hal_can.c ****       }
1068:Drivers/STM32F3xx_HAL_Driver/Src/stm32f3xx_hal_can.c ****     }
1069:Drivers/STM32F3xx_HAL_Driver/Src/stm32f3xx_hal_can.c **** 
1070:Drivers/STM32F3xx_HAL_Driver/Src/stm32f3xx_hal_can.c ****     /* Exit from sleep mode */
1071:Drivers/STM32F3xx_HAL_Driver/Src/stm32f3xx_hal_can.c ****     CLEAR_BIT(hcan->Instance->MCR, CAN_MCR_SLEEP);
1072:Drivers/STM32F3xx_HAL_Driver/Src/stm32f3xx_hal_can.c **** 
1073:Drivers/STM32F3xx_HAL_Driver/Src/stm32f3xx_hal_can.c ****     /* Change CAN peripheral state */
1074:Drivers/STM32F3xx_HAL_Driver/Src/stm32f3xx_hal_can.c ****     hcan->State = HAL_CAN_STATE_READY;
1075:Drivers/STM32F3xx_HAL_Driver/Src/stm32f3xx_hal_can.c **** 
1076:Drivers/STM32F3xx_HAL_Driver/Src/stm32f3xx_hal_can.c ****     /* Return function status */
1077:Drivers/STM32F3xx_HAL_Driver/Src/stm32f3xx_hal_can.c ****     return HAL_OK;
1078:Drivers/STM32F3xx_HAL_Driver/Src/stm32f3xx_hal_can.c ****   }
1079:Drivers/STM32F3xx_HAL_Driver/Src/stm32f3xx_hal_can.c ****   else
1080:Drivers/STM32F3xx_HAL_Driver/Src/stm32f3xx_hal_can.c ****   {
1081:Drivers/STM32F3xx_HAL_Driver/Src/stm32f3xx_hal_can.c ****     /* Update error code */
1082:Drivers/STM32F3xx_HAL_Driver/Src/stm32f3xx_hal_can.c ****     hcan->ErrorCode |= HAL_CAN_ERROR_NOT_STARTED;
 720              		.loc 1 1082 5 is_stmt 1 view .LVU230
 721              		.loc 1 1082 9 is_stmt 0 view .LVU231
 722 000e 436A     		ldr	r3, [r0, #36]
 723              		.loc 1 1082 21 view .LVU232
 724 0010 43F48013 		orr	r3, r3, #1048576
 725 0014 4362     		str	r3, [r0, #36]
1083:Drivers/STM32F3xx_HAL_Driver/Src/stm32f3xx_hal_can.c **** 
1084:Drivers/STM32F3xx_HAL_Driver/Src/stm32f3xx_hal_can.c ****     return HAL_ERROR;
 726              		.loc 1 1084 5 is_stmt 1 view .LVU233
 727              		.loc 1 1084 12 is_stmt 0 view .LVU234
 728 0016 0120     		movs	r0, #1
 729              	.LVL36:
 730              	.L64:
1085:Drivers/STM32F3xx_HAL_Driver/Src/stm32f3xx_hal_can.c ****   }
1086:Drivers/STM32F3xx_HAL_Driver/Src/stm32f3xx_hal_can.c **** }
 731              		.loc 1 1086 1 view .LVU235
ARM GAS  C:\msys64\tmp\cc8m32jh.s 			page 36


 732 0018 38BD     		pop	{r3, r4, r5, pc}
 733              	.LVL37:
 734              	.L67:
1049:Drivers/STM32F3xx_HAL_Driver/Src/stm32f3xx_hal_can.c **** 
 735              		.loc 1 1049 5 is_stmt 1 view .LVU236
 736 001a 0268     		ldr	r2, [r0]
 737 001c 1368     		ldr	r3, [r2]
 738 001e 43F00103 		orr	r3, r3, #1
 739 0022 1360     		str	r3, [r2]
1052:Drivers/STM32F3xx_HAL_Driver/Src/stm32f3xx_hal_can.c **** 
 740              		.loc 1 1052 5 view .LVU237
1052:Drivers/STM32F3xx_HAL_Driver/Src/stm32f3xx_hal_can.c **** 
 741              		.loc 1 1052 17 is_stmt 0 view .LVU238
 742 0024 FFF7FEFF 		bl	HAL_GetTick
 743              	.LVL38:
1052:Drivers/STM32F3xx_HAL_Driver/Src/stm32f3xx_hal_can.c **** 
 744              		.loc 1 1052 17 view .LVU239
 745 0028 0546     		mov	r5, r0
 746              	.LVL39:
1055:Drivers/STM32F3xx_HAL_Driver/Src/stm32f3xx_hal_can.c ****     {
 747              		.loc 1 1055 5 is_stmt 1 view .LVU240
 748              	.L63:
1055:Drivers/STM32F3xx_HAL_Driver/Src/stm32f3xx_hal_can.c ****     {
 749              		.loc 1 1055 49 view .LVU241
1055:Drivers/STM32F3xx_HAL_Driver/Src/stm32f3xx_hal_can.c ****     {
 750              		.loc 1 1055 17 is_stmt 0 view .LVU242
 751 002a 2368     		ldr	r3, [r4]
1055:Drivers/STM32F3xx_HAL_Driver/Src/stm32f3xx_hal_can.c ****     {
 752              		.loc 1 1055 27 view .LVU243
 753 002c 5A68     		ldr	r2, [r3, #4]
1055:Drivers/STM32F3xx_HAL_Driver/Src/stm32f3xx_hal_can.c ****     {
 754              		.loc 1 1055 49 view .LVU244
 755 002e 12F0010F 		tst	r2, #1
 756 0032 0DD1     		bne	.L68
1058:Drivers/STM32F3xx_HAL_Driver/Src/stm32f3xx_hal_can.c ****       {
 757              		.loc 1 1058 7 is_stmt 1 view .LVU245
1058:Drivers/STM32F3xx_HAL_Driver/Src/stm32f3xx_hal_can.c ****       {
 758              		.loc 1 1058 12 is_stmt 0 view .LVU246
 759 0034 FFF7FEFF 		bl	HAL_GetTick
 760              	.LVL40:
1058:Drivers/STM32F3xx_HAL_Driver/Src/stm32f3xx_hal_can.c ****       {
 761              		.loc 1 1058 26 discriminator 1 view .LVU247
 762 0038 431B     		subs	r3, r0, r5
1058:Drivers/STM32F3xx_HAL_Driver/Src/stm32f3xx_hal_can.c ****       {
 763              		.loc 1 1058 10 discriminator 1 view .LVU248
 764 003a 0A2B     		cmp	r3, #10
 765 003c F5D9     		bls	.L63
1061:Drivers/STM32F3xx_HAL_Driver/Src/stm32f3xx_hal_can.c **** 
 766              		.loc 1 1061 9 is_stmt 1 view .LVU249
1061:Drivers/STM32F3xx_HAL_Driver/Src/stm32f3xx_hal_can.c **** 
 767              		.loc 1 1061 13 is_stmt 0 view .LVU250
 768 003e 636A     		ldr	r3, [r4, #36]
1061:Drivers/STM32F3xx_HAL_Driver/Src/stm32f3xx_hal_can.c **** 
 769              		.loc 1 1061 25 view .LVU251
 770 0040 43F40033 		orr	r3, r3, #131072
 771 0044 6362     		str	r3, [r4, #36]
1064:Drivers/STM32F3xx_HAL_Driver/Src/stm32f3xx_hal_can.c **** 
ARM GAS  C:\msys64\tmp\cc8m32jh.s 			page 37


 772              		.loc 1 1064 9 is_stmt 1 view .LVU252
1064:Drivers/STM32F3xx_HAL_Driver/Src/stm32f3xx_hal_can.c **** 
 773              		.loc 1 1064 21 is_stmt 0 view .LVU253
 774 0046 0523     		movs	r3, #5
 775 0048 84F82030 		strb	r3, [r4, #32]
1066:Drivers/STM32F3xx_HAL_Driver/Src/stm32f3xx_hal_can.c ****       }
 776              		.loc 1 1066 9 is_stmt 1 view .LVU254
1066:Drivers/STM32F3xx_HAL_Driver/Src/stm32f3xx_hal_can.c ****       }
 777              		.loc 1 1066 16 is_stmt 0 view .LVU255
 778 004c 0120     		movs	r0, #1
 779 004e E3E7     		b	.L64
 780              	.L68:
1071:Drivers/STM32F3xx_HAL_Driver/Src/stm32f3xx_hal_can.c **** 
 781              		.loc 1 1071 5 is_stmt 1 view .LVU256
 782 0050 1A68     		ldr	r2, [r3]
 783 0052 22F00202 		bic	r2, r2, #2
 784 0056 1A60     		str	r2, [r3]
1074:Drivers/STM32F3xx_HAL_Driver/Src/stm32f3xx_hal_can.c **** 
 785              		.loc 1 1074 5 view .LVU257
1074:Drivers/STM32F3xx_HAL_Driver/Src/stm32f3xx_hal_can.c **** 
 786              		.loc 1 1074 17 is_stmt 0 view .LVU258
 787 0058 0123     		movs	r3, #1
 788 005a 84F82030 		strb	r3, [r4, #32]
1077:Drivers/STM32F3xx_HAL_Driver/Src/stm32f3xx_hal_can.c ****   }
 789              		.loc 1 1077 5 is_stmt 1 view .LVU259
1077:Drivers/STM32F3xx_HAL_Driver/Src/stm32f3xx_hal_can.c ****   }
 790              		.loc 1 1077 12 is_stmt 0 view .LVU260
 791 005e 0020     		movs	r0, #0
 792 0060 DAE7     		b	.L64
 793              		.cfi_endproc
 794              	.LFE129:
 796              		.section	.text.HAL_CAN_DeInit,"ax",%progbits
 797              		.align	1
 798              		.global	HAL_CAN_DeInit
 799              		.syntax unified
 800              		.thumb
 801              		.thumb_func
 803              	HAL_CAN_DeInit:
 804              	.LVL41:
 805              	.LFB124:
 461:Drivers/STM32F3xx_HAL_Driver/Src/stm32f3xx_hal_can.c ****   /* Check CAN handle */
 806              		.loc 1 461 1 is_stmt 1 view -0
 807              		.cfi_startproc
 808              		@ args = 0, pretend = 0, frame = 0
 809              		@ frame_needed = 0, uses_anonymous_args = 0
 463:Drivers/STM32F3xx_HAL_Driver/Src/stm32f3xx_hal_can.c ****   {
 810              		.loc 1 463 3 view .LVU262
 463:Drivers/STM32F3xx_HAL_Driver/Src/stm32f3xx_hal_can.c ****   {
 811              		.loc 1 463 6 is_stmt 0 view .LVU263
 812 0000 80B1     		cbz	r0, .L71
 461:Drivers/STM32F3xx_HAL_Driver/Src/stm32f3xx_hal_can.c ****   /* Check CAN handle */
 813              		.loc 1 461 1 view .LVU264
 814 0002 10B5     		push	{r4, lr}
 815              	.LCFI7:
 816              		.cfi_def_cfa_offset 8
 817              		.cfi_offset 4, -8
 818              		.cfi_offset 14, -4
ARM GAS  C:\msys64\tmp\cc8m32jh.s 			page 38


 819 0004 0446     		mov	r4, r0
 469:Drivers/STM32F3xx_HAL_Driver/Src/stm32f3xx_hal_can.c **** 
 820              		.loc 1 469 3 is_stmt 1 view .LVU265
 472:Drivers/STM32F3xx_HAL_Driver/Src/stm32f3xx_hal_can.c **** 
 821              		.loc 1 472 3 view .LVU266
 472:Drivers/STM32F3xx_HAL_Driver/Src/stm32f3xx_hal_can.c **** 
 822              		.loc 1 472 9 is_stmt 0 view .LVU267
 823 0006 FFF7FEFF 		bl	HAL_CAN_Stop
 824              	.LVL42:
 485:Drivers/STM32F3xx_HAL_Driver/Src/stm32f3xx_hal_can.c **** #endif /* USE_HAL_CAN_REGISTER_CALLBACKS */
 825              		.loc 1 485 3 is_stmt 1 view .LVU268
 826 000a 2046     		mov	r0, r4
 827 000c FFF7FEFF 		bl	HAL_CAN_MspDeInit
 828              	.LVL43:
 489:Drivers/STM32F3xx_HAL_Driver/Src/stm32f3xx_hal_can.c **** 
 829              		.loc 1 489 3 view .LVU269
 830 0010 2268     		ldr	r2, [r4]
 831 0012 1368     		ldr	r3, [r2]
 832 0014 43F40043 		orr	r3, r3, #32768
 833 0018 1360     		str	r3, [r2]
 492:Drivers/STM32F3xx_HAL_Driver/Src/stm32f3xx_hal_can.c **** 
 834              		.loc 1 492 3 view .LVU270
 492:Drivers/STM32F3xx_HAL_Driver/Src/stm32f3xx_hal_can.c **** 
 835              		.loc 1 492 19 is_stmt 0 view .LVU271
 836 001a 0020     		movs	r0, #0
 837 001c 6062     		str	r0, [r4, #36]
 495:Drivers/STM32F3xx_HAL_Driver/Src/stm32f3xx_hal_can.c **** 
 838              		.loc 1 495 3 is_stmt 1 view .LVU272
 495:Drivers/STM32F3xx_HAL_Driver/Src/stm32f3xx_hal_can.c **** 
 839              		.loc 1 495 15 is_stmt 0 view .LVU273
 840 001e 84F82000 		strb	r0, [r4, #32]
 498:Drivers/STM32F3xx_HAL_Driver/Src/stm32f3xx_hal_can.c **** }
 841              		.loc 1 498 3 is_stmt 1 view .LVU274
 499:Drivers/STM32F3xx_HAL_Driver/Src/stm32f3xx_hal_can.c **** 
 842              		.loc 1 499 1 is_stmt 0 view .LVU275
 843 0022 10BD     		pop	{r4, pc}
 844              	.LVL44:
 845              	.L71:
 846              	.LCFI8:
 847              		.cfi_def_cfa_offset 0
 848              		.cfi_restore 4
 849              		.cfi_restore 14
 465:Drivers/STM32F3xx_HAL_Driver/Src/stm32f3xx_hal_can.c ****   }
 850              		.loc 1 465 12 view .LVU276
 851 0024 0120     		movs	r0, #1
 852              	.LVL45:
 499:Drivers/STM32F3xx_HAL_Driver/Src/stm32f3xx_hal_can.c **** 
 853              		.loc 1 499 1 view .LVU277
 854 0026 7047     		bx	lr
 855              		.cfi_endproc
 856              	.LFE124:
 858              		.section	.text.HAL_CAN_RequestSleep,"ax",%progbits
 859              		.align	1
 860              		.global	HAL_CAN_RequestSleep
 861              		.syntax unified
 862              		.thumb
 863              		.thumb_func
ARM GAS  C:\msys64\tmp\cc8m32jh.s 			page 39


 865              	HAL_CAN_RequestSleep:
 866              	.LVL46:
 867              	.LFB130:
1087:Drivers/STM32F3xx_HAL_Driver/Src/stm32f3xx_hal_can.c **** 
1088:Drivers/STM32F3xx_HAL_Driver/Src/stm32f3xx_hal_can.c **** /**
1089:Drivers/STM32F3xx_HAL_Driver/Src/stm32f3xx_hal_can.c ****   * @brief  Request the sleep mode (low power) entry.
1090:Drivers/STM32F3xx_HAL_Driver/Src/stm32f3xx_hal_can.c ****   *         When returning from this function, Sleep mode will be entered
1091:Drivers/STM32F3xx_HAL_Driver/Src/stm32f3xx_hal_can.c ****   *         as soon as the current CAN activity (transmission or reception
1092:Drivers/STM32F3xx_HAL_Driver/Src/stm32f3xx_hal_can.c ****   *         of a CAN frame) has been completed.
1093:Drivers/STM32F3xx_HAL_Driver/Src/stm32f3xx_hal_can.c ****   * @param  hcan pointer to a CAN_HandleTypeDef structure that contains
1094:Drivers/STM32F3xx_HAL_Driver/Src/stm32f3xx_hal_can.c ****   *         the configuration information for the specified CAN.
1095:Drivers/STM32F3xx_HAL_Driver/Src/stm32f3xx_hal_can.c ****   * @retval HAL status.
1096:Drivers/STM32F3xx_HAL_Driver/Src/stm32f3xx_hal_can.c ****   */
1097:Drivers/STM32F3xx_HAL_Driver/Src/stm32f3xx_hal_can.c **** HAL_StatusTypeDef HAL_CAN_RequestSleep(CAN_HandleTypeDef *hcan)
1098:Drivers/STM32F3xx_HAL_Driver/Src/stm32f3xx_hal_can.c **** {
 868              		.loc 1 1098 1 is_stmt 1 view -0
 869              		.cfi_startproc
 870              		@ args = 0, pretend = 0, frame = 0
 871              		@ frame_needed = 0, uses_anonymous_args = 0
 872              		@ link register save eliminated.
1099:Drivers/STM32F3xx_HAL_Driver/Src/stm32f3xx_hal_can.c ****   HAL_CAN_StateTypeDef state = hcan->State;
 873              		.loc 1 1099 3 view .LVU279
 874              		.loc 1 1099 24 is_stmt 0 view .LVU280
 875 0000 90F82030 		ldrb	r3, [r0, #32]	@ zero_extendqisi2
 876              	.LVL47:
1100:Drivers/STM32F3xx_HAL_Driver/Src/stm32f3xx_hal_can.c **** 
1101:Drivers/STM32F3xx_HAL_Driver/Src/stm32f3xx_hal_can.c ****   if ((state == HAL_CAN_STATE_READY) ||
 877              		.loc 1 1101 3 is_stmt 1 view .LVU281
 878              		.loc 1 1101 38 is_stmt 0 view .LVU282
 879 0004 013B     		subs	r3, r3, #1
 880              	.LVL48:
 881              		.loc 1 1101 38 view .LVU283
 882 0006 DBB2     		uxtb	r3, r3
 883              	.LVL49:
 884              		.loc 1 1101 6 view .LVU284
 885 0008 012B     		cmp	r3, #1
 886 000a 05D9     		bls	.L79
1102:Drivers/STM32F3xx_HAL_Driver/Src/stm32f3xx_hal_can.c ****       (state == HAL_CAN_STATE_LISTENING))
1103:Drivers/STM32F3xx_HAL_Driver/Src/stm32f3xx_hal_can.c ****   {
1104:Drivers/STM32F3xx_HAL_Driver/Src/stm32f3xx_hal_can.c ****     /* Request Sleep mode */
1105:Drivers/STM32F3xx_HAL_Driver/Src/stm32f3xx_hal_can.c ****     SET_BIT(hcan->Instance->MCR, CAN_MCR_SLEEP);
1106:Drivers/STM32F3xx_HAL_Driver/Src/stm32f3xx_hal_can.c **** 
1107:Drivers/STM32F3xx_HAL_Driver/Src/stm32f3xx_hal_can.c ****     /* Return function status */
1108:Drivers/STM32F3xx_HAL_Driver/Src/stm32f3xx_hal_can.c ****     return HAL_OK;
1109:Drivers/STM32F3xx_HAL_Driver/Src/stm32f3xx_hal_can.c ****   }
1110:Drivers/STM32F3xx_HAL_Driver/Src/stm32f3xx_hal_can.c ****   else
1111:Drivers/STM32F3xx_HAL_Driver/Src/stm32f3xx_hal_can.c ****   {
1112:Drivers/STM32F3xx_HAL_Driver/Src/stm32f3xx_hal_can.c ****     /* Update error code */
1113:Drivers/STM32F3xx_HAL_Driver/Src/stm32f3xx_hal_can.c ****     hcan->ErrorCode |= HAL_CAN_ERROR_NOT_INITIALIZED;
 887              		.loc 1 1113 5 is_stmt 1 view .LVU285
 888              		.loc 1 1113 9 is_stmt 0 view .LVU286
 889 000c 436A     		ldr	r3, [r0, #36]
 890              		.loc 1 1113 21 view .LVU287
 891 000e 43F48023 		orr	r3, r3, #262144
 892 0012 4362     		str	r3, [r0, #36]
1114:Drivers/STM32F3xx_HAL_Driver/Src/stm32f3xx_hal_can.c **** 
1115:Drivers/STM32F3xx_HAL_Driver/Src/stm32f3xx_hal_can.c ****     /* Return function status */
ARM GAS  C:\msys64\tmp\cc8m32jh.s 			page 40


1116:Drivers/STM32F3xx_HAL_Driver/Src/stm32f3xx_hal_can.c ****     return HAL_ERROR;
 893              		.loc 1 1116 5 is_stmt 1 view .LVU288
 894              		.loc 1 1116 12 is_stmt 0 view .LVU289
 895 0014 0120     		movs	r0, #1
 896              	.LVL50:
1117:Drivers/STM32F3xx_HAL_Driver/Src/stm32f3xx_hal_can.c ****   }
1118:Drivers/STM32F3xx_HAL_Driver/Src/stm32f3xx_hal_can.c **** }
 897              		.loc 1 1118 1 view .LVU290
 898 0016 7047     		bx	lr
 899              	.LVL51:
 900              	.L79:
1105:Drivers/STM32F3xx_HAL_Driver/Src/stm32f3xx_hal_can.c **** 
 901              		.loc 1 1105 5 is_stmt 1 view .LVU291
 902 0018 0268     		ldr	r2, [r0]
 903 001a 1368     		ldr	r3, [r2]
 904 001c 43F00203 		orr	r3, r3, #2
 905 0020 1360     		str	r3, [r2]
1108:Drivers/STM32F3xx_HAL_Driver/Src/stm32f3xx_hal_can.c ****   }
 906              		.loc 1 1108 5 view .LVU292
1108:Drivers/STM32F3xx_HAL_Driver/Src/stm32f3xx_hal_can.c ****   }
 907              		.loc 1 1108 12 is_stmt 0 view .LVU293
 908 0022 0020     		movs	r0, #0
 909              	.LVL52:
1108:Drivers/STM32F3xx_HAL_Driver/Src/stm32f3xx_hal_can.c ****   }
 910              		.loc 1 1108 12 view .LVU294
 911 0024 7047     		bx	lr
 912              		.cfi_endproc
 913              	.LFE130:
 915              		.section	.text.HAL_CAN_WakeUp,"ax",%progbits
 916              		.align	1
 917              		.global	HAL_CAN_WakeUp
 918              		.syntax unified
 919              		.thumb
 920              		.thumb_func
 922              	HAL_CAN_WakeUp:
 923              	.LVL53:
 924              	.LFB131:
1119:Drivers/STM32F3xx_HAL_Driver/Src/stm32f3xx_hal_can.c **** 
1120:Drivers/STM32F3xx_HAL_Driver/Src/stm32f3xx_hal_can.c **** /**
1121:Drivers/STM32F3xx_HAL_Driver/Src/stm32f3xx_hal_can.c ****   * @brief  Wake up from sleep mode.
1122:Drivers/STM32F3xx_HAL_Driver/Src/stm32f3xx_hal_can.c ****   *         When returning with HAL_OK status from this function, Sleep mode
1123:Drivers/STM32F3xx_HAL_Driver/Src/stm32f3xx_hal_can.c ****   *         is exited.
1124:Drivers/STM32F3xx_HAL_Driver/Src/stm32f3xx_hal_can.c ****   * @param  hcan pointer to a CAN_HandleTypeDef structure that contains
1125:Drivers/STM32F3xx_HAL_Driver/Src/stm32f3xx_hal_can.c ****   *         the configuration information for the specified CAN.
1126:Drivers/STM32F3xx_HAL_Driver/Src/stm32f3xx_hal_can.c ****   * @retval HAL status.
1127:Drivers/STM32F3xx_HAL_Driver/Src/stm32f3xx_hal_can.c ****   */
1128:Drivers/STM32F3xx_HAL_Driver/Src/stm32f3xx_hal_can.c **** HAL_StatusTypeDef HAL_CAN_WakeUp(CAN_HandleTypeDef *hcan)
1129:Drivers/STM32F3xx_HAL_Driver/Src/stm32f3xx_hal_can.c **** {
 925              		.loc 1 1129 1 is_stmt 1 view -0
 926              		.cfi_startproc
 927              		@ args = 0, pretend = 0, frame = 8
 928              		@ frame_needed = 0, uses_anonymous_args = 0
 929              		@ link register save eliminated.
 930              		.loc 1 1129 1 is_stmt 0 view .LVU296
 931 0000 82B0     		sub	sp, sp, #8
 932              	.LCFI9:
 933              		.cfi_def_cfa_offset 8
ARM GAS  C:\msys64\tmp\cc8m32jh.s 			page 41


1130:Drivers/STM32F3xx_HAL_Driver/Src/stm32f3xx_hal_can.c ****   __IO uint32_t count = 0;
 934              		.loc 1 1130 3 is_stmt 1 view .LVU297
 935              		.loc 1 1130 17 is_stmt 0 view .LVU298
 936 0002 0023     		movs	r3, #0
 937 0004 0193     		str	r3, [sp, #4]
1131:Drivers/STM32F3xx_HAL_Driver/Src/stm32f3xx_hal_can.c ****   HAL_CAN_StateTypeDef state = hcan->State;
 938              		.loc 1 1131 3 is_stmt 1 view .LVU299
 939              		.loc 1 1131 24 is_stmt 0 view .LVU300
 940 0006 90F82030 		ldrb	r3, [r0, #32]	@ zero_extendqisi2
 941              	.LVL54:
1132:Drivers/STM32F3xx_HAL_Driver/Src/stm32f3xx_hal_can.c **** 
1133:Drivers/STM32F3xx_HAL_Driver/Src/stm32f3xx_hal_can.c ****   if ((state == HAL_CAN_STATE_READY) ||
 942              		.loc 1 1133 3 is_stmt 1 view .LVU301
 943              		.loc 1 1133 38 is_stmt 0 view .LVU302
 944 000a 013B     		subs	r3, r3, #1
 945              	.LVL55:
 946              		.loc 1 1133 38 view .LVU303
 947 000c DBB2     		uxtb	r3, r3
 948              	.LVL56:
 949              		.loc 1 1133 6 view .LVU304
 950 000e 012B     		cmp	r3, #1
 951 0010 18D8     		bhi	.L81
1134:Drivers/STM32F3xx_HAL_Driver/Src/stm32f3xx_hal_can.c ****       (state == HAL_CAN_STATE_LISTENING))
1135:Drivers/STM32F3xx_HAL_Driver/Src/stm32f3xx_hal_can.c ****   {
1136:Drivers/STM32F3xx_HAL_Driver/Src/stm32f3xx_hal_can.c ****     /* Wake up request */
1137:Drivers/STM32F3xx_HAL_Driver/Src/stm32f3xx_hal_can.c ****     CLEAR_BIT(hcan->Instance->MCR, CAN_MCR_SLEEP);
 952              		.loc 1 1137 5 is_stmt 1 view .LVU305
 953 0012 0268     		ldr	r2, [r0]
 954 0014 1368     		ldr	r3, [r2]
 955 0016 23F00203 		bic	r3, r3, #2
 956 001a 1360     		str	r3, [r2]
 957              	.L84:
1138:Drivers/STM32F3xx_HAL_Driver/Src/stm32f3xx_hal_can.c **** 
1139:Drivers/STM32F3xx_HAL_Driver/Src/stm32f3xx_hal_can.c ****     /* Wait sleep mode is exited */
1140:Drivers/STM32F3xx_HAL_Driver/Src/stm32f3xx_hal_can.c ****     do
 958              		.loc 1 1140 5 view .LVU306
1141:Drivers/STM32F3xx_HAL_Driver/Src/stm32f3xx_hal_can.c ****     {
1142:Drivers/STM32F3xx_HAL_Driver/Src/stm32f3xx_hal_can.c ****       /* Increment counter */
1143:Drivers/STM32F3xx_HAL_Driver/Src/stm32f3xx_hal_can.c ****       count++;
 959              		.loc 1 1143 7 view .LVU307
 960              		.loc 1 1143 12 is_stmt 0 view .LVU308
 961 001c 019B     		ldr	r3, [sp, #4]
 962 001e 0133     		adds	r3, r3, #1
 963 0020 0193     		str	r3, [sp, #4]
1144:Drivers/STM32F3xx_HAL_Driver/Src/stm32f3xx_hal_can.c **** 
1145:Drivers/STM32F3xx_HAL_Driver/Src/stm32f3xx_hal_can.c ****       /* Check if timeout is reached */
1146:Drivers/STM32F3xx_HAL_Driver/Src/stm32f3xx_hal_can.c ****       if (count > CAN_WAKEUP_TIMEOUT_COUNTER)
 964              		.loc 1 1146 7 is_stmt 1 view .LVU309
 965              		.loc 1 1146 17 is_stmt 0 view .LVU310
 966 0022 019A     		ldr	r2, [sp, #4]
 967              		.loc 1 1146 10 view .LVU311
 968 0024 0B4B     		ldr	r3, .L87
 969 0026 9A42     		cmp	r2, r3
 970 0028 06D8     		bhi	.L86
1147:Drivers/STM32F3xx_HAL_Driver/Src/stm32f3xx_hal_can.c ****       {
1148:Drivers/STM32F3xx_HAL_Driver/Src/stm32f3xx_hal_can.c ****         /* Update error code */
1149:Drivers/STM32F3xx_HAL_Driver/Src/stm32f3xx_hal_can.c ****         hcan->ErrorCode |= HAL_CAN_ERROR_TIMEOUT;
ARM GAS  C:\msys64\tmp\cc8m32jh.s 			page 42


1150:Drivers/STM32F3xx_HAL_Driver/Src/stm32f3xx_hal_can.c **** 
1151:Drivers/STM32F3xx_HAL_Driver/Src/stm32f3xx_hal_can.c ****         return HAL_ERROR;
1152:Drivers/STM32F3xx_HAL_Driver/Src/stm32f3xx_hal_can.c ****       }
1153:Drivers/STM32F3xx_HAL_Driver/Src/stm32f3xx_hal_can.c ****     } while ((hcan->Instance->MSR & CAN_MSR_SLAK) != 0U);
 971              		.loc 1 1153 51 is_stmt 1 view .LVU312
 972              		.loc 1 1153 19 is_stmt 0 view .LVU313
 973 002a 0368     		ldr	r3, [r0]
 974              		.loc 1 1153 29 view .LVU314
 975 002c 5B68     		ldr	r3, [r3, #4]
 976              		.loc 1 1153 51 view .LVU315
 977 002e 13F0020F 		tst	r3, #2
 978 0032 F3D1     		bne	.L84
1154:Drivers/STM32F3xx_HAL_Driver/Src/stm32f3xx_hal_can.c **** 
1155:Drivers/STM32F3xx_HAL_Driver/Src/stm32f3xx_hal_can.c ****     /* Return function status */
1156:Drivers/STM32F3xx_HAL_Driver/Src/stm32f3xx_hal_can.c ****     return HAL_OK;
 979              		.loc 1 1156 12 view .LVU316
 980 0034 0020     		movs	r0, #0
 981              	.LVL57:
 982              		.loc 1 1156 12 view .LVU317
 983 0036 0AE0     		b	.L83
 984              	.LVL58:
 985              	.L86:
1149:Drivers/STM32F3xx_HAL_Driver/Src/stm32f3xx_hal_can.c **** 
 986              		.loc 1 1149 9 is_stmt 1 view .LVU318
1149:Drivers/STM32F3xx_HAL_Driver/Src/stm32f3xx_hal_can.c **** 
 987              		.loc 1 1149 13 is_stmt 0 view .LVU319
 988 0038 436A     		ldr	r3, [r0, #36]
1149:Drivers/STM32F3xx_HAL_Driver/Src/stm32f3xx_hal_can.c **** 
 989              		.loc 1 1149 25 view .LVU320
 990 003a 43F40033 		orr	r3, r3, #131072
 991 003e 4362     		str	r3, [r0, #36]
1151:Drivers/STM32F3xx_HAL_Driver/Src/stm32f3xx_hal_can.c ****       }
 992              		.loc 1 1151 9 is_stmt 1 view .LVU321
1151:Drivers/STM32F3xx_HAL_Driver/Src/stm32f3xx_hal_can.c ****       }
 993              		.loc 1 1151 16 is_stmt 0 view .LVU322
 994 0040 0120     		movs	r0, #1
 995              	.LVL59:
1151:Drivers/STM32F3xx_HAL_Driver/Src/stm32f3xx_hal_can.c ****       }
 996              		.loc 1 1151 16 view .LVU323
 997 0042 04E0     		b	.L83
 998              	.LVL60:
 999              	.L81:
1157:Drivers/STM32F3xx_HAL_Driver/Src/stm32f3xx_hal_can.c ****   }
1158:Drivers/STM32F3xx_HAL_Driver/Src/stm32f3xx_hal_can.c ****   else
1159:Drivers/STM32F3xx_HAL_Driver/Src/stm32f3xx_hal_can.c ****   {
1160:Drivers/STM32F3xx_HAL_Driver/Src/stm32f3xx_hal_can.c ****     /* Update error code */
1161:Drivers/STM32F3xx_HAL_Driver/Src/stm32f3xx_hal_can.c ****     hcan->ErrorCode |= HAL_CAN_ERROR_NOT_INITIALIZED;
 1000              		.loc 1 1161 5 is_stmt 1 view .LVU324
 1001              		.loc 1 1161 9 is_stmt 0 view .LVU325
 1002 0044 436A     		ldr	r3, [r0, #36]
 1003              		.loc 1 1161 21 view .LVU326
 1004 0046 43F48023 		orr	r3, r3, #262144
 1005 004a 4362     		str	r3, [r0, #36]
1162:Drivers/STM32F3xx_HAL_Driver/Src/stm32f3xx_hal_can.c **** 
1163:Drivers/STM32F3xx_HAL_Driver/Src/stm32f3xx_hal_can.c ****     return HAL_ERROR;
 1006              		.loc 1 1163 5 is_stmt 1 view .LVU327
 1007              		.loc 1 1163 12 is_stmt 0 view .LVU328
ARM GAS  C:\msys64\tmp\cc8m32jh.s 			page 43


 1008 004c 0120     		movs	r0, #1
 1009              	.LVL61:
 1010              	.L83:
1164:Drivers/STM32F3xx_HAL_Driver/Src/stm32f3xx_hal_can.c ****   }
1165:Drivers/STM32F3xx_HAL_Driver/Src/stm32f3xx_hal_can.c **** }
 1011              		.loc 1 1165 1 view .LVU329
 1012 004e 02B0     		add	sp, sp, #8
 1013              	.LCFI10:
 1014              		.cfi_def_cfa_offset 0
 1015              		@ sp needed
 1016 0050 7047     		bx	lr
 1017              	.L88:
 1018 0052 00BF     		.align	2
 1019              	.L87:
 1020 0054 40420F00 		.word	1000000
 1021              		.cfi_endproc
 1022              	.LFE131:
 1024              		.section	.text.HAL_CAN_IsSleepActive,"ax",%progbits
 1025              		.align	1
 1026              		.global	HAL_CAN_IsSleepActive
 1027              		.syntax unified
 1028              		.thumb
 1029              		.thumb_func
 1031              	HAL_CAN_IsSleepActive:
 1032              	.LVL62:
 1033              	.LFB132:
1166:Drivers/STM32F3xx_HAL_Driver/Src/stm32f3xx_hal_can.c **** 
1167:Drivers/STM32F3xx_HAL_Driver/Src/stm32f3xx_hal_can.c **** /**
1168:Drivers/STM32F3xx_HAL_Driver/Src/stm32f3xx_hal_can.c ****   * @brief  Check is sleep mode is active.
1169:Drivers/STM32F3xx_HAL_Driver/Src/stm32f3xx_hal_can.c ****   * @param  hcan pointer to a CAN_HandleTypeDef structure that contains
1170:Drivers/STM32F3xx_HAL_Driver/Src/stm32f3xx_hal_can.c ****   *         the configuration information for the specified CAN.
1171:Drivers/STM32F3xx_HAL_Driver/Src/stm32f3xx_hal_can.c ****   * @retval Status
1172:Drivers/STM32F3xx_HAL_Driver/Src/stm32f3xx_hal_can.c ****   *          - 0 : Sleep mode is not active.
1173:Drivers/STM32F3xx_HAL_Driver/Src/stm32f3xx_hal_can.c ****   *          - 1 : Sleep mode is active.
1174:Drivers/STM32F3xx_HAL_Driver/Src/stm32f3xx_hal_can.c ****   */
1175:Drivers/STM32F3xx_HAL_Driver/Src/stm32f3xx_hal_can.c **** uint32_t HAL_CAN_IsSleepActive(const CAN_HandleTypeDef *hcan)
1176:Drivers/STM32F3xx_HAL_Driver/Src/stm32f3xx_hal_can.c **** {
 1034              		.loc 1 1176 1 is_stmt 1 view -0
 1035              		.cfi_startproc
 1036              		@ args = 0, pretend = 0, frame = 0
 1037              		@ frame_needed = 0, uses_anonymous_args = 0
 1038              		@ link register save eliminated.
1177:Drivers/STM32F3xx_HAL_Driver/Src/stm32f3xx_hal_can.c ****   uint32_t status = 0U;
 1039              		.loc 1 1177 3 view .LVU331
1178:Drivers/STM32F3xx_HAL_Driver/Src/stm32f3xx_hal_can.c ****   HAL_CAN_StateTypeDef state = hcan->State;
 1040              		.loc 1 1178 3 view .LVU332
 1041              		.loc 1 1178 24 is_stmt 0 view .LVU333
 1042 0000 90F82030 		ldrb	r3, [r0, #32]	@ zero_extendqisi2
 1043              	.LVL63:
1179:Drivers/STM32F3xx_HAL_Driver/Src/stm32f3xx_hal_can.c **** 
1180:Drivers/STM32F3xx_HAL_Driver/Src/stm32f3xx_hal_can.c ****   if ((state == HAL_CAN_STATE_READY) ||
 1044              		.loc 1 1180 3 is_stmt 1 view .LVU334
 1045              		.loc 1 1180 38 is_stmt 0 view .LVU335
 1046 0004 013B     		subs	r3, r3, #1
 1047              	.LVL64:
 1048              		.loc 1 1180 38 view .LVU336
 1049 0006 DBB2     		uxtb	r3, r3
ARM GAS  C:\msys64\tmp\cc8m32jh.s 			page 44


 1050              	.LVL65:
 1051              		.loc 1 1180 6 view .LVU337
 1052 0008 012B     		cmp	r3, #1
 1053 000a 01D9     		bls	.L93
1177:Drivers/STM32F3xx_HAL_Driver/Src/stm32f3xx_hal_can.c ****   HAL_CAN_StateTypeDef state = hcan->State;
 1054              		.loc 1 1177 12 view .LVU338
 1055 000c 0020     		movs	r0, #0
 1056              	.LVL66:
1177:Drivers/STM32F3xx_HAL_Driver/Src/stm32f3xx_hal_can.c ****   HAL_CAN_StateTypeDef state = hcan->State;
 1057              		.loc 1 1177 12 view .LVU339
 1058 000e 7047     		bx	lr
 1059              	.LVL67:
 1060              	.L93:
1181:Drivers/STM32F3xx_HAL_Driver/Src/stm32f3xx_hal_can.c ****       (state == HAL_CAN_STATE_LISTENING))
1182:Drivers/STM32F3xx_HAL_Driver/Src/stm32f3xx_hal_can.c ****   {
1183:Drivers/STM32F3xx_HAL_Driver/Src/stm32f3xx_hal_can.c ****     /* Check Sleep mode */
1184:Drivers/STM32F3xx_HAL_Driver/Src/stm32f3xx_hal_can.c ****     if ((hcan->Instance->MSR & CAN_MSR_SLAK) != 0U)
 1061              		.loc 1 1184 5 is_stmt 1 view .LVU340
 1062              		.loc 1 1184 14 is_stmt 0 view .LVU341
 1063 0010 0368     		ldr	r3, [r0]
 1064              		.loc 1 1184 24 view .LVU342
 1065 0012 5868     		ldr	r0, [r3, #4]
 1066              	.LVL68:
 1067              		.loc 1 1184 8 view .LVU343
 1068 0014 10F00200 		ands	r0, r0, #2
 1069 0018 00D1     		bne	.L92
 1070 001a 7047     		bx	lr
 1071              	.L92:
1185:Drivers/STM32F3xx_HAL_Driver/Src/stm32f3xx_hal_can.c ****     {
1186:Drivers/STM32F3xx_HAL_Driver/Src/stm32f3xx_hal_can.c ****       status = 1U;
 1072              		.loc 1 1186 14 view .LVU344
 1073 001c 0120     		movs	r0, #1
 1074              	.LVL69:
1187:Drivers/STM32F3xx_HAL_Driver/Src/stm32f3xx_hal_can.c ****     }
1188:Drivers/STM32F3xx_HAL_Driver/Src/stm32f3xx_hal_can.c ****   }
1189:Drivers/STM32F3xx_HAL_Driver/Src/stm32f3xx_hal_can.c **** 
1190:Drivers/STM32F3xx_HAL_Driver/Src/stm32f3xx_hal_can.c ****   /* Return function status */
1191:Drivers/STM32F3xx_HAL_Driver/Src/stm32f3xx_hal_can.c ****   return status;
 1075              		.loc 1 1191 3 is_stmt 1 view .LVU345
1192:Drivers/STM32F3xx_HAL_Driver/Src/stm32f3xx_hal_can.c **** }
 1076              		.loc 1 1192 1 is_stmt 0 view .LVU346
 1077 001e 7047     		bx	lr
 1078              		.cfi_endproc
 1079              	.LFE132:
 1081              		.section	.text.HAL_CAN_AddTxMessage,"ax",%progbits
 1082              		.align	1
 1083              		.global	HAL_CAN_AddTxMessage
 1084              		.syntax unified
 1085              		.thumb
 1086              		.thumb_func
 1088              	HAL_CAN_AddTxMessage:
 1089              	.LVL70:
 1090              	.LFB133:
1193:Drivers/STM32F3xx_HAL_Driver/Src/stm32f3xx_hal_can.c **** 
1194:Drivers/STM32F3xx_HAL_Driver/Src/stm32f3xx_hal_can.c **** /**
1195:Drivers/STM32F3xx_HAL_Driver/Src/stm32f3xx_hal_can.c ****   * @brief  Add a message to the first free Tx mailbox and activate the
1196:Drivers/STM32F3xx_HAL_Driver/Src/stm32f3xx_hal_can.c ****   *         corresponding transmission request.
ARM GAS  C:\msys64\tmp\cc8m32jh.s 			page 45


1197:Drivers/STM32F3xx_HAL_Driver/Src/stm32f3xx_hal_can.c ****   * @param  hcan pointer to a CAN_HandleTypeDef structure that contains
1198:Drivers/STM32F3xx_HAL_Driver/Src/stm32f3xx_hal_can.c ****   *         the configuration information for the specified CAN.
1199:Drivers/STM32F3xx_HAL_Driver/Src/stm32f3xx_hal_can.c ****   * @param  pHeader pointer to a CAN_TxHeaderTypeDef structure.
1200:Drivers/STM32F3xx_HAL_Driver/Src/stm32f3xx_hal_can.c ****   * @param  aData array containing the payload of the Tx frame.
1201:Drivers/STM32F3xx_HAL_Driver/Src/stm32f3xx_hal_can.c ****   * @param  pTxMailbox pointer to a variable where the function will return
1202:Drivers/STM32F3xx_HAL_Driver/Src/stm32f3xx_hal_can.c ****   *         the TxMailbox used to store the Tx message.
1203:Drivers/STM32F3xx_HAL_Driver/Src/stm32f3xx_hal_can.c ****   *         This parameter can be a value of @arg CAN_Tx_Mailboxes.
1204:Drivers/STM32F3xx_HAL_Driver/Src/stm32f3xx_hal_can.c ****   * @retval HAL status
1205:Drivers/STM32F3xx_HAL_Driver/Src/stm32f3xx_hal_can.c ****   */
1206:Drivers/STM32F3xx_HAL_Driver/Src/stm32f3xx_hal_can.c **** HAL_StatusTypeDef HAL_CAN_AddTxMessage(CAN_HandleTypeDef *hcan, const CAN_TxHeaderTypeDef *pHeader,
1207:Drivers/STM32F3xx_HAL_Driver/Src/stm32f3xx_hal_can.c ****                                        const uint8_t aData[], uint32_t *pTxMailbox)
1208:Drivers/STM32F3xx_HAL_Driver/Src/stm32f3xx_hal_can.c **** {
 1091              		.loc 1 1208 1 is_stmt 1 view -0
 1092              		.cfi_startproc
 1093              		@ args = 0, pretend = 0, frame = 0
 1094              		@ frame_needed = 0, uses_anonymous_args = 0
 1095              		.loc 1 1208 1 is_stmt 0 view .LVU348
 1096 0000 30B5     		push	{r4, r5, lr}
 1097              	.LCFI11:
 1098              		.cfi_def_cfa_offset 12
 1099              		.cfi_offset 4, -12
 1100              		.cfi_offset 5, -8
 1101              		.cfi_offset 14, -4
1209:Drivers/STM32F3xx_HAL_Driver/Src/stm32f3xx_hal_can.c ****   uint32_t transmitmailbox;
 1102              		.loc 1 1209 3 is_stmt 1 view .LVU349
1210:Drivers/STM32F3xx_HAL_Driver/Src/stm32f3xx_hal_can.c ****   HAL_CAN_StateTypeDef state = hcan->State;
 1103              		.loc 1 1210 3 view .LVU350
 1104              		.loc 1 1210 24 is_stmt 0 view .LVU351
 1105 0002 90F820C0 		ldrb	ip, [r0, #32]	@ zero_extendqisi2
 1106              	.LVL71:
1211:Drivers/STM32F3xx_HAL_Driver/Src/stm32f3xx_hal_can.c ****   uint32_t tsr = READ_REG(hcan->Instance->TSR);
 1107              		.loc 1 1211 3 is_stmt 1 view .LVU352
 1108              		.loc 1 1211 12 is_stmt 0 view .LVU353
 1109 0006 0468     		ldr	r4, [r0]
 1110 0008 A468     		ldr	r4, [r4, #8]
 1111              	.LVL72:
1212:Drivers/STM32F3xx_HAL_Driver/Src/stm32f3xx_hal_can.c **** 
1213:Drivers/STM32F3xx_HAL_Driver/Src/stm32f3xx_hal_can.c ****   /* Check the parameters */
1214:Drivers/STM32F3xx_HAL_Driver/Src/stm32f3xx_hal_can.c ****   assert_param(IS_CAN_IDTYPE(pHeader->IDE));
 1112              		.loc 1 1214 3 is_stmt 1 view .LVU354
1215:Drivers/STM32F3xx_HAL_Driver/Src/stm32f3xx_hal_can.c ****   assert_param(IS_CAN_RTR(pHeader->RTR));
 1113              		.loc 1 1215 3 view .LVU355
1216:Drivers/STM32F3xx_HAL_Driver/Src/stm32f3xx_hal_can.c ****   assert_param(IS_CAN_DLC(pHeader->DLC));
 1114              		.loc 1 1216 3 view .LVU356
1217:Drivers/STM32F3xx_HAL_Driver/Src/stm32f3xx_hal_can.c ****   if (pHeader->IDE == CAN_ID_STD)
 1115              		.loc 1 1217 3 view .LVU357
1218:Drivers/STM32F3xx_HAL_Driver/Src/stm32f3xx_hal_can.c ****   {
1219:Drivers/STM32F3xx_HAL_Driver/Src/stm32f3xx_hal_can.c ****     assert_param(IS_CAN_STDID(pHeader->StdId));
 1116              		.loc 1 1219 5 view .LVU358
1220:Drivers/STM32F3xx_HAL_Driver/Src/stm32f3xx_hal_can.c ****   }
1221:Drivers/STM32F3xx_HAL_Driver/Src/stm32f3xx_hal_can.c ****   else
1222:Drivers/STM32F3xx_HAL_Driver/Src/stm32f3xx_hal_can.c ****   {
1223:Drivers/STM32F3xx_HAL_Driver/Src/stm32f3xx_hal_can.c ****     assert_param(IS_CAN_EXTID(pHeader->ExtId));
 1117              		.loc 1 1223 5 view .LVU359
1224:Drivers/STM32F3xx_HAL_Driver/Src/stm32f3xx_hal_can.c ****   }
1225:Drivers/STM32F3xx_HAL_Driver/Src/stm32f3xx_hal_can.c ****   assert_param(IS_FUNCTIONAL_STATE(pHeader->TransmitGlobalTime));
 1118              		.loc 1 1225 3 view .LVU360
ARM GAS  C:\msys64\tmp\cc8m32jh.s 			page 46


1226:Drivers/STM32F3xx_HAL_Driver/Src/stm32f3xx_hal_can.c **** 
1227:Drivers/STM32F3xx_HAL_Driver/Src/stm32f3xx_hal_can.c ****   if ((state == HAL_CAN_STATE_READY) ||
 1119              		.loc 1 1227 3 view .LVU361
 1120              		.loc 1 1227 38 is_stmt 0 view .LVU362
 1121 000a 0CF1FF3C 		add	ip, ip, #-1
 1122              	.LVL73:
 1123              		.loc 1 1227 38 view .LVU363
 1124 000e 5FFA8CFC 		uxtb	ip, ip
 1125              	.LVL74:
 1126              		.loc 1 1227 6 view .LVU364
 1127 0012 BCF1010F 		cmp	ip, #1
 1128 0016 62D8     		bhi	.L95
1228:Drivers/STM32F3xx_HAL_Driver/Src/stm32f3xx_hal_can.c ****       (state == HAL_CAN_STATE_LISTENING))
1229:Drivers/STM32F3xx_HAL_Driver/Src/stm32f3xx_hal_can.c ****   {
1230:Drivers/STM32F3xx_HAL_Driver/Src/stm32f3xx_hal_can.c ****     /* Check that all the Tx mailboxes are not full */
1231:Drivers/STM32F3xx_HAL_Driver/Src/stm32f3xx_hal_can.c ****     if (((tsr & CAN_TSR_TME0) != 0U) ||
 1129              		.loc 1 1231 5 is_stmt 1 view .LVU365
 1130              		.loc 1 1231 8 is_stmt 0 view .LVU366
 1131 0018 14F0E05F 		tst	r4, #469762048
 1132 001c 59D0     		beq	.L96
1232:Drivers/STM32F3xx_HAL_Driver/Src/stm32f3xx_hal_can.c ****         ((tsr & CAN_TSR_TME1) != 0U) ||
1233:Drivers/STM32F3xx_HAL_Driver/Src/stm32f3xx_hal_can.c ****         ((tsr & CAN_TSR_TME2) != 0U))
1234:Drivers/STM32F3xx_HAL_Driver/Src/stm32f3xx_hal_can.c ****     {
1235:Drivers/STM32F3xx_HAL_Driver/Src/stm32f3xx_hal_can.c ****       /* Select an empty transmit mailbox */
1236:Drivers/STM32F3xx_HAL_Driver/Src/stm32f3xx_hal_can.c ****       transmitmailbox = (tsr & CAN_TSR_CODE) >> CAN_TSR_CODE_Pos;
 1133              		.loc 1 1236 7 is_stmt 1 view .LVU367
 1134              		.loc 1 1236 23 is_stmt 0 view .LVU368
 1135 001e C4F3016C 		ubfx	ip, r4, #24, #2
 1136              	.LVL75:
1237:Drivers/STM32F3xx_HAL_Driver/Src/stm32f3xx_hal_can.c **** 
1238:Drivers/STM32F3xx_HAL_Driver/Src/stm32f3xx_hal_can.c ****       /* Store the Tx mailbox */
1239:Drivers/STM32F3xx_HAL_Driver/Src/stm32f3xx_hal_can.c ****       *pTxMailbox = (uint32_t)1 << transmitmailbox;
 1137              		.loc 1 1239 7 is_stmt 1 view .LVU369
 1138              		.loc 1 1239 33 is_stmt 0 view .LVU370
 1139 0022 0124     		movs	r4, #1
 1140              	.LVL76:
 1141              		.loc 1 1239 33 view .LVU371
 1142 0024 04FA0CF4 		lsl	r4, r4, ip
 1143              		.loc 1 1239 19 view .LVU372
 1144 0028 1C60     		str	r4, [r3]
1240:Drivers/STM32F3xx_HAL_Driver/Src/stm32f3xx_hal_can.c **** 
1241:Drivers/STM32F3xx_HAL_Driver/Src/stm32f3xx_hal_can.c ****       /* Set up the Id */
1242:Drivers/STM32F3xx_HAL_Driver/Src/stm32f3xx_hal_can.c ****       if (pHeader->IDE == CAN_ID_STD)
 1145              		.loc 1 1242 7 is_stmt 1 view .LVU373
 1146              		.loc 1 1242 18 is_stmt 0 view .LVU374
 1147 002a 8B68     		ldr	r3, [r1, #8]
 1148              	.LVL77:
 1149              		.loc 1 1242 10 view .LVU375
 1150 002c 002B     		cmp	r3, #0
 1151 002e 3DD1     		bne	.L97
1243:Drivers/STM32F3xx_HAL_Driver/Src/stm32f3xx_hal_can.c ****       {
1244:Drivers/STM32F3xx_HAL_Driver/Src/stm32f3xx_hal_can.c ****         hcan->Instance->sTxMailBox[transmitmailbox].TIR = ((pHeader->StdId << CAN_TI0R_STID_Pos) |
 1152              		.loc 1 1244 9 is_stmt 1 view .LVU376
 1153              		.loc 1 1244 68 is_stmt 0 view .LVU377
 1154 0030 0D68     		ldr	r5, [r1]
1245:Drivers/STM32F3xx_HAL_Driver/Src/stm32f3xx_hal_can.c ****                                                            pHeader->RTR);
 1155              		.loc 1 1245 67 view .LVU378
ARM GAS  C:\msys64\tmp\cc8m32jh.s 			page 47


 1156 0032 CB68     		ldr	r3, [r1, #12]
1244:Drivers/STM32F3xx_HAL_Driver/Src/stm32f3xx_hal_can.c ****                                                            pHeader->RTR);
 1157              		.loc 1 1244 13 view .LVU379
 1158 0034 0468     		ldr	r4, [r0]
1244:Drivers/STM32F3xx_HAL_Driver/Src/stm32f3xx_hal_can.c ****                                                            pHeader->RTR);
 1159              		.loc 1 1244 98 view .LVU380
 1160 0036 43EA4555 		orr	r5, r3, r5, lsl #21
1244:Drivers/STM32F3xx_HAL_Driver/Src/stm32f3xx_hal_can.c ****                                                            pHeader->RTR);
 1161              		.loc 1 1244 57 view .LVU381
 1162 003a 0CF11803 		add	r3, ip, #24
 1163 003e 1B01     		lsls	r3, r3, #4
 1164 0040 E550     		str	r5, [r4, r3]
 1165              	.L98:
1246:Drivers/STM32F3xx_HAL_Driver/Src/stm32f3xx_hal_can.c ****       }
1247:Drivers/STM32F3xx_HAL_Driver/Src/stm32f3xx_hal_can.c ****       else
1248:Drivers/STM32F3xx_HAL_Driver/Src/stm32f3xx_hal_can.c ****       {
1249:Drivers/STM32F3xx_HAL_Driver/Src/stm32f3xx_hal_can.c ****         hcan->Instance->sTxMailBox[transmitmailbox].TIR = ((pHeader->ExtId << CAN_TI0R_EXID_Pos) |
1250:Drivers/STM32F3xx_HAL_Driver/Src/stm32f3xx_hal_can.c ****                                                            pHeader->IDE |
1251:Drivers/STM32F3xx_HAL_Driver/Src/stm32f3xx_hal_can.c ****                                                            pHeader->RTR);
1252:Drivers/STM32F3xx_HAL_Driver/Src/stm32f3xx_hal_can.c ****       }
1253:Drivers/STM32F3xx_HAL_Driver/Src/stm32f3xx_hal_can.c **** 
1254:Drivers/STM32F3xx_HAL_Driver/Src/stm32f3xx_hal_can.c ****       /* Set up the DLC */
1255:Drivers/STM32F3xx_HAL_Driver/Src/stm32f3xx_hal_can.c ****       hcan->Instance->sTxMailBox[transmitmailbox].TDTR = (pHeader->DLC);
 1166              		.loc 1 1255 7 is_stmt 1 view .LVU382
 1167              		.loc 1 1255 11 is_stmt 0 view .LVU383
 1168 0042 0368     		ldr	r3, [r0]
 1169              		.loc 1 1255 66 view .LVU384
 1170 0044 0C69     		ldr	r4, [r1, #16]
 1171              		.loc 1 1255 56 view .LVU385
 1172 0046 0CF1180E 		add	lr, ip, #24
 1173 004a 03EB0E13 		add	r3, r3, lr, lsl #4
 1174 004e 5C60     		str	r4, [r3, #4]
1256:Drivers/STM32F3xx_HAL_Driver/Src/stm32f3xx_hal_can.c **** 
1257:Drivers/STM32F3xx_HAL_Driver/Src/stm32f3xx_hal_can.c ****       /* Set up the Transmit Global Time mode */
1258:Drivers/STM32F3xx_HAL_Driver/Src/stm32f3xx_hal_can.c ****       if (pHeader->TransmitGlobalTime == ENABLE)
 1175              		.loc 1 1258 7 is_stmt 1 view .LVU386
 1176              		.loc 1 1258 18 is_stmt 0 view .LVU387
 1177 0050 0B7D     		ldrb	r3, [r1, #20]	@ zero_extendqisi2
 1178              		.loc 1 1258 10 view .LVU388
 1179 0052 012B     		cmp	r3, #1
 1180 0054 35D0     		beq	.L102
 1181              	.LVL78:
 1182              	.L99:
1259:Drivers/STM32F3xx_HAL_Driver/Src/stm32f3xx_hal_can.c ****       {
1260:Drivers/STM32F3xx_HAL_Driver/Src/stm32f3xx_hal_can.c ****         SET_BIT(hcan->Instance->sTxMailBox[transmitmailbox].TDTR, CAN_TDT0R_TGT);
1261:Drivers/STM32F3xx_HAL_Driver/Src/stm32f3xx_hal_can.c ****       }
1262:Drivers/STM32F3xx_HAL_Driver/Src/stm32f3xx_hal_can.c **** 
1263:Drivers/STM32F3xx_HAL_Driver/Src/stm32f3xx_hal_can.c ****       /* Set up the data field */
1264:Drivers/STM32F3xx_HAL_Driver/Src/stm32f3xx_hal_can.c ****       WRITE_REG(hcan->Instance->sTxMailBox[transmitmailbox].TDHR,
 1183              		.loc 1 1264 7 is_stmt 1 view .LVU389
 1184 0056 D179     		ldrb	r1, [r2, #7]	@ zero_extendqisi2
 1185 0058 9379     		ldrb	r3, [r2, #6]	@ zero_extendqisi2
 1186 005a 1B04     		lsls	r3, r3, #16
 1187 005c 43EA0163 		orr	r3, r3, r1, lsl #24
 1188 0060 5179     		ldrb	r1, [r2, #5]	@ zero_extendqisi2
 1189 0062 43EA0123 		orr	r3, r3, r1, lsl #8
 1190 0066 1479     		ldrb	r4, [r2, #4]	@ zero_extendqisi2
ARM GAS  C:\msys64\tmp\cc8m32jh.s 			page 48


 1191 0068 0168     		ldr	r1, [r0]
 1192 006a 2343     		orrs	r3, r3, r4
 1193 006c 01EB0C11 		add	r1, r1, ip, lsl #4
 1194 0070 C1F88C31 		str	r3, [r1, #396]
1265:Drivers/STM32F3xx_HAL_Driver/Src/stm32f3xx_hal_can.c ****                 ((uint32_t)aData[7] << CAN_TDH0R_DATA7_Pos) |
1266:Drivers/STM32F3xx_HAL_Driver/Src/stm32f3xx_hal_can.c ****                 ((uint32_t)aData[6] << CAN_TDH0R_DATA6_Pos) |
1267:Drivers/STM32F3xx_HAL_Driver/Src/stm32f3xx_hal_can.c ****                 ((uint32_t)aData[5] << CAN_TDH0R_DATA5_Pos) |
1268:Drivers/STM32F3xx_HAL_Driver/Src/stm32f3xx_hal_can.c ****                 ((uint32_t)aData[4] << CAN_TDH0R_DATA4_Pos));
1269:Drivers/STM32F3xx_HAL_Driver/Src/stm32f3xx_hal_can.c ****       WRITE_REG(hcan->Instance->sTxMailBox[transmitmailbox].TDLR,
 1195              		.loc 1 1269 7 view .LVU390
 1196 0074 D178     		ldrb	r1, [r2, #3]	@ zero_extendqisi2
 1197 0076 9378     		ldrb	r3, [r2, #2]	@ zero_extendqisi2
 1198 0078 1B04     		lsls	r3, r3, #16
 1199 007a 43EA0163 		orr	r3, r3, r1, lsl #24
 1200 007e 5178     		ldrb	r1, [r2, #1]	@ zero_extendqisi2
 1201 0080 43EA0123 		orr	r3, r3, r1, lsl #8
 1202 0084 1178     		ldrb	r1, [r2]	@ zero_extendqisi2
 1203 0086 0268     		ldr	r2, [r0]
 1204              	.LVL79:
 1205              		.loc 1 1269 7 is_stmt 0 view .LVU391
 1206 0088 0B43     		orrs	r3, r3, r1
 1207 008a 02EB0C12 		add	r2, r2, ip, lsl #4
 1208 008e C2F88831 		str	r3, [r2, #392]
1270:Drivers/STM32F3xx_HAL_Driver/Src/stm32f3xx_hal_can.c ****                 ((uint32_t)aData[3] << CAN_TDL0R_DATA3_Pos) |
1271:Drivers/STM32F3xx_HAL_Driver/Src/stm32f3xx_hal_can.c ****                 ((uint32_t)aData[2] << CAN_TDL0R_DATA2_Pos) |
1272:Drivers/STM32F3xx_HAL_Driver/Src/stm32f3xx_hal_can.c ****                 ((uint32_t)aData[1] << CAN_TDL0R_DATA1_Pos) |
1273:Drivers/STM32F3xx_HAL_Driver/Src/stm32f3xx_hal_can.c ****                 ((uint32_t)aData[0] << CAN_TDL0R_DATA0_Pos));
1274:Drivers/STM32F3xx_HAL_Driver/Src/stm32f3xx_hal_can.c **** 
1275:Drivers/STM32F3xx_HAL_Driver/Src/stm32f3xx_hal_can.c ****       /* Request transmission */
1276:Drivers/STM32F3xx_HAL_Driver/Src/stm32f3xx_hal_can.c ****       SET_BIT(hcan->Instance->sTxMailBox[transmitmailbox].TIR, CAN_TI0R_TXRQ);
 1209              		.loc 1 1276 7 is_stmt 1 view .LVU392
 1210 0092 0268     		ldr	r2, [r0]
 1211 0094 0CF1180C 		add	ip, ip, #24
 1212              	.LVL80:
 1213              		.loc 1 1276 7 is_stmt 0 view .LVU393
 1214 0098 4FEA0C1C 		lsl	ip, ip, #4
 1215 009c 52F80C30 		ldr	r3, [r2, ip]
 1216 00a0 43F00103 		orr	r3, r3, #1
 1217 00a4 42F80C30 		str	r3, [r2, ip]
1277:Drivers/STM32F3xx_HAL_Driver/Src/stm32f3xx_hal_can.c **** 
1278:Drivers/STM32F3xx_HAL_Driver/Src/stm32f3xx_hal_can.c ****       /* Return function status */
1279:Drivers/STM32F3xx_HAL_Driver/Src/stm32f3xx_hal_can.c ****       return HAL_OK;
 1218              		.loc 1 1279 7 is_stmt 1 view .LVU394
 1219              		.loc 1 1279 14 is_stmt 0 view .LVU395
 1220 00a8 0020     		movs	r0, #0
 1221              	.LVL81:
 1222              		.loc 1 1279 14 view .LVU396
 1223 00aa 1DE0     		b	.L100
 1224              	.LVL82:
 1225              	.L97:
1249:Drivers/STM32F3xx_HAL_Driver/Src/stm32f3xx_hal_can.c ****                                                            pHeader->IDE |
 1226              		.loc 1 1249 9 is_stmt 1 view .LVU397
1249:Drivers/STM32F3xx_HAL_Driver/Src/stm32f3xx_hal_can.c ****                                                            pHeader->IDE |
 1227              		.loc 1 1249 68 is_stmt 0 view .LVU398
 1228 00ac 4C68     		ldr	r4, [r1, #4]
1249:Drivers/STM32F3xx_HAL_Driver/Src/stm32f3xx_hal_can.c ****                                                            pHeader->IDE |
 1229              		.loc 1 1249 98 view .LVU399
ARM GAS  C:\msys64\tmp\cc8m32jh.s 			page 49


 1230 00ae 43EAC403 		orr	r3, r3, r4, lsl #3
1251:Drivers/STM32F3xx_HAL_Driver/Src/stm32f3xx_hal_can.c ****       }
 1231              		.loc 1 1251 67 view .LVU400
 1232 00b2 CC68     		ldr	r4, [r1, #12]
1250:Drivers/STM32F3xx_HAL_Driver/Src/stm32f3xx_hal_can.c ****                                                            pHeader->RTR);
 1233              		.loc 1 1250 73 view .LVU401
 1234 00b4 2343     		orrs	r3, r3, r4
1249:Drivers/STM32F3xx_HAL_Driver/Src/stm32f3xx_hal_can.c ****                                                            pHeader->IDE |
 1235              		.loc 1 1249 57 view .LVU402
 1236 00b6 0CF11804 		add	r4, ip, #24
 1237 00ba 2401     		lsls	r4, r4, #4
 1238 00bc 0568     		ldr	r5, [r0]
 1239 00be 2B51     		str	r3, [r5, r4]
 1240 00c0 BFE7     		b	.L98
 1241              	.L102:
1260:Drivers/STM32F3xx_HAL_Driver/Src/stm32f3xx_hal_can.c ****       }
 1242              		.loc 1 1260 9 is_stmt 1 view .LVU403
 1243 00c2 0368     		ldr	r3, [r0]
 1244 00c4 03EB0E13 		add	r3, r3, lr, lsl #4
 1245 00c8 5968     		ldr	r1, [r3, #4]
 1246              	.LVL83:
1260:Drivers/STM32F3xx_HAL_Driver/Src/stm32f3xx_hal_can.c ****       }
 1247              		.loc 1 1260 9 is_stmt 0 view .LVU404
 1248 00ca 41F48071 		orr	r1, r1, #256
 1249 00ce 5960     		str	r1, [r3, #4]
 1250 00d0 C1E7     		b	.L99
 1251              	.LVL84:
 1252              	.L96:
1280:Drivers/STM32F3xx_HAL_Driver/Src/stm32f3xx_hal_can.c ****     }
1281:Drivers/STM32F3xx_HAL_Driver/Src/stm32f3xx_hal_can.c ****     else
1282:Drivers/STM32F3xx_HAL_Driver/Src/stm32f3xx_hal_can.c ****     {
1283:Drivers/STM32F3xx_HAL_Driver/Src/stm32f3xx_hal_can.c ****       /* Update error code */
1284:Drivers/STM32F3xx_HAL_Driver/Src/stm32f3xx_hal_can.c ****       hcan->ErrorCode |= HAL_CAN_ERROR_PARAM;
 1253              		.loc 1 1284 7 is_stmt 1 view .LVU405
 1254              		.loc 1 1284 11 is_stmt 0 view .LVU406
 1255 00d2 436A     		ldr	r3, [r0, #36]
 1256              	.LVL85:
 1257              		.loc 1 1284 23 view .LVU407
 1258 00d4 43F40013 		orr	r3, r3, #2097152
 1259 00d8 4362     		str	r3, [r0, #36]
1285:Drivers/STM32F3xx_HAL_Driver/Src/stm32f3xx_hal_can.c **** 
1286:Drivers/STM32F3xx_HAL_Driver/Src/stm32f3xx_hal_can.c ****       return HAL_ERROR;
 1260              		.loc 1 1286 7 is_stmt 1 view .LVU408
 1261              		.loc 1 1286 14 is_stmt 0 view .LVU409
 1262 00da 0120     		movs	r0, #1
 1263              	.LVL86:
 1264              		.loc 1 1286 14 view .LVU410
 1265 00dc 04E0     		b	.L100
 1266              	.LVL87:
 1267              	.L95:
1287:Drivers/STM32F3xx_HAL_Driver/Src/stm32f3xx_hal_can.c ****     }
1288:Drivers/STM32F3xx_HAL_Driver/Src/stm32f3xx_hal_can.c ****   }
1289:Drivers/STM32F3xx_HAL_Driver/Src/stm32f3xx_hal_can.c ****   else
1290:Drivers/STM32F3xx_HAL_Driver/Src/stm32f3xx_hal_can.c ****   {
1291:Drivers/STM32F3xx_HAL_Driver/Src/stm32f3xx_hal_can.c ****     /* Update error code */
1292:Drivers/STM32F3xx_HAL_Driver/Src/stm32f3xx_hal_can.c ****     hcan->ErrorCode |= HAL_CAN_ERROR_NOT_INITIALIZED;
 1268              		.loc 1 1292 5 is_stmt 1 view .LVU411
ARM GAS  C:\msys64\tmp\cc8m32jh.s 			page 50


 1269              		.loc 1 1292 9 is_stmt 0 view .LVU412
 1270 00de 436A     		ldr	r3, [r0, #36]
 1271              	.LVL88:
 1272              		.loc 1 1292 21 view .LVU413
 1273 00e0 43F48023 		orr	r3, r3, #262144
 1274 00e4 4362     		str	r3, [r0, #36]
1293:Drivers/STM32F3xx_HAL_Driver/Src/stm32f3xx_hal_can.c **** 
1294:Drivers/STM32F3xx_HAL_Driver/Src/stm32f3xx_hal_can.c ****     return HAL_ERROR;
 1275              		.loc 1 1294 5 is_stmt 1 view .LVU414
 1276              		.loc 1 1294 12 is_stmt 0 view .LVU415
 1277 00e6 0120     		movs	r0, #1
 1278              	.LVL89:
 1279              	.L100:
1295:Drivers/STM32F3xx_HAL_Driver/Src/stm32f3xx_hal_can.c ****   }
1296:Drivers/STM32F3xx_HAL_Driver/Src/stm32f3xx_hal_can.c **** }
 1280              		.loc 1 1296 1 view .LVU416
 1281 00e8 30BD     		pop	{r4, r5, pc}
 1282              		.cfi_endproc
 1283              	.LFE133:
 1285              		.section	.text.HAL_CAN_AbortTxRequest,"ax",%progbits
 1286              		.align	1
 1287              		.global	HAL_CAN_AbortTxRequest
 1288              		.syntax unified
 1289              		.thumb
 1290              		.thumb_func
 1292              	HAL_CAN_AbortTxRequest:
 1293              	.LVL90:
 1294              	.LFB134:
1297:Drivers/STM32F3xx_HAL_Driver/Src/stm32f3xx_hal_can.c **** 
1298:Drivers/STM32F3xx_HAL_Driver/Src/stm32f3xx_hal_can.c **** /**
1299:Drivers/STM32F3xx_HAL_Driver/Src/stm32f3xx_hal_can.c ****   * @brief  Abort transmission requests
1300:Drivers/STM32F3xx_HAL_Driver/Src/stm32f3xx_hal_can.c ****   * @param  hcan pointer to an CAN_HandleTypeDef structure that contains
1301:Drivers/STM32F3xx_HAL_Driver/Src/stm32f3xx_hal_can.c ****   *         the configuration information for the specified CAN.
1302:Drivers/STM32F3xx_HAL_Driver/Src/stm32f3xx_hal_can.c ****   * @param  TxMailboxes List of the Tx Mailboxes to abort.
1303:Drivers/STM32F3xx_HAL_Driver/Src/stm32f3xx_hal_can.c ****   *         This parameter can be any combination of @arg CAN_Tx_Mailboxes.
1304:Drivers/STM32F3xx_HAL_Driver/Src/stm32f3xx_hal_can.c ****   * @retval HAL status
1305:Drivers/STM32F3xx_HAL_Driver/Src/stm32f3xx_hal_can.c ****   */
1306:Drivers/STM32F3xx_HAL_Driver/Src/stm32f3xx_hal_can.c **** HAL_StatusTypeDef HAL_CAN_AbortTxRequest(CAN_HandleTypeDef *hcan, uint32_t TxMailboxes)
1307:Drivers/STM32F3xx_HAL_Driver/Src/stm32f3xx_hal_can.c **** {
 1295              		.loc 1 1307 1 is_stmt 1 view -0
 1296              		.cfi_startproc
 1297              		@ args = 0, pretend = 0, frame = 0
 1298              		@ frame_needed = 0, uses_anonymous_args = 0
 1299              		@ link register save eliminated.
1308:Drivers/STM32F3xx_HAL_Driver/Src/stm32f3xx_hal_can.c ****   HAL_CAN_StateTypeDef state = hcan->State;
 1300              		.loc 1 1308 3 view .LVU418
 1301              		.loc 1 1308 24 is_stmt 0 view .LVU419
 1302 0000 90F82030 		ldrb	r3, [r0, #32]	@ zero_extendqisi2
 1303              	.LVL91:
1309:Drivers/STM32F3xx_HAL_Driver/Src/stm32f3xx_hal_can.c **** 
1310:Drivers/STM32F3xx_HAL_Driver/Src/stm32f3xx_hal_can.c ****   /* Check function parameters */
1311:Drivers/STM32F3xx_HAL_Driver/Src/stm32f3xx_hal_can.c ****   assert_param(IS_CAN_TX_MAILBOX_LIST(TxMailboxes));
 1304              		.loc 1 1311 3 is_stmt 1 view .LVU420
1312:Drivers/STM32F3xx_HAL_Driver/Src/stm32f3xx_hal_can.c **** 
1313:Drivers/STM32F3xx_HAL_Driver/Src/stm32f3xx_hal_can.c ****   if ((state == HAL_CAN_STATE_READY) ||
 1305              		.loc 1 1313 3 view .LVU421
 1306              		.loc 1 1313 38 is_stmt 0 view .LVU422
ARM GAS  C:\msys64\tmp\cc8m32jh.s 			page 51


 1307 0004 013B     		subs	r3, r3, #1
 1308              	.LVL92:
 1309              		.loc 1 1313 38 view .LVU423
 1310 0006 DBB2     		uxtb	r3, r3
 1311              	.LVL93:
 1312              		.loc 1 1313 6 view .LVU424
 1313 0008 012B     		cmp	r3, #1
 1314 000a 05D9     		bls	.L109
1314:Drivers/STM32F3xx_HAL_Driver/Src/stm32f3xx_hal_can.c ****       (state == HAL_CAN_STATE_LISTENING))
1315:Drivers/STM32F3xx_HAL_Driver/Src/stm32f3xx_hal_can.c ****   {
1316:Drivers/STM32F3xx_HAL_Driver/Src/stm32f3xx_hal_can.c ****     /* Check Tx Mailbox 0 */
1317:Drivers/STM32F3xx_HAL_Driver/Src/stm32f3xx_hal_can.c ****     if ((TxMailboxes & CAN_TX_MAILBOX0) != 0U)
1318:Drivers/STM32F3xx_HAL_Driver/Src/stm32f3xx_hal_can.c ****     {
1319:Drivers/STM32F3xx_HAL_Driver/Src/stm32f3xx_hal_can.c ****       /* Add cancellation request for Tx Mailbox 0 */
1320:Drivers/STM32F3xx_HAL_Driver/Src/stm32f3xx_hal_can.c ****       SET_BIT(hcan->Instance->TSR, CAN_TSR_ABRQ0);
1321:Drivers/STM32F3xx_HAL_Driver/Src/stm32f3xx_hal_can.c ****     }
1322:Drivers/STM32F3xx_HAL_Driver/Src/stm32f3xx_hal_can.c **** 
1323:Drivers/STM32F3xx_HAL_Driver/Src/stm32f3xx_hal_can.c ****     /* Check Tx Mailbox 1 */
1324:Drivers/STM32F3xx_HAL_Driver/Src/stm32f3xx_hal_can.c ****     if ((TxMailboxes & CAN_TX_MAILBOX1) != 0U)
1325:Drivers/STM32F3xx_HAL_Driver/Src/stm32f3xx_hal_can.c ****     {
1326:Drivers/STM32F3xx_HAL_Driver/Src/stm32f3xx_hal_can.c ****       /* Add cancellation request for Tx Mailbox 1 */
1327:Drivers/STM32F3xx_HAL_Driver/Src/stm32f3xx_hal_can.c ****       SET_BIT(hcan->Instance->TSR, CAN_TSR_ABRQ1);
1328:Drivers/STM32F3xx_HAL_Driver/Src/stm32f3xx_hal_can.c ****     }
1329:Drivers/STM32F3xx_HAL_Driver/Src/stm32f3xx_hal_can.c **** 
1330:Drivers/STM32F3xx_HAL_Driver/Src/stm32f3xx_hal_can.c ****     /* Check Tx Mailbox 2 */
1331:Drivers/STM32F3xx_HAL_Driver/Src/stm32f3xx_hal_can.c ****     if ((TxMailboxes & CAN_TX_MAILBOX2) != 0U)
1332:Drivers/STM32F3xx_HAL_Driver/Src/stm32f3xx_hal_can.c ****     {
1333:Drivers/STM32F3xx_HAL_Driver/Src/stm32f3xx_hal_can.c ****       /* Add cancellation request for Tx Mailbox 2 */
1334:Drivers/STM32F3xx_HAL_Driver/Src/stm32f3xx_hal_can.c ****       SET_BIT(hcan->Instance->TSR, CAN_TSR_ABRQ2);
1335:Drivers/STM32F3xx_HAL_Driver/Src/stm32f3xx_hal_can.c ****     }
1336:Drivers/STM32F3xx_HAL_Driver/Src/stm32f3xx_hal_can.c **** 
1337:Drivers/STM32F3xx_HAL_Driver/Src/stm32f3xx_hal_can.c ****     /* Return function status */
1338:Drivers/STM32F3xx_HAL_Driver/Src/stm32f3xx_hal_can.c ****     return HAL_OK;
1339:Drivers/STM32F3xx_HAL_Driver/Src/stm32f3xx_hal_can.c ****   }
1340:Drivers/STM32F3xx_HAL_Driver/Src/stm32f3xx_hal_can.c ****   else
1341:Drivers/STM32F3xx_HAL_Driver/Src/stm32f3xx_hal_can.c ****   {
1342:Drivers/STM32F3xx_HAL_Driver/Src/stm32f3xx_hal_can.c ****     /* Update error code */
1343:Drivers/STM32F3xx_HAL_Driver/Src/stm32f3xx_hal_can.c ****     hcan->ErrorCode |= HAL_CAN_ERROR_NOT_INITIALIZED;
 1315              		.loc 1 1343 5 is_stmt 1 view .LVU425
 1316              		.loc 1 1343 9 is_stmt 0 view .LVU426
 1317 000c 436A     		ldr	r3, [r0, #36]
 1318              		.loc 1 1343 21 view .LVU427
 1319 000e 43F48023 		orr	r3, r3, #262144
 1320 0012 4362     		str	r3, [r0, #36]
1344:Drivers/STM32F3xx_HAL_Driver/Src/stm32f3xx_hal_can.c **** 
1345:Drivers/STM32F3xx_HAL_Driver/Src/stm32f3xx_hal_can.c ****     return HAL_ERROR;
 1321              		.loc 1 1345 5 is_stmt 1 view .LVU428
 1322              		.loc 1 1345 12 is_stmt 0 view .LVU429
 1323 0014 0120     		movs	r0, #1
 1324              	.LVL94:
1346:Drivers/STM32F3xx_HAL_Driver/Src/stm32f3xx_hal_can.c ****   }
1347:Drivers/STM32F3xx_HAL_Driver/Src/stm32f3xx_hal_can.c **** }
 1325              		.loc 1 1347 1 view .LVU430
 1326 0016 7047     		bx	lr
 1327              	.LVL95:
 1328              	.L109:
1317:Drivers/STM32F3xx_HAL_Driver/Src/stm32f3xx_hal_can.c ****     {
ARM GAS  C:\msys64\tmp\cc8m32jh.s 			page 52


 1329              		.loc 1 1317 5 is_stmt 1 view .LVU431
1317:Drivers/STM32F3xx_HAL_Driver/Src/stm32f3xx_hal_can.c ****     {
 1330              		.loc 1 1317 8 is_stmt 0 view .LVU432
 1331 0018 11F0010F 		tst	r1, #1
 1332 001c 04D0     		beq	.L105
1320:Drivers/STM32F3xx_HAL_Driver/Src/stm32f3xx_hal_can.c ****     }
 1333              		.loc 1 1320 7 is_stmt 1 view .LVU433
 1334 001e 0268     		ldr	r2, [r0]
 1335 0020 9368     		ldr	r3, [r2, #8]
 1336 0022 43F08003 		orr	r3, r3, #128
 1337 0026 9360     		str	r3, [r2, #8]
 1338              	.L105:
1324:Drivers/STM32F3xx_HAL_Driver/Src/stm32f3xx_hal_can.c ****     {
 1339              		.loc 1 1324 5 view .LVU434
1324:Drivers/STM32F3xx_HAL_Driver/Src/stm32f3xx_hal_can.c ****     {
 1340              		.loc 1 1324 8 is_stmt 0 view .LVU435
 1341 0028 11F0020F 		tst	r1, #2
 1342 002c 04D0     		beq	.L106
1327:Drivers/STM32F3xx_HAL_Driver/Src/stm32f3xx_hal_can.c ****     }
 1343              		.loc 1 1327 7 is_stmt 1 view .LVU436
 1344 002e 0268     		ldr	r2, [r0]
 1345 0030 9368     		ldr	r3, [r2, #8]
 1346 0032 43F40043 		orr	r3, r3, #32768
 1347 0036 9360     		str	r3, [r2, #8]
 1348              	.L106:
1331:Drivers/STM32F3xx_HAL_Driver/Src/stm32f3xx_hal_can.c ****     {
 1349              		.loc 1 1331 5 view .LVU437
1331:Drivers/STM32F3xx_HAL_Driver/Src/stm32f3xx_hal_can.c ****     {
 1350              		.loc 1 1331 8 is_stmt 0 view .LVU438
 1351 0038 11F0040F 		tst	r1, #4
 1352 003c 04D0     		beq	.L107
1334:Drivers/STM32F3xx_HAL_Driver/Src/stm32f3xx_hal_can.c ****     }
 1353              		.loc 1 1334 7 is_stmt 1 view .LVU439
 1354 003e 0268     		ldr	r2, [r0]
 1355 0040 9368     		ldr	r3, [r2, #8]
 1356 0042 43F40003 		orr	r3, r3, #8388608
 1357 0046 9360     		str	r3, [r2, #8]
 1358              	.L107:
1338:Drivers/STM32F3xx_HAL_Driver/Src/stm32f3xx_hal_can.c ****   }
 1359              		.loc 1 1338 5 view .LVU440
1338:Drivers/STM32F3xx_HAL_Driver/Src/stm32f3xx_hal_can.c ****   }
 1360              		.loc 1 1338 12 is_stmt 0 view .LVU441
 1361 0048 0020     		movs	r0, #0
 1362              	.LVL96:
1338:Drivers/STM32F3xx_HAL_Driver/Src/stm32f3xx_hal_can.c ****   }
 1363              		.loc 1 1338 12 view .LVU442
 1364 004a 7047     		bx	lr
 1365              		.cfi_endproc
 1366              	.LFE134:
 1368              		.section	.text.HAL_CAN_GetTxMailboxesFreeLevel,"ax",%progbits
 1369              		.align	1
 1370              		.global	HAL_CAN_GetTxMailboxesFreeLevel
 1371              		.syntax unified
 1372              		.thumb
 1373              		.thumb_func
 1375              	HAL_CAN_GetTxMailboxesFreeLevel:
 1376              	.LVL97:
ARM GAS  C:\msys64\tmp\cc8m32jh.s 			page 53


 1377              	.LFB135:
1348:Drivers/STM32F3xx_HAL_Driver/Src/stm32f3xx_hal_can.c **** 
1349:Drivers/STM32F3xx_HAL_Driver/Src/stm32f3xx_hal_can.c **** /**
1350:Drivers/STM32F3xx_HAL_Driver/Src/stm32f3xx_hal_can.c ****   * @brief  Return Tx Mailboxes free level: number of free Tx Mailboxes.
1351:Drivers/STM32F3xx_HAL_Driver/Src/stm32f3xx_hal_can.c ****   * @param  hcan pointer to a CAN_HandleTypeDef structure that contains
1352:Drivers/STM32F3xx_HAL_Driver/Src/stm32f3xx_hal_can.c ****   *         the configuration information for the specified CAN.
1353:Drivers/STM32F3xx_HAL_Driver/Src/stm32f3xx_hal_can.c ****   * @retval Number of free Tx Mailboxes.
1354:Drivers/STM32F3xx_HAL_Driver/Src/stm32f3xx_hal_can.c ****   */
1355:Drivers/STM32F3xx_HAL_Driver/Src/stm32f3xx_hal_can.c **** uint32_t HAL_CAN_GetTxMailboxesFreeLevel(const CAN_HandleTypeDef *hcan)
1356:Drivers/STM32F3xx_HAL_Driver/Src/stm32f3xx_hal_can.c **** {
 1378              		.loc 1 1356 1 is_stmt 1 view -0
 1379              		.cfi_startproc
 1380              		@ args = 0, pretend = 0, frame = 0
 1381              		@ frame_needed = 0, uses_anonymous_args = 0
 1382              		@ link register save eliminated.
1357:Drivers/STM32F3xx_HAL_Driver/Src/stm32f3xx_hal_can.c ****   uint32_t freelevel = 0U;
 1383              		.loc 1 1357 3 view .LVU444
1358:Drivers/STM32F3xx_HAL_Driver/Src/stm32f3xx_hal_can.c ****   HAL_CAN_StateTypeDef state = hcan->State;
 1384              		.loc 1 1358 3 view .LVU445
 1385              		.loc 1 1358 24 is_stmt 0 view .LVU446
 1386 0000 90F82030 		ldrb	r3, [r0, #32]	@ zero_extendqisi2
 1387              	.LVL98:
1359:Drivers/STM32F3xx_HAL_Driver/Src/stm32f3xx_hal_can.c **** 
1360:Drivers/STM32F3xx_HAL_Driver/Src/stm32f3xx_hal_can.c ****   if ((state == HAL_CAN_STATE_READY) ||
 1388              		.loc 1 1360 3 is_stmt 1 view .LVU447
 1389              		.loc 1 1360 38 is_stmt 0 view .LVU448
 1390 0004 013B     		subs	r3, r3, #1
 1391              	.LVL99:
 1392              		.loc 1 1360 38 view .LVU449
 1393 0006 DBB2     		uxtb	r3, r3
 1394              	.LVL100:
 1395              		.loc 1 1360 6 view .LVU450
 1396 0008 012B     		cmp	r3, #1
 1397 000a 01D9     		bls	.L116
1357:Drivers/STM32F3xx_HAL_Driver/Src/stm32f3xx_hal_can.c ****   HAL_CAN_StateTypeDef state = hcan->State;
 1398              		.loc 1 1357 12 view .LVU451
 1399 000c 0020     		movs	r0, #0
 1400              	.LVL101:
1361:Drivers/STM32F3xx_HAL_Driver/Src/stm32f3xx_hal_can.c ****       (state == HAL_CAN_STATE_LISTENING))
1362:Drivers/STM32F3xx_HAL_Driver/Src/stm32f3xx_hal_can.c ****   {
1363:Drivers/STM32F3xx_HAL_Driver/Src/stm32f3xx_hal_can.c ****     /* Check Tx Mailbox 0 status */
1364:Drivers/STM32F3xx_HAL_Driver/Src/stm32f3xx_hal_can.c ****     if ((hcan->Instance->TSR & CAN_TSR_TME0) != 0U)
1365:Drivers/STM32F3xx_HAL_Driver/Src/stm32f3xx_hal_can.c ****     {
1366:Drivers/STM32F3xx_HAL_Driver/Src/stm32f3xx_hal_can.c ****       freelevel++;
1367:Drivers/STM32F3xx_HAL_Driver/Src/stm32f3xx_hal_can.c ****     }
1368:Drivers/STM32F3xx_HAL_Driver/Src/stm32f3xx_hal_can.c **** 
1369:Drivers/STM32F3xx_HAL_Driver/Src/stm32f3xx_hal_can.c ****     /* Check Tx Mailbox 1 status */
1370:Drivers/STM32F3xx_HAL_Driver/Src/stm32f3xx_hal_can.c ****     if ((hcan->Instance->TSR & CAN_TSR_TME1) != 0U)
1371:Drivers/STM32F3xx_HAL_Driver/Src/stm32f3xx_hal_can.c ****     {
1372:Drivers/STM32F3xx_HAL_Driver/Src/stm32f3xx_hal_can.c ****       freelevel++;
1373:Drivers/STM32F3xx_HAL_Driver/Src/stm32f3xx_hal_can.c ****     }
1374:Drivers/STM32F3xx_HAL_Driver/Src/stm32f3xx_hal_can.c **** 
1375:Drivers/STM32F3xx_HAL_Driver/Src/stm32f3xx_hal_can.c ****     /* Check Tx Mailbox 2 status */
1376:Drivers/STM32F3xx_HAL_Driver/Src/stm32f3xx_hal_can.c ****     if ((hcan->Instance->TSR & CAN_TSR_TME2) != 0U)
1377:Drivers/STM32F3xx_HAL_Driver/Src/stm32f3xx_hal_can.c ****     {
1378:Drivers/STM32F3xx_HAL_Driver/Src/stm32f3xx_hal_can.c ****       freelevel++;
1379:Drivers/STM32F3xx_HAL_Driver/Src/stm32f3xx_hal_can.c ****     }
ARM GAS  C:\msys64\tmp\cc8m32jh.s 			page 54


1380:Drivers/STM32F3xx_HAL_Driver/Src/stm32f3xx_hal_can.c ****   }
1381:Drivers/STM32F3xx_HAL_Driver/Src/stm32f3xx_hal_can.c **** 
1382:Drivers/STM32F3xx_HAL_Driver/Src/stm32f3xx_hal_can.c ****   /* Return Tx Mailboxes free level */
1383:Drivers/STM32F3xx_HAL_Driver/Src/stm32f3xx_hal_can.c ****   return freelevel;
 1401              		.loc 1 1383 3 is_stmt 1 view .LVU452
 1402              	.L110:
1384:Drivers/STM32F3xx_HAL_Driver/Src/stm32f3xx_hal_can.c **** }
 1403              		.loc 1 1384 1 is_stmt 0 view .LVU453
 1404 000e 7047     		bx	lr
 1405              	.LVL102:
 1406              	.L116:
1364:Drivers/STM32F3xx_HAL_Driver/Src/stm32f3xx_hal_can.c ****     {
 1407              		.loc 1 1364 5 is_stmt 1 view .LVU454
1364:Drivers/STM32F3xx_HAL_Driver/Src/stm32f3xx_hal_can.c ****     {
 1408              		.loc 1 1364 14 is_stmt 0 view .LVU455
 1409 0010 0368     		ldr	r3, [r0]
1364:Drivers/STM32F3xx_HAL_Driver/Src/stm32f3xx_hal_can.c ****     {
 1410              		.loc 1 1364 24 view .LVU456
 1411 0012 9868     		ldr	r0, [r3, #8]
 1412              	.LVL103:
1364:Drivers/STM32F3xx_HAL_Driver/Src/stm32f3xx_hal_can.c ****     {
 1413              		.loc 1 1364 8 view .LVU457
 1414 0014 10F08060 		ands	r0, r0, #67108864
 1415 0018 00D0     		beq	.L112
1366:Drivers/STM32F3xx_HAL_Driver/Src/stm32f3xx_hal_can.c ****     }
 1416              		.loc 1 1366 16 view .LVU458
 1417 001a 0120     		movs	r0, #1
 1418              	.L112:
 1419              	.LVL104:
1370:Drivers/STM32F3xx_HAL_Driver/Src/stm32f3xx_hal_can.c ****     {
 1420              		.loc 1 1370 5 is_stmt 1 view .LVU459
1370:Drivers/STM32F3xx_HAL_Driver/Src/stm32f3xx_hal_can.c ****     {
 1421              		.loc 1 1370 24 is_stmt 0 view .LVU460
 1422 001c 9A68     		ldr	r2, [r3, #8]
1370:Drivers/STM32F3xx_HAL_Driver/Src/stm32f3xx_hal_can.c ****     {
 1423              		.loc 1 1370 8 view .LVU461
 1424 001e 12F0006F 		tst	r2, #134217728
 1425 0022 00D0     		beq	.L113
1372:Drivers/STM32F3xx_HAL_Driver/Src/stm32f3xx_hal_can.c ****     }
 1426              		.loc 1 1372 7 is_stmt 1 view .LVU462
1372:Drivers/STM32F3xx_HAL_Driver/Src/stm32f3xx_hal_can.c ****     }
 1427              		.loc 1 1372 16 is_stmt 0 view .LVU463
 1428 0024 0130     		adds	r0, r0, #1
 1429              	.LVL105:
 1430              	.L113:
1376:Drivers/STM32F3xx_HAL_Driver/Src/stm32f3xx_hal_can.c ****     {
 1431              		.loc 1 1376 5 is_stmt 1 view .LVU464
1376:Drivers/STM32F3xx_HAL_Driver/Src/stm32f3xx_hal_can.c ****     {
 1432              		.loc 1 1376 24 is_stmt 0 view .LVU465
 1433 0026 9B68     		ldr	r3, [r3, #8]
1376:Drivers/STM32F3xx_HAL_Driver/Src/stm32f3xx_hal_can.c ****     {
 1434              		.loc 1 1376 8 view .LVU466
 1435 0028 13F0805F 		tst	r3, #268435456
 1436 002c EFD0     		beq	.L110
1378:Drivers/STM32F3xx_HAL_Driver/Src/stm32f3xx_hal_can.c ****     }
 1437              		.loc 1 1378 7 is_stmt 1 view .LVU467
1378:Drivers/STM32F3xx_HAL_Driver/Src/stm32f3xx_hal_can.c ****     }
ARM GAS  C:\msys64\tmp\cc8m32jh.s 			page 55


 1438              		.loc 1 1378 16 is_stmt 0 view .LVU468
 1439 002e 0130     		adds	r0, r0, #1
 1440              	.LVL106:
1378:Drivers/STM32F3xx_HAL_Driver/Src/stm32f3xx_hal_can.c ****     }
 1441              		.loc 1 1378 16 view .LVU469
 1442 0030 7047     		bx	lr
 1443              		.cfi_endproc
 1444              	.LFE135:
 1446              		.section	.text.HAL_CAN_IsTxMessagePending,"ax",%progbits
 1447              		.align	1
 1448              		.global	HAL_CAN_IsTxMessagePending
 1449              		.syntax unified
 1450              		.thumb
 1451              		.thumb_func
 1453              	HAL_CAN_IsTxMessagePending:
 1454              	.LVL107:
 1455              	.LFB136:
1385:Drivers/STM32F3xx_HAL_Driver/Src/stm32f3xx_hal_can.c **** 
1386:Drivers/STM32F3xx_HAL_Driver/Src/stm32f3xx_hal_can.c **** /**
1387:Drivers/STM32F3xx_HAL_Driver/Src/stm32f3xx_hal_can.c ****   * @brief  Check if a transmission request is pending on the selected Tx
1388:Drivers/STM32F3xx_HAL_Driver/Src/stm32f3xx_hal_can.c ****   *         Mailboxes.
1389:Drivers/STM32F3xx_HAL_Driver/Src/stm32f3xx_hal_can.c ****   * @param  hcan pointer to an CAN_HandleTypeDef structure that contains
1390:Drivers/STM32F3xx_HAL_Driver/Src/stm32f3xx_hal_can.c ****   *         the configuration information for the specified CAN.
1391:Drivers/STM32F3xx_HAL_Driver/Src/stm32f3xx_hal_can.c ****   * @param  TxMailboxes List of Tx Mailboxes to check.
1392:Drivers/STM32F3xx_HAL_Driver/Src/stm32f3xx_hal_can.c ****   *         This parameter can be any combination of @arg CAN_Tx_Mailboxes.
1393:Drivers/STM32F3xx_HAL_Driver/Src/stm32f3xx_hal_can.c ****   * @retval Status
1394:Drivers/STM32F3xx_HAL_Driver/Src/stm32f3xx_hal_can.c ****   *          - 0 : No pending transmission request on any selected Tx Mailboxes.
1395:Drivers/STM32F3xx_HAL_Driver/Src/stm32f3xx_hal_can.c ****   *          - 1 : Pending transmission request on at least one of the selected
1396:Drivers/STM32F3xx_HAL_Driver/Src/stm32f3xx_hal_can.c ****   *                Tx Mailbox.
1397:Drivers/STM32F3xx_HAL_Driver/Src/stm32f3xx_hal_can.c ****   */
1398:Drivers/STM32F3xx_HAL_Driver/Src/stm32f3xx_hal_can.c **** uint32_t HAL_CAN_IsTxMessagePending(const CAN_HandleTypeDef *hcan, uint32_t TxMailboxes)
1399:Drivers/STM32F3xx_HAL_Driver/Src/stm32f3xx_hal_can.c **** {
 1456              		.loc 1 1399 1 is_stmt 1 view -0
 1457              		.cfi_startproc
 1458              		@ args = 0, pretend = 0, frame = 0
 1459              		@ frame_needed = 0, uses_anonymous_args = 0
 1460              		@ link register save eliminated.
1400:Drivers/STM32F3xx_HAL_Driver/Src/stm32f3xx_hal_can.c ****   uint32_t status = 0U;
 1461              		.loc 1 1400 3 view .LVU471
1401:Drivers/STM32F3xx_HAL_Driver/Src/stm32f3xx_hal_can.c ****   HAL_CAN_StateTypeDef state = hcan->State;
 1462              		.loc 1 1401 3 view .LVU472
 1463              		.loc 1 1401 24 is_stmt 0 view .LVU473
 1464 0000 90F82030 		ldrb	r3, [r0, #32]	@ zero_extendqisi2
 1465              	.LVL108:
1402:Drivers/STM32F3xx_HAL_Driver/Src/stm32f3xx_hal_can.c **** 
1403:Drivers/STM32F3xx_HAL_Driver/Src/stm32f3xx_hal_can.c ****   /* Check function parameters */
1404:Drivers/STM32F3xx_HAL_Driver/Src/stm32f3xx_hal_can.c ****   assert_param(IS_CAN_TX_MAILBOX_LIST(TxMailboxes));
 1466              		.loc 1 1404 3 is_stmt 1 view .LVU474
1405:Drivers/STM32F3xx_HAL_Driver/Src/stm32f3xx_hal_can.c **** 
1406:Drivers/STM32F3xx_HAL_Driver/Src/stm32f3xx_hal_can.c ****   if ((state == HAL_CAN_STATE_READY) ||
 1467              		.loc 1 1406 3 view .LVU475
 1468              		.loc 1 1406 38 is_stmt 0 view .LVU476
 1469 0004 013B     		subs	r3, r3, #1
 1470              	.LVL109:
 1471              		.loc 1 1406 38 view .LVU477
 1472 0006 DBB2     		uxtb	r3, r3
 1473              	.LVL110:
ARM GAS  C:\msys64\tmp\cc8m32jh.s 			page 56


 1474              		.loc 1 1406 6 view .LVU478
 1475 0008 012B     		cmp	r3, #1
 1476 000a 01D9     		bls	.L121
1400:Drivers/STM32F3xx_HAL_Driver/Src/stm32f3xx_hal_can.c ****   HAL_CAN_StateTypeDef state = hcan->State;
 1477              		.loc 1 1400 12 view .LVU479
 1478 000c 0020     		movs	r0, #0
 1479              	.LVL111:
1400:Drivers/STM32F3xx_HAL_Driver/Src/stm32f3xx_hal_can.c ****   HAL_CAN_StateTypeDef state = hcan->State;
 1480              		.loc 1 1400 12 view .LVU480
 1481 000e 7047     		bx	lr
 1482              	.LVL112:
 1483              	.L121:
1407:Drivers/STM32F3xx_HAL_Driver/Src/stm32f3xx_hal_can.c ****       (state == HAL_CAN_STATE_LISTENING))
1408:Drivers/STM32F3xx_HAL_Driver/Src/stm32f3xx_hal_can.c ****   {
1409:Drivers/STM32F3xx_HAL_Driver/Src/stm32f3xx_hal_can.c ****     /* Check pending transmission request on the selected Tx Mailboxes */
1410:Drivers/STM32F3xx_HAL_Driver/Src/stm32f3xx_hal_can.c ****     if ((hcan->Instance->TSR & (TxMailboxes << CAN_TSR_TME0_Pos)) != (TxMailboxes << CAN_TSR_TME0_P
 1484              		.loc 1 1410 5 is_stmt 1 view .LVU481
 1485              		.loc 1 1410 14 is_stmt 0 view .LVU482
 1486 0010 0368     		ldr	r3, [r0]
 1487              		.loc 1 1410 24 view .LVU483
 1488 0012 9B68     		ldr	r3, [r3, #8]
 1489              		.loc 1 1410 30 view .LVU484
 1490 0014 03EA8163 		and	r3, r3, r1, lsl #26
 1491              		.loc 1 1410 8 view .LVU485
 1492 0018 B3EB816F 		cmp	r3, r1, lsl #26
 1493 001c 01D0     		beq	.L122
1411:Drivers/STM32F3xx_HAL_Driver/Src/stm32f3xx_hal_can.c ****     {
1412:Drivers/STM32F3xx_HAL_Driver/Src/stm32f3xx_hal_can.c ****       status = 1U;
 1494              		.loc 1 1412 14 view .LVU486
 1495 001e 0120     		movs	r0, #1
 1496              	.LVL113:
1413:Drivers/STM32F3xx_HAL_Driver/Src/stm32f3xx_hal_can.c ****     }
1414:Drivers/STM32F3xx_HAL_Driver/Src/stm32f3xx_hal_can.c ****   }
1415:Drivers/STM32F3xx_HAL_Driver/Src/stm32f3xx_hal_can.c **** 
1416:Drivers/STM32F3xx_HAL_Driver/Src/stm32f3xx_hal_can.c ****   /* Return status */
1417:Drivers/STM32F3xx_HAL_Driver/Src/stm32f3xx_hal_can.c ****   return status;
 1497              		.loc 1 1417 3 is_stmt 1 view .LVU487
1418:Drivers/STM32F3xx_HAL_Driver/Src/stm32f3xx_hal_can.c **** }
 1498              		.loc 1 1418 1 is_stmt 0 view .LVU488
 1499 0020 7047     		bx	lr
 1500              	.LVL114:
 1501              	.L122:
1400:Drivers/STM32F3xx_HAL_Driver/Src/stm32f3xx_hal_can.c ****   HAL_CAN_StateTypeDef state = hcan->State;
 1502              		.loc 1 1400 12 view .LVU489
 1503 0022 0020     		movs	r0, #0
 1504              	.LVL115:
1400:Drivers/STM32F3xx_HAL_Driver/Src/stm32f3xx_hal_can.c ****   HAL_CAN_StateTypeDef state = hcan->State;
 1505              		.loc 1 1400 12 view .LVU490
 1506 0024 7047     		bx	lr
 1507              		.cfi_endproc
 1508              	.LFE136:
 1510              		.section	.text.HAL_CAN_GetTxTimestamp,"ax",%progbits
 1511              		.align	1
 1512              		.global	HAL_CAN_GetTxTimestamp
 1513              		.syntax unified
 1514              		.thumb
 1515              		.thumb_func
ARM GAS  C:\msys64\tmp\cc8m32jh.s 			page 57


 1517              	HAL_CAN_GetTxTimestamp:
 1518              	.LVL116:
 1519              	.LFB137:
1419:Drivers/STM32F3xx_HAL_Driver/Src/stm32f3xx_hal_can.c **** 
1420:Drivers/STM32F3xx_HAL_Driver/Src/stm32f3xx_hal_can.c **** /**
1421:Drivers/STM32F3xx_HAL_Driver/Src/stm32f3xx_hal_can.c ****   * @brief  Return timestamp of Tx message sent, if time triggered communication
1422:Drivers/STM32F3xx_HAL_Driver/Src/stm32f3xx_hal_can.c ****             mode is enabled.
1423:Drivers/STM32F3xx_HAL_Driver/Src/stm32f3xx_hal_can.c ****   * @param  hcan pointer to a CAN_HandleTypeDef structure that contains
1424:Drivers/STM32F3xx_HAL_Driver/Src/stm32f3xx_hal_can.c ****   *         the configuration information for the specified CAN.
1425:Drivers/STM32F3xx_HAL_Driver/Src/stm32f3xx_hal_can.c ****   * @param  TxMailbox Tx Mailbox where the timestamp of message sent will be
1426:Drivers/STM32F3xx_HAL_Driver/Src/stm32f3xx_hal_can.c ****   *         read.
1427:Drivers/STM32F3xx_HAL_Driver/Src/stm32f3xx_hal_can.c ****   *         This parameter can be one value of @arg CAN_Tx_Mailboxes.
1428:Drivers/STM32F3xx_HAL_Driver/Src/stm32f3xx_hal_can.c ****   * @retval Timestamp of message sent from Tx Mailbox.
1429:Drivers/STM32F3xx_HAL_Driver/Src/stm32f3xx_hal_can.c ****   */
1430:Drivers/STM32F3xx_HAL_Driver/Src/stm32f3xx_hal_can.c **** uint32_t HAL_CAN_GetTxTimestamp(const CAN_HandleTypeDef *hcan, uint32_t TxMailbox)
1431:Drivers/STM32F3xx_HAL_Driver/Src/stm32f3xx_hal_can.c **** {
 1520              		.loc 1 1431 1 is_stmt 1 view -0
 1521              		.cfi_startproc
 1522              		@ args = 0, pretend = 0, frame = 0
 1523              		@ frame_needed = 0, uses_anonymous_args = 0
 1524              		@ link register save eliminated.
1432:Drivers/STM32F3xx_HAL_Driver/Src/stm32f3xx_hal_can.c ****   uint32_t timestamp = 0U;
 1525              		.loc 1 1432 3 view .LVU492
1433:Drivers/STM32F3xx_HAL_Driver/Src/stm32f3xx_hal_can.c ****   uint32_t transmitmailbox;
 1526              		.loc 1 1433 3 view .LVU493
1434:Drivers/STM32F3xx_HAL_Driver/Src/stm32f3xx_hal_can.c ****   HAL_CAN_StateTypeDef state = hcan->State;
 1527              		.loc 1 1434 3 view .LVU494
 1528              		.loc 1 1434 24 is_stmt 0 view .LVU495
 1529 0000 90F82030 		ldrb	r3, [r0, #32]	@ zero_extendqisi2
 1530              	.LVL117:
1435:Drivers/STM32F3xx_HAL_Driver/Src/stm32f3xx_hal_can.c **** 
1436:Drivers/STM32F3xx_HAL_Driver/Src/stm32f3xx_hal_can.c ****   /* Check function parameters */
1437:Drivers/STM32F3xx_HAL_Driver/Src/stm32f3xx_hal_can.c ****   assert_param(IS_CAN_TX_MAILBOX(TxMailbox));
 1531              		.loc 1 1437 3 is_stmt 1 view .LVU496
1438:Drivers/STM32F3xx_HAL_Driver/Src/stm32f3xx_hal_can.c **** 
1439:Drivers/STM32F3xx_HAL_Driver/Src/stm32f3xx_hal_can.c ****   if ((state == HAL_CAN_STATE_READY) ||
 1532              		.loc 1 1439 3 view .LVU497
 1533              		.loc 1 1439 38 is_stmt 0 view .LVU498
 1534 0004 013B     		subs	r3, r3, #1
 1535              	.LVL118:
 1536              		.loc 1 1439 38 view .LVU499
 1537 0006 DBB2     		uxtb	r3, r3
 1538              	.LVL119:
 1539              		.loc 1 1439 6 view .LVU500
 1540 0008 012B     		cmp	r3, #1
 1541 000a 01D9     		bls	.L126
1432:Drivers/STM32F3xx_HAL_Driver/Src/stm32f3xx_hal_can.c ****   uint32_t transmitmailbox;
 1542              		.loc 1 1432 12 view .LVU501
 1543 000c 0020     		movs	r0, #0
 1544              	.LVL120:
1440:Drivers/STM32F3xx_HAL_Driver/Src/stm32f3xx_hal_can.c ****       (state == HAL_CAN_STATE_LISTENING))
1441:Drivers/STM32F3xx_HAL_Driver/Src/stm32f3xx_hal_can.c ****   {
1442:Drivers/STM32F3xx_HAL_Driver/Src/stm32f3xx_hal_can.c ****     /* Select the Tx mailbox */
1443:Drivers/STM32F3xx_HAL_Driver/Src/stm32f3xx_hal_can.c ****     transmitmailbox = POSITION_VAL(TxMailbox);
1444:Drivers/STM32F3xx_HAL_Driver/Src/stm32f3xx_hal_can.c **** 
1445:Drivers/STM32F3xx_HAL_Driver/Src/stm32f3xx_hal_can.c ****     /* Get timestamp */
1446:Drivers/STM32F3xx_HAL_Driver/Src/stm32f3xx_hal_can.c ****     timestamp = (hcan->Instance->sTxMailBox[transmitmailbox].TDTR & CAN_TDT0R_TIME) >> CAN_TDT0R_TI
ARM GAS  C:\msys64\tmp\cc8m32jh.s 			page 58


1447:Drivers/STM32F3xx_HAL_Driver/Src/stm32f3xx_hal_can.c ****   }
1448:Drivers/STM32F3xx_HAL_Driver/Src/stm32f3xx_hal_can.c **** 
1449:Drivers/STM32F3xx_HAL_Driver/Src/stm32f3xx_hal_can.c ****   /* Return the timestamp */
1450:Drivers/STM32F3xx_HAL_Driver/Src/stm32f3xx_hal_can.c ****   return timestamp;
 1545              		.loc 1 1450 3 is_stmt 1 view .LVU502
1451:Drivers/STM32F3xx_HAL_Driver/Src/stm32f3xx_hal_can.c **** }
 1546              		.loc 1 1451 1 is_stmt 0 view .LVU503
 1547 000e 7047     		bx	lr
 1548              	.LVL121:
 1549              	.L126:
1443:Drivers/STM32F3xx_HAL_Driver/Src/stm32f3xx_hal_can.c **** 
 1550              		.loc 1 1443 5 is_stmt 1 view .LVU504
 1551              	.LBB4:
 1552              	.LBI4:
 1553              		.file 2 "Drivers/CMSIS/Include/cmsis_gcc.h"
   1:Drivers/CMSIS/Include/cmsis_gcc.h **** /**************************************************************************//**
   2:Drivers/CMSIS/Include/cmsis_gcc.h ****  * @file     cmsis_gcc.h
   3:Drivers/CMSIS/Include/cmsis_gcc.h ****  * @brief    CMSIS compiler GCC header file
   4:Drivers/CMSIS/Include/cmsis_gcc.h ****  * @version  V5.0.4
   5:Drivers/CMSIS/Include/cmsis_gcc.h ****  * @date     09. April 2018
   6:Drivers/CMSIS/Include/cmsis_gcc.h ****  ******************************************************************************/
   7:Drivers/CMSIS/Include/cmsis_gcc.h **** /*
   8:Drivers/CMSIS/Include/cmsis_gcc.h ****  * Copyright (c) 2009-2018 Arm Limited. All rights reserved.
   9:Drivers/CMSIS/Include/cmsis_gcc.h ****  *
  10:Drivers/CMSIS/Include/cmsis_gcc.h ****  * SPDX-License-Identifier: Apache-2.0
  11:Drivers/CMSIS/Include/cmsis_gcc.h ****  *
  12:Drivers/CMSIS/Include/cmsis_gcc.h ****  * Licensed under the Apache License, Version 2.0 (the License); you may
  13:Drivers/CMSIS/Include/cmsis_gcc.h ****  * not use this file except in compliance with the License.
  14:Drivers/CMSIS/Include/cmsis_gcc.h ****  * You may obtain a copy of the License at
  15:Drivers/CMSIS/Include/cmsis_gcc.h ****  *
  16:Drivers/CMSIS/Include/cmsis_gcc.h ****  * www.apache.org/licenses/LICENSE-2.0
  17:Drivers/CMSIS/Include/cmsis_gcc.h ****  *
  18:Drivers/CMSIS/Include/cmsis_gcc.h ****  * Unless required by applicable law or agreed to in writing, software
  19:Drivers/CMSIS/Include/cmsis_gcc.h ****  * distributed under the License is distributed on an AS IS BASIS, WITHOUT
  20:Drivers/CMSIS/Include/cmsis_gcc.h ****  * WARRANTIES OR CONDITIONS OF ANY KIND, either express or implied.
  21:Drivers/CMSIS/Include/cmsis_gcc.h ****  * See the License for the specific language governing permissions and
  22:Drivers/CMSIS/Include/cmsis_gcc.h ****  * limitations under the License.
  23:Drivers/CMSIS/Include/cmsis_gcc.h ****  */
  24:Drivers/CMSIS/Include/cmsis_gcc.h **** 
  25:Drivers/CMSIS/Include/cmsis_gcc.h **** #ifndef __CMSIS_GCC_H
  26:Drivers/CMSIS/Include/cmsis_gcc.h **** #define __CMSIS_GCC_H
  27:Drivers/CMSIS/Include/cmsis_gcc.h **** 
  28:Drivers/CMSIS/Include/cmsis_gcc.h **** /* ignore some GCC warnings */
  29:Drivers/CMSIS/Include/cmsis_gcc.h **** #pragma GCC diagnostic push
  30:Drivers/CMSIS/Include/cmsis_gcc.h **** #pragma GCC diagnostic ignored "-Wsign-conversion"
  31:Drivers/CMSIS/Include/cmsis_gcc.h **** #pragma GCC diagnostic ignored "-Wconversion"
  32:Drivers/CMSIS/Include/cmsis_gcc.h **** #pragma GCC diagnostic ignored "-Wunused-parameter"
  33:Drivers/CMSIS/Include/cmsis_gcc.h **** 
  34:Drivers/CMSIS/Include/cmsis_gcc.h **** /* Fallback for __has_builtin */
  35:Drivers/CMSIS/Include/cmsis_gcc.h **** #ifndef __has_builtin
  36:Drivers/CMSIS/Include/cmsis_gcc.h ****   #define __has_builtin(x) (0)
  37:Drivers/CMSIS/Include/cmsis_gcc.h **** #endif
  38:Drivers/CMSIS/Include/cmsis_gcc.h **** 
  39:Drivers/CMSIS/Include/cmsis_gcc.h **** /* CMSIS compiler specific defines */
  40:Drivers/CMSIS/Include/cmsis_gcc.h **** #ifndef   __ASM
  41:Drivers/CMSIS/Include/cmsis_gcc.h ****   #define __ASM                                  __asm
  42:Drivers/CMSIS/Include/cmsis_gcc.h **** #endif
ARM GAS  C:\msys64\tmp\cc8m32jh.s 			page 59


  43:Drivers/CMSIS/Include/cmsis_gcc.h **** #ifndef   __INLINE
  44:Drivers/CMSIS/Include/cmsis_gcc.h ****   #define __INLINE                               inline
  45:Drivers/CMSIS/Include/cmsis_gcc.h **** #endif
  46:Drivers/CMSIS/Include/cmsis_gcc.h **** #ifndef   __STATIC_INLINE
  47:Drivers/CMSIS/Include/cmsis_gcc.h ****   #define __STATIC_INLINE                        static inline
  48:Drivers/CMSIS/Include/cmsis_gcc.h **** #endif
  49:Drivers/CMSIS/Include/cmsis_gcc.h **** #ifndef   __STATIC_FORCEINLINE                 
  50:Drivers/CMSIS/Include/cmsis_gcc.h ****   #define __STATIC_FORCEINLINE                   __attribute__((always_inline)) static inline
  51:Drivers/CMSIS/Include/cmsis_gcc.h **** #endif                                           
  52:Drivers/CMSIS/Include/cmsis_gcc.h **** #ifndef   __NO_RETURN
  53:Drivers/CMSIS/Include/cmsis_gcc.h ****   #define __NO_RETURN                            __attribute__((__noreturn__))
  54:Drivers/CMSIS/Include/cmsis_gcc.h **** #endif
  55:Drivers/CMSIS/Include/cmsis_gcc.h **** #ifndef   __USED
  56:Drivers/CMSIS/Include/cmsis_gcc.h ****   #define __USED                                 __attribute__((used))
  57:Drivers/CMSIS/Include/cmsis_gcc.h **** #endif
  58:Drivers/CMSIS/Include/cmsis_gcc.h **** #ifndef   __WEAK
  59:Drivers/CMSIS/Include/cmsis_gcc.h ****   #define __WEAK                                 __attribute__((weak))
  60:Drivers/CMSIS/Include/cmsis_gcc.h **** #endif
  61:Drivers/CMSIS/Include/cmsis_gcc.h **** #ifndef   __PACKED
  62:Drivers/CMSIS/Include/cmsis_gcc.h ****   #define __PACKED                               __attribute__((packed, aligned(1)))
  63:Drivers/CMSIS/Include/cmsis_gcc.h **** #endif
  64:Drivers/CMSIS/Include/cmsis_gcc.h **** #ifndef   __PACKED_STRUCT
  65:Drivers/CMSIS/Include/cmsis_gcc.h ****   #define __PACKED_STRUCT                        struct __attribute__((packed, aligned(1)))
  66:Drivers/CMSIS/Include/cmsis_gcc.h **** #endif
  67:Drivers/CMSIS/Include/cmsis_gcc.h **** #ifndef   __PACKED_UNION
  68:Drivers/CMSIS/Include/cmsis_gcc.h ****   #define __PACKED_UNION                         union __attribute__((packed, aligned(1)))
  69:Drivers/CMSIS/Include/cmsis_gcc.h **** #endif
  70:Drivers/CMSIS/Include/cmsis_gcc.h **** #ifndef   __UNALIGNED_UINT32        /* deprecated */
  71:Drivers/CMSIS/Include/cmsis_gcc.h ****   #pragma GCC diagnostic push
  72:Drivers/CMSIS/Include/cmsis_gcc.h ****   #pragma GCC diagnostic ignored "-Wpacked"
  73:Drivers/CMSIS/Include/cmsis_gcc.h ****   #pragma GCC diagnostic ignored "-Wattributes"
  74:Drivers/CMSIS/Include/cmsis_gcc.h ****   struct __attribute__((packed)) T_UINT32 { uint32_t v; };
  75:Drivers/CMSIS/Include/cmsis_gcc.h ****   #pragma GCC diagnostic pop
  76:Drivers/CMSIS/Include/cmsis_gcc.h ****   #define __UNALIGNED_UINT32(x)                  (((struct T_UINT32 *)(x))->v)
  77:Drivers/CMSIS/Include/cmsis_gcc.h **** #endif
  78:Drivers/CMSIS/Include/cmsis_gcc.h **** #ifndef   __UNALIGNED_UINT16_WRITE
  79:Drivers/CMSIS/Include/cmsis_gcc.h ****   #pragma GCC diagnostic push
  80:Drivers/CMSIS/Include/cmsis_gcc.h ****   #pragma GCC diagnostic ignored "-Wpacked"
  81:Drivers/CMSIS/Include/cmsis_gcc.h ****   #pragma GCC diagnostic ignored "-Wattributes"
  82:Drivers/CMSIS/Include/cmsis_gcc.h ****   __PACKED_STRUCT T_UINT16_WRITE { uint16_t v; };
  83:Drivers/CMSIS/Include/cmsis_gcc.h ****   #pragma GCC diagnostic pop
  84:Drivers/CMSIS/Include/cmsis_gcc.h ****   #define __UNALIGNED_UINT16_WRITE(addr, val)    (void)((((struct T_UINT16_WRITE *)(void *)(addr))-
  85:Drivers/CMSIS/Include/cmsis_gcc.h **** #endif
  86:Drivers/CMSIS/Include/cmsis_gcc.h **** #ifndef   __UNALIGNED_UINT16_READ
  87:Drivers/CMSIS/Include/cmsis_gcc.h ****   #pragma GCC diagnostic push
  88:Drivers/CMSIS/Include/cmsis_gcc.h ****   #pragma GCC diagnostic ignored "-Wpacked"
  89:Drivers/CMSIS/Include/cmsis_gcc.h ****   #pragma GCC diagnostic ignored "-Wattributes"
  90:Drivers/CMSIS/Include/cmsis_gcc.h ****   __PACKED_STRUCT T_UINT16_READ { uint16_t v; };
  91:Drivers/CMSIS/Include/cmsis_gcc.h ****   #pragma GCC diagnostic pop
  92:Drivers/CMSIS/Include/cmsis_gcc.h ****   #define __UNALIGNED_UINT16_READ(addr)          (((const struct T_UINT16_READ *)(const void *)(add
  93:Drivers/CMSIS/Include/cmsis_gcc.h **** #endif
  94:Drivers/CMSIS/Include/cmsis_gcc.h **** #ifndef   __UNALIGNED_UINT32_WRITE
  95:Drivers/CMSIS/Include/cmsis_gcc.h ****   #pragma GCC diagnostic push
  96:Drivers/CMSIS/Include/cmsis_gcc.h ****   #pragma GCC diagnostic ignored "-Wpacked"
  97:Drivers/CMSIS/Include/cmsis_gcc.h ****   #pragma GCC diagnostic ignored "-Wattributes"
  98:Drivers/CMSIS/Include/cmsis_gcc.h ****   __PACKED_STRUCT T_UINT32_WRITE { uint32_t v; };
  99:Drivers/CMSIS/Include/cmsis_gcc.h ****   #pragma GCC diagnostic pop
ARM GAS  C:\msys64\tmp\cc8m32jh.s 			page 60


 100:Drivers/CMSIS/Include/cmsis_gcc.h ****   #define __UNALIGNED_UINT32_WRITE(addr, val)    (void)((((struct T_UINT32_WRITE *)(void *)(addr))-
 101:Drivers/CMSIS/Include/cmsis_gcc.h **** #endif
 102:Drivers/CMSIS/Include/cmsis_gcc.h **** #ifndef   __UNALIGNED_UINT32_READ
 103:Drivers/CMSIS/Include/cmsis_gcc.h ****   #pragma GCC diagnostic push
 104:Drivers/CMSIS/Include/cmsis_gcc.h ****   #pragma GCC diagnostic ignored "-Wpacked"
 105:Drivers/CMSIS/Include/cmsis_gcc.h ****   #pragma GCC diagnostic ignored "-Wattributes"
 106:Drivers/CMSIS/Include/cmsis_gcc.h ****   __PACKED_STRUCT T_UINT32_READ { uint32_t v; };
 107:Drivers/CMSIS/Include/cmsis_gcc.h ****   #pragma GCC diagnostic pop
 108:Drivers/CMSIS/Include/cmsis_gcc.h ****   #define __UNALIGNED_UINT32_READ(addr)          (((const struct T_UINT32_READ *)(const void *)(add
 109:Drivers/CMSIS/Include/cmsis_gcc.h **** #endif
 110:Drivers/CMSIS/Include/cmsis_gcc.h **** #ifndef   __ALIGNED
 111:Drivers/CMSIS/Include/cmsis_gcc.h ****   #define __ALIGNED(x)                           __attribute__((aligned(x)))
 112:Drivers/CMSIS/Include/cmsis_gcc.h **** #endif
 113:Drivers/CMSIS/Include/cmsis_gcc.h **** #ifndef   __RESTRICT
 114:Drivers/CMSIS/Include/cmsis_gcc.h ****   #define __RESTRICT                             __restrict
 115:Drivers/CMSIS/Include/cmsis_gcc.h **** #endif
 116:Drivers/CMSIS/Include/cmsis_gcc.h **** 
 117:Drivers/CMSIS/Include/cmsis_gcc.h **** 
 118:Drivers/CMSIS/Include/cmsis_gcc.h **** /* ###########################  Core Function Access  ########################### */
 119:Drivers/CMSIS/Include/cmsis_gcc.h **** /** \ingroup  CMSIS_Core_FunctionInterface
 120:Drivers/CMSIS/Include/cmsis_gcc.h ****     \defgroup CMSIS_Core_RegAccFunctions CMSIS Core Register Access Functions
 121:Drivers/CMSIS/Include/cmsis_gcc.h ****   @{
 122:Drivers/CMSIS/Include/cmsis_gcc.h ****  */
 123:Drivers/CMSIS/Include/cmsis_gcc.h **** 
 124:Drivers/CMSIS/Include/cmsis_gcc.h **** /**
 125:Drivers/CMSIS/Include/cmsis_gcc.h ****   \brief   Enable IRQ Interrupts
 126:Drivers/CMSIS/Include/cmsis_gcc.h ****   \details Enables IRQ interrupts by clearing the I-bit in the CPSR.
 127:Drivers/CMSIS/Include/cmsis_gcc.h ****            Can only be executed in Privileged modes.
 128:Drivers/CMSIS/Include/cmsis_gcc.h ****  */
 129:Drivers/CMSIS/Include/cmsis_gcc.h **** __STATIC_FORCEINLINE void __enable_irq(void)
 130:Drivers/CMSIS/Include/cmsis_gcc.h **** {
 131:Drivers/CMSIS/Include/cmsis_gcc.h ****   __ASM volatile ("cpsie i" : : : "memory");
 132:Drivers/CMSIS/Include/cmsis_gcc.h **** }
 133:Drivers/CMSIS/Include/cmsis_gcc.h **** 
 134:Drivers/CMSIS/Include/cmsis_gcc.h **** 
 135:Drivers/CMSIS/Include/cmsis_gcc.h **** /**
 136:Drivers/CMSIS/Include/cmsis_gcc.h ****   \brief   Disable IRQ Interrupts
 137:Drivers/CMSIS/Include/cmsis_gcc.h ****   \details Disables IRQ interrupts by setting the I-bit in the CPSR.
 138:Drivers/CMSIS/Include/cmsis_gcc.h ****            Can only be executed in Privileged modes.
 139:Drivers/CMSIS/Include/cmsis_gcc.h ****  */
 140:Drivers/CMSIS/Include/cmsis_gcc.h **** __STATIC_FORCEINLINE void __disable_irq(void)
 141:Drivers/CMSIS/Include/cmsis_gcc.h **** {
 142:Drivers/CMSIS/Include/cmsis_gcc.h ****   __ASM volatile ("cpsid i" : : : "memory");
 143:Drivers/CMSIS/Include/cmsis_gcc.h **** }
 144:Drivers/CMSIS/Include/cmsis_gcc.h **** 
 145:Drivers/CMSIS/Include/cmsis_gcc.h **** 
 146:Drivers/CMSIS/Include/cmsis_gcc.h **** /**
 147:Drivers/CMSIS/Include/cmsis_gcc.h ****   \brief   Get Control Register
 148:Drivers/CMSIS/Include/cmsis_gcc.h ****   \details Returns the content of the Control Register.
 149:Drivers/CMSIS/Include/cmsis_gcc.h ****   \return               Control Register value
 150:Drivers/CMSIS/Include/cmsis_gcc.h ****  */
 151:Drivers/CMSIS/Include/cmsis_gcc.h **** __STATIC_FORCEINLINE uint32_t __get_CONTROL(void)
 152:Drivers/CMSIS/Include/cmsis_gcc.h **** {
 153:Drivers/CMSIS/Include/cmsis_gcc.h ****   uint32_t result;
 154:Drivers/CMSIS/Include/cmsis_gcc.h **** 
 155:Drivers/CMSIS/Include/cmsis_gcc.h ****   __ASM volatile ("MRS %0, control" : "=r" (result) );
 156:Drivers/CMSIS/Include/cmsis_gcc.h ****   return(result);
ARM GAS  C:\msys64\tmp\cc8m32jh.s 			page 61


 157:Drivers/CMSIS/Include/cmsis_gcc.h **** }
 158:Drivers/CMSIS/Include/cmsis_gcc.h **** 
 159:Drivers/CMSIS/Include/cmsis_gcc.h **** 
 160:Drivers/CMSIS/Include/cmsis_gcc.h **** #if (defined (__ARM_FEATURE_CMSE ) && (__ARM_FEATURE_CMSE == 3))
 161:Drivers/CMSIS/Include/cmsis_gcc.h **** /**
 162:Drivers/CMSIS/Include/cmsis_gcc.h ****   \brief   Get Control Register (non-secure)
 163:Drivers/CMSIS/Include/cmsis_gcc.h ****   \details Returns the content of the non-secure Control Register when in secure mode.
 164:Drivers/CMSIS/Include/cmsis_gcc.h ****   \return               non-secure Control Register value
 165:Drivers/CMSIS/Include/cmsis_gcc.h ****  */
 166:Drivers/CMSIS/Include/cmsis_gcc.h **** __STATIC_FORCEINLINE uint32_t __TZ_get_CONTROL_NS(void)
 167:Drivers/CMSIS/Include/cmsis_gcc.h **** {
 168:Drivers/CMSIS/Include/cmsis_gcc.h ****   uint32_t result;
 169:Drivers/CMSIS/Include/cmsis_gcc.h **** 
 170:Drivers/CMSIS/Include/cmsis_gcc.h ****   __ASM volatile ("MRS %0, control_ns" : "=r" (result) );
 171:Drivers/CMSIS/Include/cmsis_gcc.h ****   return(result);
 172:Drivers/CMSIS/Include/cmsis_gcc.h **** }
 173:Drivers/CMSIS/Include/cmsis_gcc.h **** #endif
 174:Drivers/CMSIS/Include/cmsis_gcc.h **** 
 175:Drivers/CMSIS/Include/cmsis_gcc.h **** 
 176:Drivers/CMSIS/Include/cmsis_gcc.h **** /**
 177:Drivers/CMSIS/Include/cmsis_gcc.h ****   \brief   Set Control Register
 178:Drivers/CMSIS/Include/cmsis_gcc.h ****   \details Writes the given value to the Control Register.
 179:Drivers/CMSIS/Include/cmsis_gcc.h ****   \param [in]    control  Control Register value to set
 180:Drivers/CMSIS/Include/cmsis_gcc.h ****  */
 181:Drivers/CMSIS/Include/cmsis_gcc.h **** __STATIC_FORCEINLINE void __set_CONTROL(uint32_t control)
 182:Drivers/CMSIS/Include/cmsis_gcc.h **** {
 183:Drivers/CMSIS/Include/cmsis_gcc.h ****   __ASM volatile ("MSR control, %0" : : "r" (control) : "memory");
 184:Drivers/CMSIS/Include/cmsis_gcc.h **** }
 185:Drivers/CMSIS/Include/cmsis_gcc.h **** 
 186:Drivers/CMSIS/Include/cmsis_gcc.h **** 
 187:Drivers/CMSIS/Include/cmsis_gcc.h **** #if (defined (__ARM_FEATURE_CMSE ) && (__ARM_FEATURE_CMSE == 3))
 188:Drivers/CMSIS/Include/cmsis_gcc.h **** /**
 189:Drivers/CMSIS/Include/cmsis_gcc.h ****   \brief   Set Control Register (non-secure)
 190:Drivers/CMSIS/Include/cmsis_gcc.h ****   \details Writes the given value to the non-secure Control Register when in secure state.
 191:Drivers/CMSIS/Include/cmsis_gcc.h ****   \param [in]    control  Control Register value to set
 192:Drivers/CMSIS/Include/cmsis_gcc.h ****  */
 193:Drivers/CMSIS/Include/cmsis_gcc.h **** __STATIC_FORCEINLINE void __TZ_set_CONTROL_NS(uint32_t control)
 194:Drivers/CMSIS/Include/cmsis_gcc.h **** {
 195:Drivers/CMSIS/Include/cmsis_gcc.h ****   __ASM volatile ("MSR control_ns, %0" : : "r" (control) : "memory");
 196:Drivers/CMSIS/Include/cmsis_gcc.h **** }
 197:Drivers/CMSIS/Include/cmsis_gcc.h **** #endif
 198:Drivers/CMSIS/Include/cmsis_gcc.h **** 
 199:Drivers/CMSIS/Include/cmsis_gcc.h **** 
 200:Drivers/CMSIS/Include/cmsis_gcc.h **** /**
 201:Drivers/CMSIS/Include/cmsis_gcc.h ****   \brief   Get IPSR Register
 202:Drivers/CMSIS/Include/cmsis_gcc.h ****   \details Returns the content of the IPSR Register.
 203:Drivers/CMSIS/Include/cmsis_gcc.h ****   \return               IPSR Register value
 204:Drivers/CMSIS/Include/cmsis_gcc.h ****  */
 205:Drivers/CMSIS/Include/cmsis_gcc.h **** __STATIC_FORCEINLINE uint32_t __get_IPSR(void)
 206:Drivers/CMSIS/Include/cmsis_gcc.h **** {
 207:Drivers/CMSIS/Include/cmsis_gcc.h ****   uint32_t result;
 208:Drivers/CMSIS/Include/cmsis_gcc.h **** 
 209:Drivers/CMSIS/Include/cmsis_gcc.h ****   __ASM volatile ("MRS %0, ipsr" : "=r" (result) );
 210:Drivers/CMSIS/Include/cmsis_gcc.h ****   return(result);
 211:Drivers/CMSIS/Include/cmsis_gcc.h **** }
 212:Drivers/CMSIS/Include/cmsis_gcc.h **** 
 213:Drivers/CMSIS/Include/cmsis_gcc.h **** 
ARM GAS  C:\msys64\tmp\cc8m32jh.s 			page 62


 214:Drivers/CMSIS/Include/cmsis_gcc.h **** /**
 215:Drivers/CMSIS/Include/cmsis_gcc.h ****   \brief   Get APSR Register
 216:Drivers/CMSIS/Include/cmsis_gcc.h ****   \details Returns the content of the APSR Register.
 217:Drivers/CMSIS/Include/cmsis_gcc.h ****   \return               APSR Register value
 218:Drivers/CMSIS/Include/cmsis_gcc.h ****  */
 219:Drivers/CMSIS/Include/cmsis_gcc.h **** __STATIC_FORCEINLINE uint32_t __get_APSR(void)
 220:Drivers/CMSIS/Include/cmsis_gcc.h **** {
