ARM GAS  C:\msys64\tmp\cc89SrRF.s 			page 1


   1              		.cpu cortex-m4
   2              		.arch armv7e-m
   3              		.fpu fpv4-sp-d16
   4              		.eabi_attribute 27, 1
   5              		.eabi_attribute 28, 1
   6              		.eabi_attribute 20, 1
   7              		.eabi_attribute 21, 1
   8              		.eabi_attribute 23, 3
   9              		.eabi_attribute 24, 1
  10              		.eabi_attribute 25, 1
  11              		.eabi_attribute 26, 1
  12              		.eabi_attribute 30, 1
  13              		.eabi_attribute 34, 1
  14              		.eabi_attribute 18, 4
  15              		.file	"stm32f3xx_it.c"
  16              		.text
  17              	.Ltext0:
  18              		.cfi_sections	.debug_frame
  19              		.file 1 "Core/Src/stm32f3xx_it.c"
  20              		.section	.text.NMI_Handler,"ax",%progbits
  21              		.align	1
  22              		.global	NMI_Handler
  23              		.syntax unified
  24              		.thumb
  25              		.thumb_func
  27              	NMI_Handler:
  28              	.LFB123:
   1:Core/Src/stm32f3xx_it.c **** /* USER CODE BEGIN Header */
   2:Core/Src/stm32f3xx_it.c **** /**
   3:Core/Src/stm32f3xx_it.c ****   ******************************************************************************
   4:Core/Src/stm32f3xx_it.c ****   * @file    stm32f3xx_it.c
   5:Core/Src/stm32f3xx_it.c ****   * @brief   Interrupt Service Routines.
   6:Core/Src/stm32f3xx_it.c ****   ******************************************************************************
   7:Core/Src/stm32f3xx_it.c ****   * @attention
   8:Core/Src/stm32f3xx_it.c ****   *
   9:Core/Src/stm32f3xx_it.c ****   * Copyright (c) 2025 STMicroelectronics.
  10:Core/Src/stm32f3xx_it.c ****   * All rights reserved.
  11:Core/Src/stm32f3xx_it.c ****   *
  12:Core/Src/stm32f3xx_it.c ****   * This software is licensed under terms that can be found in the LICENSE file
  13:Core/Src/stm32f3xx_it.c ****   * in the root directory of this software component.
  14:Core/Src/stm32f3xx_it.c ****   * If no LICENSE file comes with this software, it is provided AS-IS.
  15:Core/Src/stm32f3xx_it.c ****   *
  16:Core/Src/stm32f3xx_it.c ****   ******************************************************************************
  17:Core/Src/stm32f3xx_it.c ****   */
  18:Core/Src/stm32f3xx_it.c **** /* USER CODE END Header */
  19:Core/Src/stm32f3xx_it.c **** 
  20:Core/Src/stm32f3xx_it.c **** /* Includes ------------------------------------------------------------------*/
  21:Core/Src/stm32f3xx_it.c **** #include "main.h"
  22:Core/Src/stm32f3xx_it.c **** #include "stm32f3xx_it.h"
  23:Core/Src/stm32f3xx_it.c **** /* Private includes ----------------------------------------------------------*/
  24:Core/Src/stm32f3xx_it.c **** /* USER CODE BEGIN Includes */
  25:Core/Src/stm32f3xx_it.c **** #include <math.h>
  26:Core/Src/stm32f3xx_it.c **** #include "adc.h"
  27:Core/Src/stm32f3xx_it.c **** #include "power.h"
  28:Core/Src/stm32f3xx_it.c **** /* USER CODE END Includes */
  29:Core/Src/stm32f3xx_it.c **** 
  30:Core/Src/stm32f3xx_it.c **** /* Private typedef -----------------------------------------------------------*/
ARM GAS  C:\msys64\tmp\cc89SrRF.s 			page 2


  31:Core/Src/stm32f3xx_it.c **** /* USER CODE BEGIN TD */
  32:Core/Src/stm32f3xx_it.c **** void Check_Protection_Fast();
  33:Core/Src/stm32f3xx_it.c **** void Check_Protection_Slow();
  34:Core/Src/stm32f3xx_it.c **** /* USER CODE END TD */
  35:Core/Src/stm32f3xx_it.c **** 
  36:Core/Src/stm32f3xx_it.c **** /* Private define ------------------------------------------------------------*/
  37:Core/Src/stm32f3xx_it.c **** /* USER CODE BEGIN PD */
  38:Core/Src/stm32f3xx_it.c **** 
  39:Core/Src/stm32f3xx_it.c **** /* USER CODE END PD */
  40:Core/Src/stm32f3xx_it.c **** 
  41:Core/Src/stm32f3xx_it.c **** /* Private macro -------------------------------------------------------------*/
  42:Core/Src/stm32f3xx_it.c **** /* USER CODE BEGIN PM */
  43:Core/Src/stm32f3xx_it.c **** 
  44:Core/Src/stm32f3xx_it.c **** /* USER CODE END PM */
  45:Core/Src/stm32f3xx_it.c **** 
  46:Core/Src/stm32f3xx_it.c **** /* Private variables ---------------------------------------------------------*/
  47:Core/Src/stm32f3xx_it.c **** /* USER CODE BEGIN PV */
  48:Core/Src/stm32f3xx_it.c **** 
  49:Core/Src/stm32f3xx_it.c **** /* USER CODE END PV */
  50:Core/Src/stm32f3xx_it.c **** 
  51:Core/Src/stm32f3xx_it.c **** /* Private function prototypes -----------------------------------------------*/
  52:Core/Src/stm32f3xx_it.c **** /* USER CODE BEGIN PFP */
  53:Core/Src/stm32f3xx_it.c **** 
  54:Core/Src/stm32f3xx_it.c **** /* USER CODE END PFP */
  55:Core/Src/stm32f3xx_it.c **** 
  56:Core/Src/stm32f3xx_it.c **** /* Private user code ---------------------------------------------------------*/
  57:Core/Src/stm32f3xx_it.c **** /* USER CODE BEGIN 0 */
  58:Core/Src/stm32f3xx_it.c **** 
  59:Core/Src/stm32f3xx_it.c **** /* USER CODE END 0 */
  60:Core/Src/stm32f3xx_it.c **** 
  61:Core/Src/stm32f3xx_it.c **** /* External variables --------------------------------------------------------*/
  62:Core/Src/stm32f3xx_it.c **** extern DMA_HandleTypeDef hdma_adc1;
  63:Core/Src/stm32f3xx_it.c **** extern DMA_HandleTypeDef hdma_adc2;
  64:Core/Src/stm32f3xx_it.c **** extern CAN_HandleTypeDef hcan;
  65:Core/Src/stm32f3xx_it.c **** /* USER CODE BEGIN EV */
  66:Core/Src/stm32f3xx_it.c **** extern CAN_TxHeaderTypeDef TxHeader;
  67:Core/Src/stm32f3xx_it.c **** extern uint32_t TxMailbox;
  68:Core/Src/stm32f3xx_it.c **** extern uint8_t TxData[8];
  69:Core/Src/stm32f3xx_it.c **** extern CAN_HandleTypeDef hcan; // hcan 也得引用，不然你发不出去
  70:Core/Src/stm32f3xx_it.c **** extern uint8_t a;
  71:Core/Src/stm32f3xx_it.c **** extern HRTIM_HandleTypeDef hhrtim1;
  72:Core/Src/stm32f3xx_it.c **** /* USER CODE END EV */
  73:Core/Src/stm32f3xx_it.c **** 
  74:Core/Src/stm32f3xx_it.c **** /******************************************************************************/
  75:Core/Src/stm32f3xx_it.c **** /*           Cortex-M4 Processor Interruption and Exception Handlers          */
  76:Core/Src/stm32f3xx_it.c **** /******************************************************************************/
  77:Core/Src/stm32f3xx_it.c **** /**
  78:Core/Src/stm32f3xx_it.c ****   * @brief This function handles Non maskable interrupt.
  79:Core/Src/stm32f3xx_it.c ****   */
  80:Core/Src/stm32f3xx_it.c **** void NMI_Handler(void)
  81:Core/Src/stm32f3xx_it.c **** {
  29              		.loc 1 81 1 view -0
  30              		.cfi_startproc
  31              		@ Volatile: function does not return.
  32              		@ args = 0, pretend = 0, frame = 0
  33              		@ frame_needed = 0, uses_anonymous_args = 0
  34              		@ link register save eliminated.
ARM GAS  C:\msys64\tmp\cc89SrRF.s 			page 3


  35              	.L2:
  82:Core/Src/stm32f3xx_it.c ****   /* USER CODE BEGIN NonMaskableInt_IRQn 0 */
  83:Core/Src/stm32f3xx_it.c **** 
  84:Core/Src/stm32f3xx_it.c ****   /* USER CODE END NonMaskableInt_IRQn 0 */
  85:Core/Src/stm32f3xx_it.c ****   /* USER CODE BEGIN NonMaskableInt_IRQn 1 */
  86:Core/Src/stm32f3xx_it.c ****    while (1)
  36              		.loc 1 86 4 view .LVU1
  87:Core/Src/stm32f3xx_it.c ****   {
  88:Core/Src/stm32f3xx_it.c ****   }
  37              		.loc 1 88 3 view .LVU2
  86:Core/Src/stm32f3xx_it.c ****   {
  38              		.loc 1 86 10 view .LVU3
  39 0000 FEE7     		b	.L2
  40              		.cfi_endproc
  41              	.LFE123:
  43              		.section	.text.HardFault_Handler,"ax",%progbits
  44              		.align	1
  45              		.global	HardFault_Handler
  46              		.syntax unified
  47              		.thumb
  48              		.thumb_func
  50              	HardFault_Handler:
  51              	.LFB124:
  89:Core/Src/stm32f3xx_it.c ****   /* USER CODE END NonMaskableInt_IRQn 1 */
  90:Core/Src/stm32f3xx_it.c **** }
  91:Core/Src/stm32f3xx_it.c **** 
  92:Core/Src/stm32f3xx_it.c **** /**
  93:Core/Src/stm32f3xx_it.c ****   * @brief This function handles Hard fault interrupt.
  94:Core/Src/stm32f3xx_it.c ****   */
  95:Core/Src/stm32f3xx_it.c **** void HardFault_Handler(void)
  96:Core/Src/stm32f3xx_it.c **** {
  52              		.loc 1 96 1 view -0
  53              		.cfi_startproc
  54              		@ Volatile: function does not return.
  55              		@ args = 0, pretend = 0, frame = 0
  56              		@ frame_needed = 0, uses_anonymous_args = 0
  57              		@ link register save eliminated.
  58              	.L4:
  97:Core/Src/stm32f3xx_it.c ****   /* USER CODE BEGIN HardFault_IRQn 0 */
  98:Core/Src/stm32f3xx_it.c **** 
  99:Core/Src/stm32f3xx_it.c ****   /* USER CODE END HardFault_IRQn 0 */
 100:Core/Src/stm32f3xx_it.c ****   while (1)
  59              		.loc 1 100 3 view .LVU5
 101:Core/Src/stm32f3xx_it.c ****   {
 102:Core/Src/stm32f3xx_it.c ****     /* USER CODE BEGIN W1_HardFault_IRQn 0 */
 103:Core/Src/stm32f3xx_it.c ****     /* USER CODE END W1_HardFault_IRQn 0 */
 104:Core/Src/stm32f3xx_it.c ****   }
  60              		.loc 1 104 3 view .LVU6
 100:Core/Src/stm32f3xx_it.c ****   {
  61              		.loc 1 100 9 view .LVU7
  62 0000 FEE7     		b	.L4
  63              		.cfi_endproc
  64              	.LFE124:
  66              		.section	.text.MemManage_Handler,"ax",%progbits
  67              		.align	1
  68              		.global	MemManage_Handler
  69              		.syntax unified
ARM GAS  C:\msys64\tmp\cc89SrRF.s 			page 4


  70              		.thumb
  71              		.thumb_func
  73              	MemManage_Handler:
  74              	.LFB125:
 105:Core/Src/stm32f3xx_it.c **** }
 106:Core/Src/stm32f3xx_it.c **** 
 107:Core/Src/stm32f3xx_it.c **** /**
 108:Core/Src/stm32f3xx_it.c ****   * @brief This function handles Memory management fault.
 109:Core/Src/stm32f3xx_it.c ****   */
 110:Core/Src/stm32f3xx_it.c **** void MemManage_Handler(void)
 111:Core/Src/stm32f3xx_it.c **** {
  75              		.loc 1 111 1 view -0
  76              		.cfi_startproc
  77              		@ Volatile: function does not return.
  78              		@ args = 0, pretend = 0, frame = 0
  79              		@ frame_needed = 0, uses_anonymous_args = 0
  80              		@ link register save eliminated.
  81              	.L6:
 112:Core/Src/stm32f3xx_it.c ****   /* USER CODE BEGIN MemoryManagement_IRQn 0 */
 113:Core/Src/stm32f3xx_it.c **** 
 114:Core/Src/stm32f3xx_it.c ****   /* USER CODE END MemoryManagement_IRQn 0 */
 115:Core/Src/stm32f3xx_it.c ****   while (1)
  82              		.loc 1 115 3 view .LVU9
 116:Core/Src/stm32f3xx_it.c ****   {
 117:Core/Src/stm32f3xx_it.c ****     /* USER CODE BEGIN W1_MemoryManagement_IRQn 0 */
 118:Core/Src/stm32f3xx_it.c ****     /* USER CODE END W1_MemoryManagement_IRQn 0 */
 119:Core/Src/stm32f3xx_it.c ****   }
  83              		.loc 1 119 3 view .LVU10
 115:Core/Src/stm32f3xx_it.c ****   {
  84              		.loc 1 115 9 view .LVU11
  85 0000 FEE7     		b	.L6
  86              		.cfi_endproc
  87              	.LFE125:
  89              		.section	.text.BusFault_Handler,"ax",%progbits
  90              		.align	1
  91              		.global	BusFault_Handler
  92              		.syntax unified
  93              		.thumb
  94              		.thumb_func
  96              	BusFault_Handler:
  97              	.LFB126:
 120:Core/Src/stm32f3xx_it.c **** }
 121:Core/Src/stm32f3xx_it.c **** 
 122:Core/Src/stm32f3xx_it.c **** /**
 123:Core/Src/stm32f3xx_it.c ****   * @brief This function handles Pre-fetch fault, memory access fault.
 124:Core/Src/stm32f3xx_it.c ****   */
 125:Core/Src/stm32f3xx_it.c **** void BusFault_Handler(void)
 126:Core/Src/stm32f3xx_it.c **** {
  98              		.loc 1 126 1 view -0
  99              		.cfi_startproc
 100              		@ Volatile: function does not return.
 101              		@ args = 0, pretend = 0, frame = 0
 102              		@ frame_needed = 0, uses_anonymous_args = 0
 103              		@ link register save eliminated.
 104              	.L8:
 127:Core/Src/stm32f3xx_it.c ****   /* USER CODE BEGIN BusFault_IRQn 0 */
 128:Core/Src/stm32f3xx_it.c **** 
ARM GAS  C:\msys64\tmp\cc89SrRF.s 			page 5


 129:Core/Src/stm32f3xx_it.c ****   /* USER CODE END BusFault_IRQn 0 */
 130:Core/Src/stm32f3xx_it.c ****   while (1)
 105              		.loc 1 130 3 view .LVU13
 131:Core/Src/stm32f3xx_it.c ****   {
 132:Core/Src/stm32f3xx_it.c ****     /* USER CODE BEGIN W1_BusFault_IRQn 0 */
 133:Core/Src/stm32f3xx_it.c ****     /* USER CODE END W1_BusFault_IRQn 0 */
 134:Core/Src/stm32f3xx_it.c ****   }
 106              		.loc 1 134 3 view .LVU14
 130:Core/Src/stm32f3xx_it.c ****   {
 107              		.loc 1 130 9 view .LVU15
 108 0000 FEE7     		b	.L8
 109              		.cfi_endproc
 110              	.LFE126:
 112              		.section	.text.UsageFault_Handler,"ax",%progbits
 113              		.align	1
 114              		.global	UsageFault_Handler
 115              		.syntax unified
 116              		.thumb
 117              		.thumb_func
 119              	UsageFault_Handler:
 120              	.LFB127:
 135:Core/Src/stm32f3xx_it.c **** }
 136:Core/Src/stm32f3xx_it.c **** 
 137:Core/Src/stm32f3xx_it.c **** /**
 138:Core/Src/stm32f3xx_it.c ****   * @brief This function handles Undefined instruction or illegal state.
 139:Core/Src/stm32f3xx_it.c ****   */
 140:Core/Src/stm32f3xx_it.c **** void UsageFault_Handler(void)
 141:Core/Src/stm32f3xx_it.c **** {
 121              		.loc 1 141 1 view -0
 122              		.cfi_startproc
 123              		@ Volatile: function does not return.
 124              		@ args = 0, pretend = 0, frame = 0
 125              		@ frame_needed = 0, uses_anonymous_args = 0
 126              		@ link register save eliminated.
 127              	.L10:
 142:Core/Src/stm32f3xx_it.c ****   /* USER CODE BEGIN UsageFault_IRQn 0 */
 143:Core/Src/stm32f3xx_it.c **** 
 144:Core/Src/stm32f3xx_it.c ****   /* USER CODE END UsageFault_IRQn 0 */
 145:Core/Src/stm32f3xx_it.c ****   while (1)
 128              		.loc 1 145 3 view .LVU17
 146:Core/Src/stm32f3xx_it.c ****   {
 147:Core/Src/stm32f3xx_it.c ****     /* USER CODE BEGIN W1_UsageFault_IRQn 0 */
 148:Core/Src/stm32f3xx_it.c ****     /* USER CODE END W1_UsageFault_IRQn 0 */
 149:Core/Src/stm32f3xx_it.c ****   }
 129              		.loc 1 149 3 view .LVU18
 145:Core/Src/stm32f3xx_it.c ****   {
 130              		.loc 1 145 9 view .LVU19
 131 0000 FEE7     		b	.L10
 132              		.cfi_endproc
 133              	.LFE127:
 135              		.section	.text.SVC_Handler,"ax",%progbits
 136              		.align	1
 137              		.global	SVC_Handler
 138              		.syntax unified
 139              		.thumb
 140              		.thumb_func
 142              	SVC_Handler:
ARM GAS  C:\msys64\tmp\cc89SrRF.s 			page 6


 143              	.LFB128:
 150:Core/Src/stm32f3xx_it.c **** }
 151:Core/Src/stm32f3xx_it.c **** 
 152:Core/Src/stm32f3xx_it.c **** /**
 153:Core/Src/stm32f3xx_it.c ****   * @brief This function handles System service call via SWI instruction.
 154:Core/Src/stm32f3xx_it.c ****   */
 155:Core/Src/stm32f3xx_it.c **** void SVC_Handler(void)
 156:Core/Src/stm32f3xx_it.c **** {
 144              		.loc 1 156 1 view -0
 145              		.cfi_startproc
 146              		@ args = 0, pretend = 0, frame = 0
 147              		@ frame_needed = 0, uses_anonymous_args = 0
 148              		@ link register save eliminated.
 157:Core/Src/stm32f3xx_it.c ****   /* USER CODE BEGIN SVCall_IRQn 0 */
 158:Core/Src/stm32f3xx_it.c **** 
 159:Core/Src/stm32f3xx_it.c ****   /* USER CODE END SVCall_IRQn 0 */
 160:Core/Src/stm32f3xx_it.c ****   /* USER CODE BEGIN SVCall_IRQn 1 */
 161:Core/Src/stm32f3xx_it.c **** 
 162:Core/Src/stm32f3xx_it.c ****   /* USER CODE END SVCall_IRQn 1 */
 163:Core/Src/stm32f3xx_it.c **** }
 149              		.loc 1 163 1 view .LVU21
 150 0000 7047     		bx	lr
 151              		.cfi_endproc
 152              	.LFE128:
 154              		.section	.text.DebugMon_Handler,"ax",%progbits
 155              		.align	1
 156              		.global	DebugMon_Handler
 157              		.syntax unified
 158              		.thumb
 159              		.thumb_func
 161              	DebugMon_Handler:
 162              	.LFB129:
 164:Core/Src/stm32f3xx_it.c **** 
 165:Core/Src/stm32f3xx_it.c **** /**
 166:Core/Src/stm32f3xx_it.c ****   * @brief This function handles Debug monitor.
 167:Core/Src/stm32f3xx_it.c ****   */
 168:Core/Src/stm32f3xx_it.c **** void DebugMon_Handler(void)
 169:Core/Src/stm32f3xx_it.c **** {
 163              		.loc 1 169 1 view -0
 164              		.cfi_startproc
 165              		@ args = 0, pretend = 0, frame = 0
 166              		@ frame_needed = 0, uses_anonymous_args = 0
 167              		@ link register save eliminated.
 170:Core/Src/stm32f3xx_it.c ****   /* USER CODE BEGIN DebugMonitor_IRQn 0 */
 171:Core/Src/stm32f3xx_it.c **** 
 172:Core/Src/stm32f3xx_it.c ****   /* USER CODE END DebugMonitor_IRQn 0 */
 173:Core/Src/stm32f3xx_it.c ****   /* USER CODE BEGIN DebugMonitor_IRQn 1 */
 174:Core/Src/stm32f3xx_it.c **** 
 175:Core/Src/stm32f3xx_it.c ****   /* USER CODE END DebugMonitor_IRQn 1 */
 176:Core/Src/stm32f3xx_it.c **** }
 168              		.loc 1 176 1 view .LVU23
 169 0000 7047     		bx	lr
 170              		.cfi_endproc
 171              	.LFE129:
 173              		.section	.text.PendSV_Handler,"ax",%progbits
 174              		.align	1
 175              		.global	PendSV_Handler
ARM GAS  C:\msys64\tmp\cc89SrRF.s 			page 7


 176              		.syntax unified
 177              		.thumb
 178              		.thumb_func
 180              	PendSV_Handler:
 181              	.LFB130:
 177:Core/Src/stm32f3xx_it.c **** 
 178:Core/Src/stm32f3xx_it.c **** /**
 179:Core/Src/stm32f3xx_it.c ****   * @brief This function handles Pendable request for system service.
 180:Core/Src/stm32f3xx_it.c ****   */
 181:Core/Src/stm32f3xx_it.c **** void PendSV_Handler(void)
 182:Core/Src/stm32f3xx_it.c **** {
 182              		.loc 1 182 1 view -0
 183              		.cfi_startproc
 184              		@ args = 0, pretend = 0, frame = 0
 185              		@ frame_needed = 0, uses_anonymous_args = 0
 186              		@ link register save eliminated.
 183:Core/Src/stm32f3xx_it.c ****   /* USER CODE BEGIN PendSV_IRQn 0 */
 184:Core/Src/stm32f3xx_it.c **** 
 185:Core/Src/stm32f3xx_it.c ****   /* USER CODE END PendSV_IRQn 0 */
 186:Core/Src/stm32f3xx_it.c ****   /* USER CODE BEGIN PendSV_IRQn 1 */
 187:Core/Src/stm32f3xx_it.c **** 
 188:Core/Src/stm32f3xx_it.c ****   /* USER CODE END PendSV_IRQn 1 */
 189:Core/Src/stm32f3xx_it.c **** }
 187              		.loc 1 189 1 view .LVU25
 188 0000 7047     		bx	lr
 189              		.cfi_endproc
 190              	.LFE130:
 192              		.section	.text.SysTick_Handler,"ax",%progbits
 193              		.align	1
 194              		.global	SysTick_Handler
 195              		.syntax unified
 196              		.thumb
 197              		.thumb_func
 199              	SysTick_Handler:
 200              	.LFB131:
 190:Core/Src/stm32f3xx_it.c **** 
 191:Core/Src/stm32f3xx_it.c **** /**
 192:Core/Src/stm32f3xx_it.c ****   * @brief This function handles System tick timer.
 193:Core/Src/stm32f3xx_it.c ****   */
 194:Core/Src/stm32f3xx_it.c **** void SysTick_Handler(void)
 195:Core/Src/stm32f3xx_it.c **** {
 201              		.loc 1 195 1 view -0
 202              		.cfi_startproc
 203              		@ args = 0, pretend = 0, frame = 0
 204              		@ frame_needed = 0, uses_anonymous_args = 0
 205 0000 08B5     		push	{r3, lr}
 206              	.LCFI0:
 207              		.cfi_def_cfa_offset 8
 208              		.cfi_offset 3, -8
 209              		.cfi_offset 14, -4
 196:Core/Src/stm32f3xx_it.c ****   /* USER CODE BEGIN SysTick_IRQn 0 */
 197:Core/Src/stm32f3xx_it.c **** 
 198:Core/Src/stm32f3xx_it.c ****   /* USER CODE END SysTick_IRQn 0 */
 199:Core/Src/stm32f3xx_it.c ****   HAL_IncTick();
 210              		.loc 1 199 3 view .LVU27
 211 0002 FFF7FEFF 		bl	HAL_IncTick
 212              	.LVL0:
ARM GAS  C:\msys64\tmp\cc89SrRF.s 			page 8


 200:Core/Src/stm32f3xx_it.c ****   /* USER CODE BEGIN SysTick_IRQn 1 */
 201:Core/Src/stm32f3xx_it.c **** 
 202:Core/Src/stm32f3xx_it.c ****   /* USER CODE END SysTick_IRQn 1 */
 203:Core/Src/stm32f3xx_it.c **** }
 213              		.loc 1 203 1 is_stmt 0 view .LVU28
 214 0006 08BD     		pop	{r3, pc}
 215              		.cfi_endproc
 216              	.LFE131:
 218              		.section	.text.DMA1_Channel1_IRQHandler,"ax",%progbits
 219              		.align	1
 220              		.global	DMA1_Channel1_IRQHandler
 221              		.syntax unified
 222              		.thumb
 223              		.thumb_func
 225              	DMA1_Channel1_IRQHandler:
 226              	.LFB132:
 204:Core/Src/stm32f3xx_it.c **** 
 205:Core/Src/stm32f3xx_it.c **** /******************************************************************************/
 206:Core/Src/stm32f3xx_it.c **** /* STM32F3xx Peripheral Interrupt Handlers                                    */
 207:Core/Src/stm32f3xx_it.c **** /* Add here the Interrupt Handlers for the used peripherals.                  */
 208:Core/Src/stm32f3xx_it.c **** /* For the available peripheral interrupt handler names,                      */
 209:Core/Src/stm32f3xx_it.c **** /* please refer to the startup file (startup_stm32f3xx.s).                    */
 210:Core/Src/stm32f3xx_it.c **** /******************************************************************************/
 211:Core/Src/stm32f3xx_it.c **** 
 212:Core/Src/stm32f3xx_it.c **** /**
 213:Core/Src/stm32f3xx_it.c ****   * @brief This function handles DMA1 channel1 global interrupt.
 214:Core/Src/stm32f3xx_it.c ****   */
 215:Core/Src/stm32f3xx_it.c **** void DMA1_Channel1_IRQHandler(void)
 216:Core/Src/stm32f3xx_it.c **** {
 227              		.loc 1 216 1 is_stmt 1 view -0
 228              		.cfi_startproc
 229              		@ args = 0, pretend = 0, frame = 0
 230              		@ frame_needed = 0, uses_anonymous_args = 0
 231 0000 08B5     		push	{r3, lr}
 232              	.LCFI1:
 233              		.cfi_def_cfa_offset 8
 234              		.cfi_offset 3, -8
 235              		.cfi_offset 14, -4
 217:Core/Src/stm32f3xx_it.c ****   /* USER CODE BEGIN DMA1_Channel1_IRQn 0 */
 218:Core/Src/stm32f3xx_it.c **** 
 219:Core/Src/stm32f3xx_it.c ****   /* USER CODE END DMA1_Channel1_IRQn 0 */
 220:Core/Src/stm32f3xx_it.c ****   HAL_DMA_IRQHandler(&hdma_adc1);
 236              		.loc 1 220 3 view .LVU30
 237 0002 0248     		ldr	r0, .L18
 238 0004 FFF7FEFF 		bl	HAL_DMA_IRQHandler
 239              	.LVL1:
 221:Core/Src/stm32f3xx_it.c ****   /* USER CODE BEGIN DMA1_Channel1_IRQn 1 */
 222:Core/Src/stm32f3xx_it.c **** 
 223:Core/Src/stm32f3xx_it.c ****   /* USER CODE END DMA1_Channel1_IRQn 1 */
 224:Core/Src/stm32f3xx_it.c **** }
 240              		.loc 1 224 1 is_stmt 0 view .LVU31
 241 0008 08BD     		pop	{r3, pc}
 242              	.L19:
 243 000a 00BF     		.align	2
 244              	.L18:
 245 000c 00000000 		.word	hdma_adc1
 246              		.cfi_endproc
ARM GAS  C:\msys64\tmp\cc89SrRF.s 			page 9


 247              	.LFE132:
 249              		.section	.text.DMA1_Channel2_IRQHandler,"ax",%progbits
 250              		.align	1
 251              		.global	DMA1_Channel2_IRQHandler
 252              		.syntax unified
 253              		.thumb
 254              		.thumb_func
 256              	DMA1_Channel2_IRQHandler:
 257              	.LFB133:
 225:Core/Src/stm32f3xx_it.c **** 
 226:Core/Src/stm32f3xx_it.c **** /**
 227:Core/Src/stm32f3xx_it.c ****   * @brief This function handles DMA1 channel2 global interrupt.
 228:Core/Src/stm32f3xx_it.c ****   */
 229:Core/Src/stm32f3xx_it.c **** void DMA1_Channel2_IRQHandler(void)
 230:Core/Src/stm32f3xx_it.c **** {
 258              		.loc 1 230 1 is_stmt 1 view -0
 259              		.cfi_startproc
 260              		@ args = 0, pretend = 0, frame = 0
 261              		@ frame_needed = 0, uses_anonymous_args = 0
 262 0000 08B5     		push	{r3, lr}
 263              	.LCFI2:
 264              		.cfi_def_cfa_offset 8
 265              		.cfi_offset 3, -8
 266              		.cfi_offset 14, -4
 231:Core/Src/stm32f3xx_it.c ****   /* USER CODE BEGIN DMA1_Channel2_IRQn 0 */
 232:Core/Src/stm32f3xx_it.c **** 
 233:Core/Src/stm32f3xx_it.c ****   /* USER CODE END DMA1_Channel2_IRQn 0 */
 234:Core/Src/stm32f3xx_it.c ****   HAL_DMA_IRQHandler(&hdma_adc2);
 267              		.loc 1 234 3 view .LVU33
 268 0002 0248     		ldr	r0, .L22
 269 0004 FFF7FEFF 		bl	HAL_DMA_IRQHandler
 270              	.LVL2:
 235:Core/Src/stm32f3xx_it.c ****   /* USER CODE BEGIN DMA1_Channel2_IRQn 1 */
 236:Core/Src/stm32f3xx_it.c **** 
 237:Core/Src/stm32f3xx_it.c ****   /* USER CODE END DMA1_Channel2_IRQn 1 */
 238:Core/Src/stm32f3xx_it.c **** }
 271              		.loc 1 238 1 is_stmt 0 view .LVU34
 272 0008 08BD     		pop	{r3, pc}
 273              	.L23:
 274 000a 00BF     		.align	2
 275              	.L22:
 276 000c 00000000 		.word	hdma_adc2
 277              		.cfi_endproc
 278              	.LFE133:
 280              		.section	.text.CAN_RX0_IRQHandler,"ax",%progbits
 281              		.align	1
 282              		.global	CAN_RX0_IRQHandler
 283              		.syntax unified
 284              		.thumb
 285              		.thumb_func
 287              	CAN_RX0_IRQHandler:
 288              	.LFB134:
 239:Core/Src/stm32f3xx_it.c **** 
 240:Core/Src/stm32f3xx_it.c **** /**
 241:Core/Src/stm32f3xx_it.c ****   * @brief This function handles CAN RX0 interrupt.
 242:Core/Src/stm32f3xx_it.c ****   */
 243:Core/Src/stm32f3xx_it.c **** void CAN_RX0_IRQHandler(void)
ARM GAS  C:\msys64\tmp\cc89SrRF.s 			page 10


 244:Core/Src/stm32f3xx_it.c **** {
 289              		.loc 1 244 1 is_stmt 1 view -0
 290              		.cfi_startproc
 291              		@ args = 0, pretend = 0, frame = 0
 292              		@ frame_needed = 0, uses_anonymous_args = 0
 293 0000 08B5     		push	{r3, lr}
 294              	.LCFI3:
 295              		.cfi_def_cfa_offset 8
 296              		.cfi_offset 3, -8
 297              		.cfi_offset 14, -4
 245:Core/Src/stm32f3xx_it.c ****   /* USER CODE BEGIN CAN_RX0_IRQn 0 */
 246:Core/Src/stm32f3xx_it.c **** 
 247:Core/Src/stm32f3xx_it.c ****   /* USER CODE END CAN_RX0_IRQn 0 */
 248:Core/Src/stm32f3xx_it.c ****   HAL_CAN_IRQHandler(&hcan);
 298              		.loc 1 248 3 view .LVU36
 299 0002 0248     		ldr	r0, .L26
 300 0004 FFF7FEFF 		bl	HAL_CAN_IRQHandler
 301              	.LVL3:
 249:Core/Src/stm32f3xx_it.c ****   /* USER CODE BEGIN CAN_RX0_IRQn 1 */
 250:Core/Src/stm32f3xx_it.c **** 
 251:Core/Src/stm32f3xx_it.c ****   /* USER CODE END CAN_RX0_IRQn 1 */
 252:Core/Src/stm32f3xx_it.c **** }
 302              		.loc 1 252 1 is_stmt 0 view .LVU37
 303 0008 08BD     		pop	{r3, pc}
 304              	.L27:
 305 000a 00BF     		.align	2
 306              	.L26:
 307 000c 00000000 		.word	hcan
 308              		.cfi_endproc
 309              	.LFE134:
 311              		.section	.text.Check_Protection_Fast,"ax",%progbits
 312              		.align	1
 313              		.global	Check_Protection_Fast
 314              		.syntax unified
 315              		.thumb
 316              		.thumb_func
 318              	Check_Protection_Fast:
 319              	.LFB136:
 253:Core/Src/stm32f3xx_it.c **** 
 254:Core/Src/stm32f3xx_it.c **** /* USER CODE BEGIN 1 */
 255:Core/Src/stm32f3xx_it.c **** /**
 256:Core/Src/stm32f3xx_it.c ****   * @brief  HRTIM Timer A 中断服务函数 (控制核心)
 257:Core/Src/stm32f3xx_it.c ****   */
 258:Core/Src/stm32f3xx_it.c **** void HRTIM1_TIMA_IRQHandler(void)
 259:Core/Src/stm32f3xx_it.c **** {
 260:Core/Src/stm32f3xx_it.c ****     __HAL_HRTIM_TIMER_CLEAR_IT(&hhrtim1, HRTIM_TIMERINDEX_TIMER_A, HRTIM_TIM_IT_REP);
 261:Core/Src/stm32f3xx_it.c **** 
 262:Core/Src/stm32f3xx_it.c ****     Sensor_Update();     
 263:Core/Src/stm32f3xx_it.c ****       static uint16_t boot_mask_cnt = 0;
 264:Core/Src/stm32f3xx_it.c ****     if (boot_mask_cnt < 500) { // 给予 500ms 的启动屏蔽期
 265:Core/Src/stm32f3xx_it.c ****              boot_mask_cnt++;
 266:Core/Src/stm32f3xx_it.c ****         }
 267:Core/Src/stm32f3xx_it.c ****         else{
 268:Core/Src/stm32f3xx_it.c ****    Check_Protection_Fast();
 269:Core/Src/stm32f3xx_it.c ****         }
 270:Core/Src/stm32f3xx_it.c ****  /********************************************************************************************/
 271:Core/Src/stm32f3xx_it.c ****     static uint16_t can_div = 0;
ARM GAS  C:\msys64\tmp\cc89SrRF.s 			page 11


 272:Core/Src/stm32f3xx_it.c **** can_div++;
 273:Core/Src/stm32f3xx_it.c **** 
 274:Core/Src/stm32f3xx_it.c **** if (can_div >= 3600) // 1ms 发送一次
 275:Core/Src/stm32f3xx_it.c **** {
 276:Core/Src/stm32f3xx_it.c ****     can_div = 0;
 277:Core/Src/stm32f3xx_it.c **** 
 278:Core/Src/stm32f3xx_it.c ****         if (HAL_CAN_GetTxMailboxesFreeLevel(&hcan) > 0) 
 279:Core/Src/stm32f3xx_it.c ****     {
 280:Core/Src/stm32f3xx_it.c ****         // 2. 准备数据 (把浮点转成整数，根据你的协议)
 281:Core/Src/stm32f3xx_it.c ****         int16_t send_ia = (int16_t)(g_ctrl.ia * 100.0f);
 282:Core/Src/stm32f3xx_it.c ****         int16_t send_vb = (int16_t)(g_ctrl.vb * 100.0f);
 283:Core/Src/stm32f3xx_it.c ****         
 284:Core/Src/stm32f3xx_it.c ****         TxData[0] = (uint8_t)(send_ia >> 8);
 285:Core/Src/stm32f3xx_it.c ****         TxData[1] = (uint8_t)(send_ia & 0xFF);
 286:Core/Src/stm32f3xx_it.c ****         TxData[2] = (uint8_t)(send_vb >> 8);
 287:Core/Src/stm32f3xx_it.c ****         TxData[3] = (uint8_t)(send_vb & 0xFF);
 288:Core/Src/stm32f3xx_it.c ****         HAL_CAN_AddTxMessage(&hcan, &TxHeader, TxData, &TxMailbox);
 289:Core/Src/stm32f3xx_it.c **** 
 290:Core/Src/stm32f3xx_it.c ****         HAL_GPIO_TogglePin(GPIOB, GPIO_PIN_15); 
 291:Core/Src/stm32f3xx_it.c ****       a++;
 292:Core/Src/stm32f3xx_it.c ****     }
 293:Core/Src/stm32f3xx_it.c **** }
 294:Core/Src/stm32f3xx_it.c **** /**************************************************************************************************
 295:Core/Src/stm32f3xx_it.c ****       static uint8_t  protect_div = 0;
 296:Core/Src/stm32f3xx_it.c ****     protect_div++; 
 297:Core/Src/stm32f3xx_it.c ****     if (protect_div >= 36) //1ms 运行一次慢速保护
 298:Core/Src/stm32f3xx_it.c **** {
 299:Core/Src/stm32f3xx_it.c ****     protect_div = 0;
 300:Core/Src/stm32f3xx_it.c **** 
 301:Core/Src/stm32f3xx_it.c ****    Check_Protection_Slow();
 302:Core/Src/stm32f3xx_it.c **** 
 303:Core/Src/stm32f3xx_it.c ****   }   
 304:Core/Src/stm32f3xx_it.c **** if (g_ctrl.enable == 0) {
 305:Core/Src/stm32f3xx_it.c ****         return; 
 306:Core/Src/stm32f3xx_it.c ****     }
 307:Core/Src/stm32f3xx_it.c **** 
 308:Core/Src/stm32f3xx_it.c ****   Run_Control_Loop();
 309:Core/Src/stm32f3xx_it.c ****     if (g_ctrl.work_mode == MODE_OVER||g_ctrl.enable == 4)
 310:Core/Src/stm32f3xx_it.c **** {
 311:Core/Src/stm32f3xx_it.c ****  HAL_HRTIM_WaveformOutputStop(&hhrtim1, HRTIM_OUTPUT_TA1 | HRTIM_OUTPUT_TA2 | HRTIM_OUTPUT_TB1 | HR
 312:Core/Src/stm32f3xx_it.c ****  return;
 313:Core/Src/stm32f3xx_it.c **** }
 314:Core/Src/stm32f3xx_it.c **** 
 315:Core/Src/stm32f3xx_it.c **** uint16_t period = 16000; // 288kHz 下的周期数
 316:Core/Src/stm32f3xx_it.c ****     uint16_t cmp_buck = (uint16_t)(g_ctrl.final_duty_buck * period);
 317:Core/Src/stm32f3xx_it.c **** if (cmp_buck < 800) cmp_buck = 800; 
 318:Core/Src/stm32f3xx_it.c **** if (g_ctrl.final_duty_buck >= 1.0f) {
 319:Core/Src/stm32f3xx_it.c ****     cmp_buck = period + 1; 
 320:Core/Src/stm32f3xx_it.c **** }
 321:Core/Src/stm32f3xx_it.c **** uint16_t cmp_boost;
 322:Core/Src/stm32f3xx_it.c **** if (g_ctrl.final_duty_boost <= 0.0f) {
 323:Core/Src/stm32f3xx_it.c ****     cmp_boost = period + 1; // 强制关断下管，实现直通
 324:Core/Src/stm32f3xx_it.c **** } else {
 325:Core/Src/stm32f3xx_it.c ****     cmp_boost = (uint16_t)((1.0f - g_ctrl.final_duty_boost) * period);
 326:Core/Src/stm32f3xx_it.c ****     // 限制最大占空比 90% ( 16000 * 0.1 = 1600)
 327:Core/Src/stm32f3xx_it.c ****     if (cmp_boost < 1600) cmp_boost = 1600;    
 328:Core/Src/stm32f3xx_it.c **** }
ARM GAS  C:\msys64\tmp\cc89SrRF.s 			page 12


 329:Core/Src/stm32f3xx_it.c ****     uint16_t adc_trig_point = cmp_buck / 2;
 330:Core/Src/stm32f3xx_it.c ****     // 防止触发点过小导致 ADC 来不及 (虽然 F334 很快，还是留点余量)
 331:Core/Src/stm32f3xx_it.c ****     if (adc_trig_point < 400) adc_trig_point = 400; 
 332:Core/Src/stm32f3xx_it.c **** 
 333:Core/Src/stm32f3xx_it.c ****     // === 寄存器写入 (使用寄存器指针操作以求最快速度) ===
 334:Core/Src/stm32f3xx_it.c ****     
 335:Core/Src/stm32f3xx_it.c ****     // 1. 更新 ADC 触发位置 (CMP2)
 336:Core/Src/stm32f3xx_it.c ****     hhrtim1.Instance->sTimerxRegs[HRTIM_TIMERINDEX_TIMER_A].CMP2xR = adc_trig_point;
 337:Core/Src/stm32f3xx_it.c **** 
 338:Core/Src/stm32f3xx_it.c ****     // 2. 更新 Buck 占空比 (Timer A CMP1)
 339:Core/Src/stm32f3xx_it.c ****     hhrtim1.Instance->sTimerxRegs[HRTIM_TIMERINDEX_TIMER_A].CMP1xR = cmp_buck;
 340:Core/Src/stm32f3xx_it.c ****     
 341:Core/Src/stm32f3xx_it.c ****     // 3. 更新 Boost 占空比 (Timer B CMP1)
 342:Core/Src/stm32f3xx_it.c ****     hhrtim1.Instance->sTimerxRegs[HRTIM_TIMERINDEX_TIMER_B].CMP1xR = cmp_boost;
 343:Core/Src/stm32f3xx_it.c **** }
 344:Core/Src/stm32f3xx_it.c **** void Check_Protection_Fast(void) {
 320              		.loc 1 344 34 is_stmt 1 view -0
 321              		.cfi_startproc
 322              		@ args = 0, pretend = 0, frame = 0
 323              		@ frame_needed = 0, uses_anonymous_args = 0
 324 0000 08B5     		push	{r3, lr}
 325              	.LCFI4:
 326              		.cfi_def_cfa_offset 8
 327              		.cfi_offset 3, -8
 328              		.cfi_offset 14, -4
 345:Core/Src/stm32f3xx_it.c ****     static uint8_t short_circuit_cnt = 0;
 329              		.loc 1 345 5 view .LVU39
 346:Core/Src/stm32f3xx_it.c ****     
 347:Core/Src/stm32f3xx_it.c ****     // 阈值设定 (根据你的硬件承受能力微调)
 348:Core/Src/stm32f3xx_it.c ****     const float SC_CURRENT_THRES = 20.0f; // 纯电流上限
 330              		.loc 1 348 5 view .LVU40
 331              	.LVL4:
 349:Core/Src/stm32f3xx_it.c **** 
 350:Core/Src/stm32f3xx_it.c ****     float abs_ia = fabsf(g_ctrl.ia);
 332              		.loc 1 350 5 view .LVU41
 333              		.loc 1 350 32 is_stmt 0 view .LVU42
 334 0002 134B     		ldr	r3, .L35
 335 0004 D3ED037A 		vldr.32	s15, [r3, #12]
 336              		.loc 1 350 11 view .LVU43
 337 0008 F0EEE77A 		vabs.f32	s15, s15
 338              	.LVL5:
 351:Core/Src/stm32f3xx_it.c ****     if (abs_ia > SC_CURRENT_THRES) {
 339              		.loc 1 351 5 is_stmt 1 view .LVU44
 340              		.loc 1 351 8 is_stmt 0 view .LVU45
 341 000c B3EE047A 		vmov.f32	s14, #2.0e+1
 342 0010 F4EEC77A 		vcmpe.f32	s15, s14
 343 0014 F1EE10FA 		vmrs	APSR_nzcv, FPSCR
 344 0018 15DD     		ble	.L33
 352:Core/Src/stm32f3xx_it.c **** 
 353:Core/Src/stm32f3xx_it.c ****         short_circuit_cnt++;
 345              		.loc 1 353 9 is_stmt 1 view .LVU46
 346              		.loc 1 353 26 is_stmt 0 view .LVU47
 347 001a 0E4A     		ldr	r2, .L35+4
 348 001c 1378     		ldrb	r3, [r2]	@ zero_extendqisi2
 349 001e 0133     		adds	r3, r3, #1
 350 0020 DBB2     		uxtb	r3, r3
 351 0022 1370     		strb	r3, [r2]
ARM GAS  C:\msys64\tmp\cc89SrRF.s 			page 13


 354:Core/Src/stm32f3xx_it.c ****         if (short_circuit_cnt >= 20) { // 持续 ~140us (36kHz)
 352              		.loc 1 354 9 is_stmt 1 view .LVU48
 353              		.loc 1 354 12 is_stmt 0 view .LVU49
 354 0024 132B     		cmp	r3, #19
 355 0026 11D9     		bls	.L28
 355:Core/Src/stm32f3xx_it.c ****             g_ctrl.error_code = ERR_SHORT_CIRCUIT;
 356              		.loc 1 355 13 is_stmt 1 view .LVU50
 357              		.loc 1 355 31 is_stmt 0 view .LVU51
 358 0028 094B     		ldr	r3, .L35
 359 002a 0322     		movs	r2, #3
 360 002c 83F84020 		strb	r2, [r3, #64]
 356:Core/Src/stm32f3xx_it.c ****             g_ctrl.is_locked = 1;
 361              		.loc 1 356 13 is_stmt 1 view .LVU52
 362              		.loc 1 356 30 is_stmt 0 view .LVU53
 363 0030 0122     		movs	r2, #1
 364 0032 83F84120 		strb	r2, [r3, #65]
 357:Core/Src/stm32f3xx_it.c ****             g_ctrl.enable = 0;
 365              		.loc 1 357 13 is_stmt 1 view .LVU54
 366              		.loc 1 357 27 is_stmt 0 view .LVU55
 367 0036 0022     		movs	r2, #0
 368 0038 83F83420 		strb	r2, [r3, #52]
 358:Core/Src/stm32f3xx_it.c ****             HAL_HRTIM_WaveformOutputStop(&hhrtim1, HRTIM_OUTPUT_TA1 | HRTIM_OUTPUT_TA2 | HRTIM_OUTP
 369              		.loc 1 358 13 is_stmt 1 view .LVU56
 370 003c 0F21     		movs	r1, #15
 371 003e 0648     		ldr	r0, .L35+8
 372 0040 FFF7FEFF 		bl	HAL_HRTIM_WaveformOutputStop
 373              	.LVL6:
 374              		.loc 1 358 13 is_stmt 0 view .LVU57
 375 0044 02E0     		b	.L28
 376              	.LVL7:
 377              	.L33:
 359:Core/Src/stm32f3xx_it.c ****         }
 360:Core/Src/stm32f3xx_it.c ****     } else {
 361:Core/Src/stm32f3xx_it.c ****         short_circuit_cnt = 0; // 计数器复位
 378              		.loc 1 361 9 is_stmt 1 view .LVU58
 379              		.loc 1 361 27 is_stmt 0 view .LVU59
 380 0046 034B     		ldr	r3, .L35+4
 381 0048 0022     		movs	r2, #0
 382 004a 1A70     		strb	r2, [r3]
 383              	.LVL8:
 384              	.L28:
 362:Core/Src/stm32f3xx_it.c ****     }
 363:Core/Src/stm32f3xx_it.c **** }
 385              		.loc 1 363 1 view .LVU60
 386 004c 08BD     		pop	{r3, pc}
 387              	.L36:
 388 004e 00BF     		.align	2
 389              	.L35:
 390 0050 00000000 		.word	g_ctrl
 391 0054 00000000 		.word	short_circuit_cnt.1
 392 0058 00000000 		.word	hhrtim1
 393              		.cfi_endproc
 394              	.LFE136:
 396              		.section	.text.Check_Protection_Slow,"ax",%progbits
 397              		.align	1
 398              		.global	Check_Protection_Slow
 399              		.syntax unified
ARM GAS  C:\msys64\tmp\cc89SrRF.s 			page 14


 400              		.thumb
 401              		.thumb_func
 403              	Check_Protection_Slow:
 404              	.LFB137:
 364:Core/Src/stm32f3xx_it.c **** // 1kHz 调用一次
 365:Core/Src/stm32f3xx_it.c **** void Check_Protection_Slow(void) {
 405              		.loc 1 365 34 is_stmt 1 view -0
 406              		.cfi_startproc
 407              		@ args = 0, pretend = 0, frame = 0
 408              		@ frame_needed = 0, uses_anonymous_args = 0
 366:Core/Src/stm32f3xx_it.c ****     if (g_ctrl.is_locked) return; // 已锁定就不折腾了
 409              		.loc 1 366 5 view .LVU62
 410              		.loc 1 366 15 is_stmt 0 view .LVU63
 411 0000 494B     		ldr	r3, .L63
 412 0002 93F84130 		ldrb	r3, [r3, #65]	@ zero_extendqisi2
 413              		.loc 1 366 8 view .LVU64
 414 0006 002B     		cmp	r3, #0
 415 0008 40F08C80 		bne	.L56
 365:Core/Src/stm32f3xx_it.c ****     if (g_ctrl.is_locked) return; // 已锁定就不折腾了
 416              		.loc 1 365 34 view .LVU65
 417 000c 10B5     		push	{r4, lr}
 418              	.LCFI5:
 419              		.cfi_def_cfa_offset 8
 420              		.cfi_offset 4, -8
 421              		.cfi_offset 14, -4
 367:Core/Src/stm32f3xx_it.c **** 
 368:Core/Src/stm32f3xx_it.c ****     // === 4.6.1 低压保护 [cite: 18] ===
 369:Core/Src/stm32f3xx_it.c ****     // 防止 MOS 驱动欠压 (假设 12V 供电来自 V_in 或 V_cap)
 370:Core/Src/stm32f3xx_it.c ****     if (g_ctrl.va < 12.0f && g_ctrl.vb < 12.0f) {
 422              		.loc 1 370 5 is_stmt 1 view .LVU66
 423              		.loc 1 370 15 is_stmt 0 view .LVU67
 424 000e 464B     		ldr	r3, .L63
 425 0010 93ED007A 		vldr.32	s14, [r3]
 426              		.loc 1 370 8 view .LVU68
 427 0014 F2EE087A 		vmov.f32	s15, #1.2e+1
 428 0018 B4EEE77A 		vcmpe.f32	s14, s15
 429 001c F1EE10FA 		vmrs	APSR_nzcv, FPSCR
 430 0020 06D5     		bpl	.L39
 431              		.loc 1 370 36 discriminator 1 view .LVU69
 432 0022 93ED017A 		vldr.32	s14, [r3, #4]
 433              		.loc 1 370 27 discriminator 1 view .LVU70
 434 0026 B4EEE77A 		vcmpe.f32	s14, s15
 435 002a F1EE10FA 		vmrs	APSR_nzcv, FPSCR
 436 002e 48D4     		bmi	.L59
 437              	.L39:
 371:Core/Src/stm32f3xx_it.c ****         g_ctrl.error_code = ERR_UNDER_VOLTAGE;
 372:Core/Src/stm32f3xx_it.c ****         HAL_HRTIM_WaveformOutputStop(&hhrtim1, HRTIM_OUTPUT_TA1 | HRTIM_OUTPUT_TA2 | HRTIM_OUTPUT_T
 373:Core/Src/stm32f3xx_it.c ****         g_ctrl.enable = 0; 
 374:Core/Src/stm32f3xx_it.c ****     }
 375:Core/Src/stm32f3xx_it.c ****     // 裁判系统断电逻辑 (A侧 < 15V)
 376:Core/Src/stm32f3xx_it.c ****     if (g_ctrl.va < 15.0f) {
 438              		.loc 1 376 5 is_stmt 1 view .LVU71
 439              		.loc 1 376 15 is_stmt 0 view .LVU72
 440 0030 3D4B     		ldr	r3, .L63
 441 0032 93ED007A 		vldr.32	s14, [r3]
 442              		.loc 1 376 8 view .LVU73
 443 0036 F2EE0E7A 		vmov.f32	s15, #1.5e+1
ARM GAS  C:\msys64\tmp\cc89SrRF.s 			page 15


 444 003a B4EEE77A 		vcmpe.f32	s14, s15
 445 003e F1EE10FA 		vmrs	APSR_nzcv, FPSCR
 446 0042 4AD4     		bmi	.L60
 447              	.L42:
 377:Core/Src/stm32f3xx_it.c ****         g_ctrl.error_code = ERR_UNDER_VOLTAGE; 
 378:Core/Src/stm32f3xx_it.c ****         g_ctrl.enable = 0;
 379:Core/Src/stm32f3xx_it.c ****         HAL_HRTIM_WaveformOutputStop(&hhrtim1, HRTIM_OUTPUT_TA1 | HRTIM_OUTPUT_TA2 | HRTIM_OUTPUT_T
 380:Core/Src/stm32f3xx_it.c ****     }
 381:Core/Src/stm32f3xx_it.c **** 
 382:Core/Src/stm32f3xx_it.c ****     // === 4.6.6 过温保护 [cite: 37] ===
 383:Core/Src/stm32f3xx_it.c ****     if (g_ctrl.tem > 80.0f) {
 448              		.loc 1 383 5 is_stmt 1 view .LVU74
 449              		.loc 1 383 15 is_stmt 0 view .LVU75
 450 0044 384B     		ldr	r3, .L63
 451 0046 93ED057A 		vldr.32	s14, [r3, #20]
 452              		.loc 1 383 8 view .LVU76
 453 004a DFED387A 		vldr.32	s15, .L63+4
 454 004e B4EEE77A 		vcmpe.f32	s14, s15
 455 0052 F1EE10FA 		vmrs	APSR_nzcv, FPSCR
 456 0056 4BDC     		bgt	.L61
 457              	.L44:
 384:Core/Src/stm32f3xx_it.c ****         g_ctrl.error_code = ERR_OVER_TEMP;
 385:Core/Src/stm32f3xx_it.c ****         g_ctrl.enable = 0;
 386:Core/Src/stm32f3xx_it.c ****         HAL_HRTIM_WaveformOutputStop(&hhrtim1, HRTIM_OUTPUT_TA1 | HRTIM_OUTPUT_TA2 | HRTIM_OUTPUT_T
 387:Core/Src/stm32f3xx_it.c ****     }
 388:Core/Src/stm32f3xx_it.c **** 
 389:Core/Src/stm32f3xx_it.c ****     // === 4.6.4 变换器逻辑校验 (防“假干活”) [cite: 31] ===
 390:Core/Src/stm32f3xx_it.c ****     // 只有在占空比足够大时检测，防止低占空比噪声误判
 391:Core/Src/stm32f3xx_it.c ****     if (g_ctrl.enable != 0 && g_ctrl.final_duty_buck > 0.2f) {           
 458              		.loc 1 391 5 is_stmt 1 view .LVU77
 459              		.loc 1 391 15 is_stmt 0 view .LVU78
 460 0058 334B     		ldr	r3, .L63
 461 005a 93F83430 		ldrb	r3, [r3, #52]	@ zero_extendqisi2
 462 005e 5BB2     		sxtb	r3, r3
 463              		.loc 1 391 8 view .LVU79
 464 0060 73B3     		cbz	r3, .L37
 465              		.loc 1 391 37 discriminator 1 view .LVU80
 466 0062 314B     		ldr	r3, .L63
 467 0064 93ED0E7A 		vldr.32	s14, [r3, #56]
 468              		.loc 1 391 28 discriminator 1 view .LVU81
 469 0068 DFED317A 		vldr.32	s15, .L63+8
 470 006c B4EEE77A 		vcmpe.f32	s14, s15
 471 0070 F1EE10FA 		vmrs	APSR_nzcv, FPSCR
 472 0074 24DD     		ble	.L37
 473              	.LBB2:
 392:Core/Src/stm32f3xx_it.c ****         static uint8_t logic_err_cnt = 0;
 474              		.loc 1 392 9 is_stmt 1 view .LVU82
 393:Core/Src/stm32f3xx_it.c ****         float theoretical_ratio = g_ctrl.vb / g_ctrl.va;
 475              		.loc 1 393 9 view .LVU83
 476              		.loc 1 393 41 is_stmt 0 view .LVU84
 477 0076 93ED017A 		vldr.32	s14, [r3, #4]
 478              		.loc 1 393 53 view .LVU85
 479 007a D3ED007A 		vldr.32	s15, [r3]
 480              		.loc 1 393 15 view .LVU86
 481 007e C7EE276A 		vdiv.f32	s13, s14, s15
 482              	.LVL9:
 394:Core/Src/stm32f3xx_it.c ****         // 你的 buck 占空比 应该接近 Voltage Ratio
ARM GAS  C:\msys64\tmp\cc89SrRF.s 			page 16


 395:Core/Src/stm32f3xx_it.c ****         // 如果 占空比很大(0.8)，但电压比很小(0.2)，说明驱动甚至 MOS 挂了
 396:Core/Src/stm32f3xx_it.c ****         if (fabsf(g_ctrl.final_duty_buck/(1-g_ctrl.final_duty_boost) - theoretical_ratio) > 0.4f) {
 483              		.loc 1 396 9 is_stmt 1 view .LVU87
 484              		.loc 1 396 25 is_stmt 0 view .LVU88
 485 0082 93ED0E6A 		vldr.32	s12, [r3, #56]
 486              		.loc 1 396 51 view .LVU89
 487 0086 D3ED0F7A 		vldr.32	s15, [r3, #60]
 488              		.loc 1 396 44 view .LVU90
 489 008a B7EE007A 		vmov.f32	s14, #1.0e+0
 490 008e 37EE677A 		vsub.f32	s14, s14, s15
 491              		.loc 1 396 41 view .LVU91
 492 0092 C6EE077A 		vdiv.f32	s15, s12, s14
 493              		.loc 1 396 70 view .LVU92
 494 0096 77EEE67A 		vsub.f32	s15, s15, s13
 495              		.loc 1 396 13 view .LVU93
 496 009a F0EEE77A 		vabs.f32	s15, s15
 497              		.loc 1 396 12 view .LVU94
 498 009e 9FED257A 		vldr.32	s14, .L63+12
 499 00a2 F4EEC77A 		vcmpe.f32	s15, s14
 500 00a6 F1EE10FA 		vmrs	APSR_nzcv, FPSCR
 501 00aa 09DD     		ble	.L37
 397:Core/Src/stm32f3xx_it.c **** 
 398:Core/Src/stm32f3xx_it.c ****              if(++logic_err_cnt > 100) { // 100ms
 502              		.loc 1 398 14 is_stmt 1 view .LVU95
 503              		.loc 1 398 17 is_stmt 0 view .LVU96
 504 00ac 224A     		ldr	r2, .L63+16
 505 00ae 1378     		ldrb	r3, [r2]	@ zero_extendqisi2
 506 00b0 0133     		adds	r3, r3, #1
 507 00b2 DBB2     		uxtb	r3, r3
 508              		.loc 1 398 16 view .LVU97
 509 00b4 1370     		strb	r3, [r2]
 510 00b6 642B     		cmp	r3, #100
 511 00b8 25D8     		bhi	.L62
 399:Core/Src/stm32f3xx_it.c ****                  g_ctrl.error_code = ERR_CONVERTER_FAULT;
 400:Core/Src/stm32f3xx_it.c ****                  g_ctrl.is_locked = 1;
 401:Core/Src/stm32f3xx_it.c ****                  g_ctrl.enable = 0;
 402:Core/Src/stm32f3xx_it.c ****                   HAL_HRTIM_WaveformOutputStop(&hhrtim1, HRTIM_OUTPUT_TA1 | HRTIM_OUTPUT_TA2 | HRTI
 403:Core/Src/stm32f3xx_it.c ****              }
 404:Core/Src/stm32f3xx_it.c ****              else{logic_err_cnt = 0;} // 重置计数器
 512              		.loc 1 404 19 is_stmt 1 view .LVU98
 513              		.loc 1 404 33 is_stmt 0 view .LVU99
 514 00ba 1F4B     		ldr	r3, .L63+16
 515 00bc 0022     		movs	r2, #0
 516 00be 1A70     		strb	r2, [r3]
 517              	.LVL10:
 518              	.L37:
 519              		.loc 1 404 33 view .LVU100
 520              	.LBE2:
 405:Core/Src/stm32f3xx_it.c ****         }
 406:Core/Src/stm32f3xx_it.c ****     }
 407:Core/Src/stm32f3xx_it.c **** }
 521              		.loc 1 407 1 view .LVU101
 522 00c0 10BD     		pop	{r4, pc}
 523              	.L59:
 371:Core/Src/stm32f3xx_it.c ****         HAL_HRTIM_WaveformOutputStop(&hhrtim1, HRTIM_OUTPUT_TA1 | HRTIM_OUTPUT_TA2 | HRTIM_OUTPUT_T
 524              		.loc 1 371 9 is_stmt 1 view .LVU102
 371:Core/Src/stm32f3xx_it.c ****         HAL_HRTIM_WaveformOutputStop(&hhrtim1, HRTIM_OUTPUT_TA1 | HRTIM_OUTPUT_TA2 | HRTIM_OUTPUT_T
ARM GAS  C:\msys64\tmp\cc89SrRF.s 			page 17


 525              		.loc 1 371 27 is_stmt 0 view .LVU103
 526 00c2 1C46     		mov	r4, r3
 527 00c4 0123     		movs	r3, #1
 528 00c6 84F84030 		strb	r3, [r4, #64]
 372:Core/Src/stm32f3xx_it.c ****         g_ctrl.enable = 0; 
 529              		.loc 1 372 9 is_stmt 1 view .LVU104
 530 00ca 0F21     		movs	r1, #15
 531 00cc 1B48     		ldr	r0, .L63+20
 532 00ce FFF7FEFF 		bl	HAL_HRTIM_WaveformOutputStop
 533              	.LVL11:
 373:Core/Src/stm32f3xx_it.c ****     }
 534              		.loc 1 373 9 view .LVU105
 373:Core/Src/stm32f3xx_it.c ****     }
 535              		.loc 1 373 23 is_stmt 0 view .LVU106
 536 00d2 0023     		movs	r3, #0
 537 00d4 84F83430 		strb	r3, [r4, #52]
 538 00d8 AAE7     		b	.L39
 539              	.L60:
 377:Core/Src/stm32f3xx_it.c ****         g_ctrl.enable = 0;
 540              		.loc 1 377 9 is_stmt 1 view .LVU107
 377:Core/Src/stm32f3xx_it.c ****         g_ctrl.enable = 0;
 541              		.loc 1 377 27 is_stmt 0 view .LVU108
 542 00da 0122     		movs	r2, #1
 543 00dc 83F84020 		strb	r2, [r3, #64]
 378:Core/Src/stm32f3xx_it.c ****         HAL_HRTIM_WaveformOutputStop(&hhrtim1, HRTIM_OUTPUT_TA1 | HRTIM_OUTPUT_TA2 | HRTIM_OUTPUT_T
 544              		.loc 1 378 9 is_stmt 1 view .LVU109
 378:Core/Src/stm32f3xx_it.c ****         HAL_HRTIM_WaveformOutputStop(&hhrtim1, HRTIM_OUTPUT_TA1 | HRTIM_OUTPUT_TA2 | HRTIM_OUTPUT_T
 545              		.loc 1 378 23 is_stmt 0 view .LVU110
 546 00e0 0022     		movs	r2, #0
 547 00e2 83F83420 		strb	r2, [r3, #52]
 379:Core/Src/stm32f3xx_it.c ****     }
 548              		.loc 1 379 9 is_stmt 1 view .LVU111
 549 00e6 0F21     		movs	r1, #15
 550 00e8 1448     		ldr	r0, .L63+20
 551 00ea FFF7FEFF 		bl	HAL_HRTIM_WaveformOutputStop
 552              	.LVL12:
 553 00ee A9E7     		b	.L42
 554              	.L61:
 384:Core/Src/stm32f3xx_it.c ****         g_ctrl.enable = 0;
 555              		.loc 1 384 9 view .LVU112
 384:Core/Src/stm32f3xx_it.c ****         g_ctrl.enable = 0;
 556              		.loc 1 384 27 is_stmt 0 view .LVU113
 557 00f0 0622     		movs	r2, #6
 558 00f2 83F84020 		strb	r2, [r3, #64]
 385:Core/Src/stm32f3xx_it.c ****         HAL_HRTIM_WaveformOutputStop(&hhrtim1, HRTIM_OUTPUT_TA1 | HRTIM_OUTPUT_TA2 | HRTIM_OUTPUT_T
 559              		.loc 1 385 9 is_stmt 1 view .LVU114
 385:Core/Src/stm32f3xx_it.c ****         HAL_HRTIM_WaveformOutputStop(&hhrtim1, HRTIM_OUTPUT_TA1 | HRTIM_OUTPUT_TA2 | HRTIM_OUTPUT_T
 560              		.loc 1 385 23 is_stmt 0 view .LVU115
 561 00f6 0022     		movs	r2, #0
 562 00f8 83F83420 		strb	r2, [r3, #52]
 386:Core/Src/stm32f3xx_it.c ****     }
 563              		.loc 1 386 9 is_stmt 1 view .LVU116
 564 00fc 0F21     		movs	r1, #15
 565 00fe 0F48     		ldr	r0, .L63+20
 566 0100 FFF7FEFF 		bl	HAL_HRTIM_WaveformOutputStop
 567              	.LVL13:
 568 0104 A8E7     		b	.L44
ARM GAS  C:\msys64\tmp\cc89SrRF.s 			page 18


 569              	.LVL14:
 570              	.L62:
 571              	.LBB3:
 399:Core/Src/stm32f3xx_it.c ****                  g_ctrl.is_locked = 1;
 572              		.loc 1 399 18 view .LVU117
 399:Core/Src/stm32f3xx_it.c ****                  g_ctrl.is_locked = 1;
 573              		.loc 1 399 36 is_stmt 0 view .LVU118
 574 0106 084B     		ldr	r3, .L63
 575 0108 0422     		movs	r2, #4
 576 010a 83F84020 		strb	r2, [r3, #64]
 400:Core/Src/stm32f3xx_it.c ****                  g_ctrl.enable = 0;
 577              		.loc 1 400 18 is_stmt 1 view .LVU119
 400:Core/Src/stm32f3xx_it.c ****                  g_ctrl.enable = 0;
 578              		.loc 1 400 35 is_stmt 0 view .LVU120
 579 010e 0122     		movs	r2, #1
 580 0110 83F84120 		strb	r2, [r3, #65]
 401:Core/Src/stm32f3xx_it.c ****                   HAL_HRTIM_WaveformOutputStop(&hhrtim1, HRTIM_OUTPUT_TA1 | HRTIM_OUTPUT_TA2 | HRTI
 581              		.loc 1 401 18 is_stmt 1 view .LVU121
 401:Core/Src/stm32f3xx_it.c ****                   HAL_HRTIM_WaveformOutputStop(&hhrtim1, HRTIM_OUTPUT_TA1 | HRTIM_OUTPUT_TA2 | HRTI
 582              		.loc 1 401 32 is_stmt 0 view .LVU122
 583 0114 0022     		movs	r2, #0
 584 0116 83F83420 		strb	r2, [r3, #52]
 402:Core/Src/stm32f3xx_it.c ****              }
 585              		.loc 1 402 19 is_stmt 1 view .LVU123
 586 011a 0F21     		movs	r1, #15
 587 011c 0748     		ldr	r0, .L63+20
 588 011e FFF7FEFF 		bl	HAL_HRTIM_WaveformOutputStop
 589              	.LVL15:
 402:Core/Src/stm32f3xx_it.c ****              }
 590              		.loc 1 402 19 is_stmt 0 view .LVU124
 591 0122 CDE7     		b	.L37
 592              	.LVL16:
 593              	.L56:
 594              	.LCFI6:
 595              		.cfi_def_cfa_offset 0
 596              		.cfi_restore 4
 597              		.cfi_restore 14
 402:Core/Src/stm32f3xx_it.c ****              }
 598              		.loc 1 402 19 view .LVU125
 599 0124 7047     		bx	lr
 600              	.L64:
 601 0126 00BF     		.align	2
 602              	.L63:
 603 0128 00000000 		.word	g_ctrl
 604 012c 0000A042 		.word	1117782016
 605 0130 CDCC4C3E 		.word	1045220557
 606 0134 CDCCCC3E 		.word	1053609165
 607 0138 00000000 		.word	logic_err_cnt.0
 608 013c 00000000 		.word	hhrtim1
 609              	.LBE3:
 610              		.cfi_endproc
 611              	.LFE137:
 613              		.section	.text.HRTIM1_TIMA_IRQHandler,"ax",%progbits
 614              		.align	1
 615              		.global	HRTIM1_TIMA_IRQHandler
 616              		.syntax unified
 617              		.thumb
ARM GAS  C:\msys64\tmp\cc89SrRF.s 			page 19


 618              		.thumb_func
 620              	HRTIM1_TIMA_IRQHandler:
 621              	.LFB135:
 259:Core/Src/stm32f3xx_it.c ****     __HAL_HRTIM_TIMER_CLEAR_IT(&hhrtim1, HRTIM_TIMERINDEX_TIMER_A, HRTIM_TIM_IT_REP);
 622              		.loc 1 259 1 is_stmt 1 view -0
 623              		.cfi_startproc
 624              		@ args = 0, pretend = 0, frame = 0
 625              		@ frame_needed = 0, uses_anonymous_args = 0
 626 0000 08B5     		push	{r3, lr}
 627              	.LCFI7:
 628              		.cfi_def_cfa_offset 8
 629              		.cfi_offset 3, -8
 630              		.cfi_offset 14, -4
 260:Core/Src/stm32f3xx_it.c **** 
 631              		.loc 1 260 5 view .LVU127
 632 0002 5F4B     		ldr	r3, .L86
 633 0004 1B68     		ldr	r3, [r3]
 634 0006 1022     		movs	r2, #16
 635 0008 C3F88820 		str	r2, [r3, #136]
 262:Core/Src/stm32f3xx_it.c ****       static uint16_t boot_mask_cnt = 0;
 636              		.loc 1 262 5 view .LVU128
 637 000c FFF7FEFF 		bl	Sensor_Update
 638              	.LVL17:
 263:Core/Src/stm32f3xx_it.c ****     if (boot_mask_cnt < 500) { // 给予 500ms 的启动屏蔽期
 639              		.loc 1 263 7 view .LVU129
 264:Core/Src/stm32f3xx_it.c ****              boot_mask_cnt++;
 640              		.loc 1 264 5 view .LVU130
 264:Core/Src/stm32f3xx_it.c ****              boot_mask_cnt++;
 641              		.loc 1 264 23 is_stmt 0 view .LVU131
 642 0010 5C4B     		ldr	r3, .L86+4
 643 0012 1B88     		ldrh	r3, [r3]
 264:Core/Src/stm32f3xx_it.c ****              boot_mask_cnt++;
 644              		.loc 1 264 8 view .LVU132
 645 0014 B3F5FA7F 		cmp	r3, #500
 646 0018 18D2     		bcs	.L66
 265:Core/Src/stm32f3xx_it.c ****         }
 647              		.loc 1 265 14 is_stmt 1 view .LVU133
 265:Core/Src/stm32f3xx_it.c ****         }
 648              		.loc 1 265 27 is_stmt 0 view .LVU134
 649 001a 0133     		adds	r3, r3, #1
 650 001c 594A     		ldr	r2, .L86+4
 651 001e 1380     		strh	r3, [r2]	@ movhi
 652              	.L67:
 271:Core/Src/stm32f3xx_it.c **** can_div++;
 653              		.loc 1 271 5 is_stmt 1 view .LVU135
 272:Core/Src/stm32f3xx_it.c **** 
 654              		.loc 1 272 1 view .LVU136
 272:Core/Src/stm32f3xx_it.c **** 
 655              		.loc 1 272 8 is_stmt 0 view .LVU137
 656 0020 594A     		ldr	r2, .L86+8
 657 0022 1388     		ldrh	r3, [r2]
 658 0024 0133     		adds	r3, r3, #1
 659 0026 9BB2     		uxth	r3, r3
 660 0028 1380     		strh	r3, [r2]	@ movhi
 274:Core/Src/stm32f3xx_it.c **** {
 661              		.loc 1 274 1 is_stmt 1 view .LVU138
 274:Core/Src/stm32f3xx_it.c **** {
ARM GAS  C:\msys64\tmp\cc89SrRF.s 			page 20


 662              		.loc 1 274 4 is_stmt 0 view .LVU139
 663 002a B3F5616F 		cmp	r3, #3600
 664 002e 10D2     		bcs	.L83
 665              	.L68:
 295:Core/Src/stm32f3xx_it.c ****     protect_div++; 
 666              		.loc 1 295 7 is_stmt 1 view .LVU140
 296:Core/Src/stm32f3xx_it.c ****     if (protect_div >= 36) //1ms 运行一次慢速保护
 667              		.loc 1 296 5 view .LVU141
 296:Core/Src/stm32f3xx_it.c ****     if (protect_div >= 36) //1ms 运行一次慢速保护
 668              		.loc 1 296 16 is_stmt 0 view .LVU142
 669 0030 564A     		ldr	r2, .L86+12
 670 0032 1378     		ldrb	r3, [r2]	@ zero_extendqisi2
 671 0034 0133     		adds	r3, r3, #1
 672 0036 DBB2     		uxtb	r3, r3
 673 0038 1370     		strb	r3, [r2]
 297:Core/Src/stm32f3xx_it.c **** {
 674              		.loc 1 297 5 is_stmt 1 view .LVU143
 297:Core/Src/stm32f3xx_it.c **** {
 675              		.loc 1 297 8 is_stmt 0 view .LVU144
 676 003a 232B     		cmp	r3, #35
 677 003c 3CD8     		bhi	.L84
 678              	.L69:
 304:Core/Src/stm32f3xx_it.c ****         return; 
 679              		.loc 1 304 1 is_stmt 1 view .LVU145
 304:Core/Src/stm32f3xx_it.c ****         return; 
 680              		.loc 1 304 11 is_stmt 0 view .LVU146
 681 003e 544B     		ldr	r3, .L86+16
 682 0040 93F83430 		ldrb	r3, [r3, #52]	@ zero_extendqisi2
 683 0044 5BB2     		sxtb	r3, r3
 304:Core/Src/stm32f3xx_it.c ****         return; 
 684              		.loc 1 304 4 view .LVU147
 685 0046 002B     		cmp	r3, #0
 686 0048 3CD1     		bne	.L85
 687              	.L65:
 343:Core/Src/stm32f3xx_it.c **** void Check_Protection_Fast(void) {
 688              		.loc 1 343 1 view .LVU148
 689 004a 08BD     		pop	{r3, pc}
 690              	.L66:
 268:Core/Src/stm32f3xx_it.c ****         }
 691              		.loc 1 268 4 is_stmt 1 view .LVU149
 692 004c FFF7FEFF 		bl	Check_Protection_Fast
 693              	.LVL18:
 694 0050 E6E7     		b	.L67
 695              	.L83:
 276:Core/Src/stm32f3xx_it.c **** 
 696              		.loc 1 276 5 view .LVU150
 276:Core/Src/stm32f3xx_it.c **** 
 697              		.loc 1 276 13 is_stmt 0 view .LVU151
 698 0052 1346     		mov	r3, r2
 699 0054 0022     		movs	r2, #0
 700 0056 1A80     		strh	r2, [r3]	@ movhi
 278:Core/Src/stm32f3xx_it.c ****     {
 701              		.loc 1 278 9 is_stmt 1 view .LVU152
 278:Core/Src/stm32f3xx_it.c ****     {
 702              		.loc 1 278 13 is_stmt 0 view .LVU153
 703 0058 4E48     		ldr	r0, .L86+20
 704 005a FFF7FEFF 		bl	HAL_CAN_GetTxMailboxesFreeLevel
ARM GAS  C:\msys64\tmp\cc89SrRF.s 			page 21


 705              	.LVL19:
 278:Core/Src/stm32f3xx_it.c ****     {
 706              		.loc 1 278 12 discriminator 1 view .LVU154
 707 005e 0028     		cmp	r0, #0
 708 0060 E6D0     		beq	.L68
 709              	.LBB4:
 281:Core/Src/stm32f3xx_it.c ****         int16_t send_vb = (int16_t)(g_ctrl.vb * 100.0f);
 710              		.loc 1 281 9 is_stmt 1 view .LVU155
 281:Core/Src/stm32f3xx_it.c ****         int16_t send_vb = (int16_t)(g_ctrl.vb * 100.0f);
 711              		.loc 1 281 43 is_stmt 0 view .LVU156
 712 0062 4B4B     		ldr	r3, .L86+16
 713 0064 D3ED037A 		vldr.32	s15, [r3, #12]
 281:Core/Src/stm32f3xx_it.c ****         int16_t send_vb = (int16_t)(g_ctrl.vb * 100.0f);
 714              		.loc 1 281 47 view .LVU157
 715 0068 9FED4B7A 		vldr.32	s14, .L86+24
 716 006c 67EE877A 		vmul.f32	s15, s15, s14
 281:Core/Src/stm32f3xx_it.c ****         int16_t send_vb = (int16_t)(g_ctrl.vb * 100.0f);
 717              		.loc 1 281 17 view .LVU158
 718 0070 FDEEE77A 		vcvt.s32.f32	s15, s15
 719 0074 17EE901A 		vmov	r1, s15	@ int
 720              	.LVL20:
 282:Core/Src/stm32f3xx_it.c ****         
 721              		.loc 1 282 9 is_stmt 1 view .LVU159
 282:Core/Src/stm32f3xx_it.c ****         
 722              		.loc 1 282 43 is_stmt 0 view .LVU160
 723 0078 D3ED017A 		vldr.32	s15, [r3, #4]
 282:Core/Src/stm32f3xx_it.c ****         
 724              		.loc 1 282 47 view .LVU161
 725 007c 67EE877A 		vmul.f32	s15, s15, s14
 282:Core/Src/stm32f3xx_it.c ****         
 726              		.loc 1 282 17 view .LVU162
 727 0080 FDEEE77A 		vcvt.s32.f32	s15, s15
 728 0084 17EE903A 		vmov	r3, s15	@ int
 729              	.LVL21:
 284:Core/Src/stm32f3xx_it.c ****         TxData[1] = (uint8_t)(send_ia & 0xFF);
 730              		.loc 1 284 9 is_stmt 1 view .LVU163
 284:Core/Src/stm32f3xx_it.c ****         TxData[1] = (uint8_t)(send_ia & 0xFF);
 731              		.loc 1 284 21 is_stmt 0 view .LVU164
 732 0088 C1F30720 		ubfx	r0, r1, #8, #8
 284:Core/Src/stm32f3xx_it.c ****         TxData[1] = (uint8_t)(send_ia & 0xFF);
 733              		.loc 1 284 19 view .LVU165
 734 008c 434A     		ldr	r2, .L86+28
 735 008e 1070     		strb	r0, [r2]
 285:Core/Src/stm32f3xx_it.c ****         TxData[2] = (uint8_t)(send_vb >> 8);
 736              		.loc 1 285 9 is_stmt 1 view .LVU166
 285:Core/Src/stm32f3xx_it.c ****         TxData[2] = (uint8_t)(send_vb >> 8);
 737              		.loc 1 285 19 is_stmt 0 view .LVU167
 738 0090 5170     		strb	r1, [r2, #1]
 286:Core/Src/stm32f3xx_it.c ****         TxData[3] = (uint8_t)(send_vb & 0xFF);
 739              		.loc 1 286 9 is_stmt 1 view .LVU168
 286:Core/Src/stm32f3xx_it.c ****         TxData[3] = (uint8_t)(send_vb & 0xFF);
 740              		.loc 1 286 21 is_stmt 0 view .LVU169
 741 0092 C3F30721 		ubfx	r1, r3, #8, #8
 742              	.LVL22:
 286:Core/Src/stm32f3xx_it.c ****         TxData[3] = (uint8_t)(send_vb & 0xFF);
 743              		.loc 1 286 19 view .LVU170
 744 0096 9170     		strb	r1, [r2, #2]
ARM GAS  C:\msys64\tmp\cc89SrRF.s 			page 22


 287:Core/Src/stm32f3xx_it.c ****         HAL_CAN_AddTxMessage(&hcan, &TxHeader, TxData, &TxMailbox);
 745              		.loc 1 287 9 is_stmt 1 view .LVU171
 287:Core/Src/stm32f3xx_it.c ****         HAL_CAN_AddTxMessage(&hcan, &TxHeader, TxData, &TxMailbox);
 746              		.loc 1 287 19 is_stmt 0 view .LVU172
 747 0098 D370     		strb	r3, [r2, #3]
 288:Core/Src/stm32f3xx_it.c **** 
 748              		.loc 1 288 9 is_stmt 1 view .LVU173
 749 009a 414B     		ldr	r3, .L86+32
 750              	.LVL23:
 288:Core/Src/stm32f3xx_it.c **** 
 751              		.loc 1 288 9 is_stmt 0 view .LVU174
 752 009c 4149     		ldr	r1, .L86+36
 753 009e 3D48     		ldr	r0, .L86+20
 754 00a0 FFF7FEFF 		bl	HAL_CAN_AddTxMessage
 755              	.LVL24:
 290:Core/Src/stm32f3xx_it.c ****       a++;
 756              		.loc 1 290 9 is_stmt 1 view .LVU175
 757 00a4 4FF40041 		mov	r1, #32768
 758 00a8 3F48     		ldr	r0, .L86+40
 759 00aa FFF7FEFF 		bl	HAL_GPIO_TogglePin
 760              	.LVL25:
 291:Core/Src/stm32f3xx_it.c ****     }
 761              		.loc 1 291 7 view .LVU176
 291:Core/Src/stm32f3xx_it.c ****     }
 762              		.loc 1 291 8 is_stmt 0 view .LVU177
 763 00ae 3F4A     		ldr	r2, .L86+44
 764 00b0 1378     		ldrb	r3, [r2]	@ zero_extendqisi2
 765 00b2 0133     		adds	r3, r3, #1
 766 00b4 1370     		strb	r3, [r2]
 767 00b6 BBE7     		b	.L68
 768              	.LVL26:
 769              	.L84:
 291:Core/Src/stm32f3xx_it.c ****     }
 770              		.loc 1 291 8 view .LVU178
 771              	.LBE4:
 299:Core/Src/stm32f3xx_it.c **** 
 772              		.loc 1 299 5 is_stmt 1 view .LVU179
 299:Core/Src/stm32f3xx_it.c **** 
 773              		.loc 1 299 17 is_stmt 0 view .LVU180
 774 00b8 1346     		mov	r3, r2
 775 00ba 0022     		movs	r2, #0
 776 00bc 1A70     		strb	r2, [r3]
 301:Core/Src/stm32f3xx_it.c **** 
 777              		.loc 1 301 4 is_stmt 1 view .LVU181
 778 00be FFF7FEFF 		bl	Check_Protection_Slow
 779              	.LVL27:
 780 00c2 BCE7     		b	.L69
 781              	.L85:
 308:Core/Src/stm32f3xx_it.c ****     if (g_ctrl.work_mode == MODE_OVER||g_ctrl.enable == 4)
 782              		.loc 1 308 3 view .LVU182
 783 00c4 FFF7FEFF 		bl	Run_Control_Loop
 784              	.LVL28:
 309:Core/Src/stm32f3xx_it.c **** {
 785              		.loc 1 309 5 view .LVU183
 309:Core/Src/stm32f3xx_it.c **** {
 786              		.loc 1 309 15 is_stmt 0 view .LVU184
 787 00c8 314B     		ldr	r3, .L86+16
ARM GAS  C:\msys64\tmp\cc89SrRF.s 			page 23


 788 00ca 93F83530 		ldrb	r3, [r3, #53]	@ zero_extendqisi2
 789 00ce DBB2     		uxtb	r3, r3
 309:Core/Src/stm32f3xx_it.c **** {
 790              		.loc 1 309 8 view .LVU185
 791 00d0 042B     		cmp	r3, #4
 792 00d2 3FD0     		beq	.L71
 309:Core/Src/stm32f3xx_it.c **** {
 793              		.loc 1 309 46 discriminator 1 view .LVU186
 794 00d4 2E4B     		ldr	r3, .L86+16
 795 00d6 93F83430 		ldrb	r3, [r3, #52]	@ zero_extendqisi2
 796 00da 5BB2     		sxtb	r3, r3
 309:Core/Src/stm32f3xx_it.c **** {
 797              		.loc 1 309 38 discriminator 1 view .LVU187
 798 00dc 042B     		cmp	r3, #4
 799 00de 39D0     		beq	.L71
 315:Core/Src/stm32f3xx_it.c ****     uint16_t cmp_buck = (uint16_t)(g_ctrl.final_duty_buck * period);
 800              		.loc 1 315 1 is_stmt 1 view .LVU188
 801              	.LVL29:
 316:Core/Src/stm32f3xx_it.c **** if (cmp_buck < 800) cmp_buck = 800; 
 802              		.loc 1 316 5 view .LVU189
 316:Core/Src/stm32f3xx_it.c **** if (cmp_buck < 800) cmp_buck = 800; 
 803              		.loc 1 316 42 is_stmt 0 view .LVU190
 804 00e0 2B4B     		ldr	r3, .L86+16
 805 00e2 D3ED0E7A 		vldr.32	s15, [r3, #56]
 316:Core/Src/stm32f3xx_it.c **** if (cmp_buck < 800) cmp_buck = 800; 
 806              		.loc 1 316 59 view .LVU191
 807 00e6 9FED327A 		vldr.32	s14, .L86+48
 808 00ea 67EE877A 		vmul.f32	s15, s15, s14
 316:Core/Src/stm32f3xx_it.c **** if (cmp_buck < 800) cmp_buck = 800; 
 809              		.loc 1 316 14 view .LVU192
 810 00ee FCEEE77A 		vcvt.u32.f32	s15, s15
 811 00f2 17EE903A 		vmov	r3, s15	@ int
 812 00f6 9BB2     		uxth	r3, r3
 813              	.LVL30:
 317:Core/Src/stm32f3xx_it.c **** if (g_ctrl.final_duty_buck >= 1.0f) {
 814              		.loc 1 317 1 is_stmt 1 view .LVU193
 317:Core/Src/stm32f3xx_it.c **** if (g_ctrl.final_duty_buck >= 1.0f) {
 815              		.loc 1 317 4 is_stmt 0 view .LVU194
 816 00f8 B3F5487F 		cmp	r3, #800
 817 00fc 01D2     		bcs	.L73
 317:Core/Src/stm32f3xx_it.c **** if (g_ctrl.final_duty_buck >= 1.0f) {
 818              		.loc 1 317 30 discriminator 1 view .LVU195
 819 00fe 4FF44873 		mov	r3, #800
 820              	.LVL31:
 821              	.L73:
 318:Core/Src/stm32f3xx_it.c ****     cmp_buck = period + 1; 
 822              		.loc 1 318 1 is_stmt 1 view .LVU196
 318:Core/Src/stm32f3xx_it.c ****     cmp_buck = period + 1; 
 823              		.loc 1 318 11 is_stmt 0 view .LVU197
 824 0102 234A     		ldr	r2, .L86+16
 825 0104 92ED0E7A 		vldr.32	s14, [r2, #56]
 318:Core/Src/stm32f3xx_it.c ****     cmp_buck = period + 1; 
 826              		.loc 1 318 4 view .LVU198
 827 0108 F7EE007A 		vmov.f32	s15, #1.0e+0
 828 010c B4EEE77A 		vcmpe.f32	s14, s15
 829 0110 F1EE10FA 		vmrs	APSR_nzcv, FPSCR
 830 0114 01DB     		blt	.L74
ARM GAS  C:\msys64\tmp\cc89SrRF.s 			page 24


 319:Core/Src/stm32f3xx_it.c **** }
 831              		.loc 1 319 14 view .LVU199
 832 0116 43F68163 		movw	r3, #16001
 833              	.LVL32:
 834              	.L74:
 321:Core/Src/stm32f3xx_it.c **** if (g_ctrl.final_duty_boost <= 0.0f) {
 835              		.loc 1 321 1 is_stmt 1 view .LVU200
 322:Core/Src/stm32f3xx_it.c ****     cmp_boost = period + 1; // 强制关断下管，实现直通
 836              		.loc 1 322 1 view .LVU201
 322:Core/Src/stm32f3xx_it.c ****     cmp_boost = period + 1; // 强制关断下管，实现直通
 837              		.loc 1 322 11 is_stmt 0 view .LVU202
 838 011a 1D4A     		ldr	r2, .L86+16
 839 011c D2ED0F7A 		vldr.32	s15, [r2, #60]
 322:Core/Src/stm32f3xx_it.c ****     cmp_boost = period + 1; // 强制关断下管，实现直通
 840              		.loc 1 322 4 view .LVU203
 841 0120 F5EEC07A 		vcmpe.f32	s15, #0
 842 0124 F1EE10FA 		vmrs	APSR_nzcv, FPSCR
 843 0128 19D9     		bls	.L79
 325:Core/Src/stm32f3xx_it.c ****     // 限制最大占空比 90% ( 16000 * 0.1 = 1600)
 844              		.loc 1 325 5 is_stmt 1 view .LVU204
 325:Core/Src/stm32f3xx_it.c ****     // 限制最大占空比 90% ( 16000 * 0.1 = 1600)
 845              		.loc 1 325 42 is_stmt 0 view .LVU205
 846 012a 92ED0F7A 		vldr.32	s14, [r2, #60]
 325:Core/Src/stm32f3xx_it.c ****     // 限制最大占空比 90% ( 16000 * 0.1 = 1600)
 847              		.loc 1 325 34 view .LVU206
 848 012e F7EE007A 		vmov.f32	s15, #1.0e+0
 849 0132 77EEC77A 		vsub.f32	s15, s15, s14
 325:Core/Src/stm32f3xx_it.c ****     // 限制最大占空比 90% ( 16000 * 0.1 = 1600)
 850              		.loc 1 325 61 view .LVU207
 851 0136 9FED1E7A 		vldr.32	s14, .L86+48
 852 013a 67EE877A 		vmul.f32	s15, s15, s14
 325:Core/Src/stm32f3xx_it.c ****     // 限制最大占空比 90% ( 16000 * 0.1 = 1600)
 853              		.loc 1 325 15 view .LVU208
 854 013e FCEEE77A 		vcvt.u32.f32	s15, s15
 855 0142 17EE902A 		vmov	r2, s15	@ int
 856 0146 92B2     		uxth	r2, r2
 857              	.LVL33:
 327:Core/Src/stm32f3xx_it.c **** }
 858              		.loc 1 327 5 is_stmt 1 view .LVU209
 327:Core/Src/stm32f3xx_it.c **** }
 859              		.loc 1 327 8 is_stmt 0 view .LVU210
 860 0148 B2F5C86F 		cmp	r2, #1600
 861 014c 09D2     		bcs	.L75
 327:Core/Src/stm32f3xx_it.c **** }
 862              		.loc 1 327 37 discriminator 1 view .LVU211
 863 014e 4FF4C862 		mov	r2, #1600
 864              	.LVL34:
 327:Core/Src/stm32f3xx_it.c **** }
 865              		.loc 1 327 37 discriminator 1 view .LVU212
 866 0152 06E0     		b	.L75
 867              	.LVL35:
 868              	.L71:
 311:Core/Src/stm32f3xx_it.c ****  return;
 869              		.loc 1 311 2 is_stmt 1 view .LVU213
 870 0154 0F21     		movs	r1, #15
 871 0156 0A48     		ldr	r0, .L86
 872 0158 FFF7FEFF 		bl	HAL_HRTIM_WaveformOutputStop
ARM GAS  C:\msys64\tmp\cc89SrRF.s 			page 25


 873              	.LVL36:
 312:Core/Src/stm32f3xx_it.c **** }
 874              		.loc 1 312 2 view .LVU214
 875 015c 75E7     		b	.L65
 876              	.LVL37:
 877              	.L79:
 323:Core/Src/stm32f3xx_it.c **** } else {
 878              		.loc 1 323 15 is_stmt 0 view .LVU215
 879 015e 43F68162 		movw	r2, #16001
 880              	.L75:
 881              	.LVL38:
 329:Core/Src/stm32f3xx_it.c ****     // 防止触发点过小导致 ADC 来不及 (虽然 F334 很快，还是留点余量)
 882              		.loc 1 329 5 is_stmt 1 view .LVU216
 329:Core/Src/stm32f3xx_it.c ****     // 防止触发点过小导致 ADC 来不及 (虽然 F334 很快，还是留点余量)
 883              		.loc 1 329 14 is_stmt 0 view .LVU217
 884 0162 5808     		lsrs	r0, r3, #1
 885              	.LVL39:
 331:Core/Src/stm32f3xx_it.c **** 
 886              		.loc 1 331 5 is_stmt 1 view .LVU218
 331:Core/Src/stm32f3xx_it.c **** 
 887              		.loc 1 331 8 is_stmt 0 view .LVU219
 888 0164 B3F5487F 		cmp	r3, #800
 889 0168 01D2     		bcs	.L76
 331:Core/Src/stm32f3xx_it.c **** 
 890              		.loc 1 331 46 discriminator 1 view .LVU220
 891 016a 4FF4C870 		mov	r0, #400
 892              	.LVL40:
 893              	.L76:
 336:Core/Src/stm32f3xx_it.c **** 
 894              		.loc 1 336 5 is_stmt 1 view .LVU221
 336:Core/Src/stm32f3xx_it.c **** 
 895              		.loc 1 336 12 is_stmt 0 view .LVU222
 896 016e 0449     		ldr	r1, .L86
 897 0170 0968     		ldr	r1, [r1]
 336:Core/Src/stm32f3xx_it.c **** 
 898              		.loc 1 336 68 view .LVU223
 899 0172 C1F8A400 		str	r0, [r1, #164]
 339:Core/Src/stm32f3xx_it.c ****     
 900              		.loc 1 339 5 is_stmt 1 view .LVU224
 339:Core/Src/stm32f3xx_it.c ****     
 901              		.loc 1 339 68 is_stmt 0 view .LVU225
 902 0176 C1F89C30 		str	r3, [r1, #156]
 342:Core/Src/stm32f3xx_it.c **** }
 903              		.loc 1 342 5 is_stmt 1 view .LVU226
 342:Core/Src/stm32f3xx_it.c **** }
 904              		.loc 1 342 68 is_stmt 0 view .LVU227
 905 017a C1F81C21 		str	r2, [r1, #284]
 906 017e 64E7     		b	.L65
 907              	.L87:
 908              		.align	2
 909              	.L86:
 910 0180 00000000 		.word	hhrtim1
 911 0184 00000000 		.word	boot_mask_cnt.4
 912 0188 00000000 		.word	can_div.3
 913 018c 00000000 		.word	protect_div.2
 914 0190 00000000 		.word	g_ctrl
 915 0194 00000000 		.word	hcan
ARM GAS  C:\msys64\tmp\cc89SrRF.s 			page 26


 916 0198 0000C842 		.word	1120403456
 917 019c 00000000 		.word	TxData
 918 01a0 00000000 		.word	TxMailbox
 919 01a4 00000000 		.word	TxHeader
 920 01a8 00040048 		.word	1207960576
 921 01ac 00000000 		.word	a
 922 01b0 00007A46 		.word	1182400512
 923              		.cfi_endproc
 924              	.LFE135:
 926              		.section	.bss.logic_err_cnt.0,"aw",%nobits
 929              	logic_err_cnt.0:
 930 0000 00       		.space	1
 931              		.section	.bss.short_circuit_cnt.1,"aw",%nobits
 934              	short_circuit_cnt.1:
 935 0000 00       		.space	1
 936              		.section	.bss.protect_div.2,"aw",%nobits
 939              	protect_div.2:
 940 0000 00       		.space	1
 941              		.section	.bss.can_div.3,"aw",%nobits
 942              		.align	1
 945              	can_div.3:
 946 0000 0000     		.space	2
 947              		.section	.bss.boot_mask_cnt.4,"aw",%nobits
 948              		.align	1
 951              	boot_mask_cnt.4:
 952 0000 0000     		.space	2
 953              		.text
 954              	.Letext0:
 955              		.file 2 "C:/msys64/ucrt64/arm-none-eabi/include/machine/_default_types.h"
 956              		.file 3 "C:/msys64/ucrt64/arm-none-eabi/include/sys/_stdint.h"
 957              		.file 4 "Drivers/CMSIS/Device/ST/STM32F3xx/Include/stm32f334x8.h"
 958              		.file 5 "Drivers/CMSIS/Device/ST/STM32F3xx/Include/stm32f3xx.h"
 959              		.file 6 "Drivers/STM32F3xx_HAL_Driver/Inc/stm32f3xx_hal_def.h"
 960              		.file 7 "Drivers/STM32F3xx_HAL_Driver/Inc/stm32f3xx_hal_dma.h"
 961              		.file 8 "Drivers/STM32F3xx_HAL_Driver/Inc/stm32f3xx_hal_can.h"
 962              		.file 9 "Drivers/STM32F3xx_HAL_Driver/Inc/stm32f3xx_hal_hrtim.h"
 963              		.file 10 "Core/Inc/power.h"
 964              		.file 11 "Core/Inc/main.h"
 965              		.file 12 "Core/Inc/adc.h"
 966              		.file 13 "Drivers/STM32F3xx_HAL_Driver/Inc/stm32f3xx_hal_gpio.h"
 967              		.file 14 "Drivers/STM32F3xx_HAL_Driver/Inc/stm32f3xx_hal.h"
ARM GAS  C:\msys64\tmp\cc89SrRF.s 			page 27

