ARM GAS  C:\msys64\tmp\ccY9DPQV.s 			page 1


   1              		.cpu cortex-m4
   2              		.arch armv7e-m
   3              		.fpu fpv4-sp-d16
   4              		.eabi_attribute 27, 1
   5              		.eabi_attribute 28, 1
   6              		.eabi_attribute 20, 1
   7              		.eabi_attribute 21, 1
   8              		.eabi_attribute 23, 3
   9              		.eabi_attribute 24, 1
  10              		.eabi_attribute 25, 1
  11              		.eabi_attribute 26, 1
  12              		.eabi_attribute 30, 1
  13              		.eabi_attribute 34, 1
  14              		.eabi_attribute 18, 4
  15              		.file	"stm32f3xx_hal_msp.c"
  16              		.text
  17              	.Ltext0:
  18              		.cfi_sections	.debug_frame
  19              		.file 1 "Core/Src/stm32f3xx_hal_msp.c"
  20              		.section	.text.HAL_MspInit,"ax",%progbits
  21              		.align	1
  22              		.global	HAL_MspInit
  23              		.syntax unified
  24              		.thumb
  25              		.thumb_func
  27              	HAL_MspInit:
  28              	.LFB123:
   1:Core/Src/stm32f3xx_hal_msp.c **** /* USER CODE BEGIN Header */
   2:Core/Src/stm32f3xx_hal_msp.c **** /**
   3:Core/Src/stm32f3xx_hal_msp.c ****   ******************************************************************************
   4:Core/Src/stm32f3xx_hal_msp.c ****   * @file         stm32f3xx_hal_msp.c
   5:Core/Src/stm32f3xx_hal_msp.c ****   * @brief        This file provides code for the MSP Initialization
   6:Core/Src/stm32f3xx_hal_msp.c ****   *               and de-Initialization codes.
   7:Core/Src/stm32f3xx_hal_msp.c ****   ******************************************************************************
   8:Core/Src/stm32f3xx_hal_msp.c ****   * @attention
   9:Core/Src/stm32f3xx_hal_msp.c ****   *
  10:Core/Src/stm32f3xx_hal_msp.c ****   * Copyright (c) 2025 STMicroelectronics.
  11:Core/Src/stm32f3xx_hal_msp.c ****   * All rights reserved.
  12:Core/Src/stm32f3xx_hal_msp.c ****   *
  13:Core/Src/stm32f3xx_hal_msp.c ****   * This software is licensed under terms that can be found in the LICENSE file
  14:Core/Src/stm32f3xx_hal_msp.c ****   * in the root directory of this software component.
  15:Core/Src/stm32f3xx_hal_msp.c ****   * If no LICENSE file comes with this software, it is provided AS-IS.
  16:Core/Src/stm32f3xx_hal_msp.c ****   *
  17:Core/Src/stm32f3xx_hal_msp.c ****   ******************************************************************************
  18:Core/Src/stm32f3xx_hal_msp.c ****   */
  19:Core/Src/stm32f3xx_hal_msp.c **** /* USER CODE END Header */
  20:Core/Src/stm32f3xx_hal_msp.c **** 
  21:Core/Src/stm32f3xx_hal_msp.c **** /* Includes ------------------------------------------------------------------*/
  22:Core/Src/stm32f3xx_hal_msp.c **** #include "main.h"
  23:Core/Src/stm32f3xx_hal_msp.c **** /* USER CODE BEGIN Includes */
  24:Core/Src/stm32f3xx_hal_msp.c **** 
  25:Core/Src/stm32f3xx_hal_msp.c **** /* USER CODE END Includes */
  26:Core/Src/stm32f3xx_hal_msp.c **** extern DMA_HandleTypeDef hdma_adc1;
  27:Core/Src/stm32f3xx_hal_msp.c **** 
  28:Core/Src/stm32f3xx_hal_msp.c **** extern DMA_HandleTypeDef hdma_adc2;
  29:Core/Src/stm32f3xx_hal_msp.c **** 
  30:Core/Src/stm32f3xx_hal_msp.c **** /* Private typedef -----------------------------------------------------------*/
ARM GAS  C:\msys64\tmp\ccY9DPQV.s 			page 2


  31:Core/Src/stm32f3xx_hal_msp.c **** /* USER CODE BEGIN TD */
  32:Core/Src/stm32f3xx_hal_msp.c **** 
  33:Core/Src/stm32f3xx_hal_msp.c **** /* USER CODE END TD */
  34:Core/Src/stm32f3xx_hal_msp.c **** 
  35:Core/Src/stm32f3xx_hal_msp.c **** /* Private define ------------------------------------------------------------*/
  36:Core/Src/stm32f3xx_hal_msp.c **** /* USER CODE BEGIN Define */
  37:Core/Src/stm32f3xx_hal_msp.c **** 
  38:Core/Src/stm32f3xx_hal_msp.c **** /* USER CODE END Define */
  39:Core/Src/stm32f3xx_hal_msp.c **** 
  40:Core/Src/stm32f3xx_hal_msp.c **** /* Private macro -------------------------------------------------------------*/
  41:Core/Src/stm32f3xx_hal_msp.c **** /* USER CODE BEGIN Macro */
  42:Core/Src/stm32f3xx_hal_msp.c **** 
  43:Core/Src/stm32f3xx_hal_msp.c **** /* USER CODE END Macro */
  44:Core/Src/stm32f3xx_hal_msp.c **** 
  45:Core/Src/stm32f3xx_hal_msp.c **** /* Private variables ---------------------------------------------------------*/
  46:Core/Src/stm32f3xx_hal_msp.c **** /* USER CODE BEGIN PV */
  47:Core/Src/stm32f3xx_hal_msp.c **** 
  48:Core/Src/stm32f3xx_hal_msp.c **** /* USER CODE END PV */
  49:Core/Src/stm32f3xx_hal_msp.c **** 
  50:Core/Src/stm32f3xx_hal_msp.c **** /* Private function prototypes -----------------------------------------------*/
  51:Core/Src/stm32f3xx_hal_msp.c **** /* USER CODE BEGIN PFP */
  52:Core/Src/stm32f3xx_hal_msp.c **** 
  53:Core/Src/stm32f3xx_hal_msp.c **** /* USER CODE END PFP */
  54:Core/Src/stm32f3xx_hal_msp.c **** 
  55:Core/Src/stm32f3xx_hal_msp.c **** /* External functions --------------------------------------------------------*/
  56:Core/Src/stm32f3xx_hal_msp.c **** /* USER CODE BEGIN ExternalFunctions */
  57:Core/Src/stm32f3xx_hal_msp.c **** 
  58:Core/Src/stm32f3xx_hal_msp.c **** /* USER CODE END ExternalFunctions */
  59:Core/Src/stm32f3xx_hal_msp.c **** 
  60:Core/Src/stm32f3xx_hal_msp.c **** /* USER CODE BEGIN 0 */
  61:Core/Src/stm32f3xx_hal_msp.c **** 
  62:Core/Src/stm32f3xx_hal_msp.c **** /* USER CODE END 0 */
  63:Core/Src/stm32f3xx_hal_msp.c **** 
  64:Core/Src/stm32f3xx_hal_msp.c **** void HAL_HRTIM_MspPostInit(HRTIM_HandleTypeDef *hhrtim);
  65:Core/Src/stm32f3xx_hal_msp.c ****                     /**
  66:Core/Src/stm32f3xx_hal_msp.c ****   * Initializes the Global MSP.
  67:Core/Src/stm32f3xx_hal_msp.c ****   */
  68:Core/Src/stm32f3xx_hal_msp.c **** void HAL_MspInit(void)
  69:Core/Src/stm32f3xx_hal_msp.c **** {
  29              		.loc 1 69 1 view -0
  30              		.cfi_startproc
  31              		@ args = 0, pretend = 0, frame = 8
  32              		@ frame_needed = 0, uses_anonymous_args = 0
  33              		@ link register save eliminated.
  34 0000 82B0     		sub	sp, sp, #8
  35              	.LCFI0:
  36              		.cfi_def_cfa_offset 8
  70:Core/Src/stm32f3xx_hal_msp.c **** 
  71:Core/Src/stm32f3xx_hal_msp.c ****   /* USER CODE BEGIN MspInit 0 */
  72:Core/Src/stm32f3xx_hal_msp.c **** 
  73:Core/Src/stm32f3xx_hal_msp.c ****   /* USER CODE END MspInit 0 */
  74:Core/Src/stm32f3xx_hal_msp.c **** 
  75:Core/Src/stm32f3xx_hal_msp.c ****   __HAL_RCC_SYSCFG_CLK_ENABLE();
  37              		.loc 1 75 3 view .LVU1
  38              	.LBB2:
  39              		.loc 1 75 3 view .LVU2
  40              		.loc 1 75 3 view .LVU3
ARM GAS  C:\msys64\tmp\ccY9DPQV.s 			page 3


  41 0002 0A4B     		ldr	r3, .L3
  42 0004 9A69     		ldr	r2, [r3, #24]
  43 0006 42F00102 		orr	r2, r2, #1
  44 000a 9A61     		str	r2, [r3, #24]
  45              		.loc 1 75 3 view .LVU4
  46 000c 9A69     		ldr	r2, [r3, #24]
  47 000e 02F00102 		and	r2, r2, #1
  48 0012 0092     		str	r2, [sp]
  49              		.loc 1 75 3 view .LVU5
  50 0014 009A     		ldr	r2, [sp]
  51              	.LBE2:
  52              		.loc 1 75 3 view .LVU6
  76:Core/Src/stm32f3xx_hal_msp.c ****   __HAL_RCC_PWR_CLK_ENABLE();
  53              		.loc 1 76 3 view .LVU7
  54              	.LBB3:
  55              		.loc 1 76 3 view .LVU8
  56              		.loc 1 76 3 view .LVU9
  57 0016 DA69     		ldr	r2, [r3, #28]
  58 0018 42F08052 		orr	r2, r2, #268435456
  59 001c DA61     		str	r2, [r3, #28]
  60              		.loc 1 76 3 view .LVU10
  61 001e DB69     		ldr	r3, [r3, #28]
  62 0020 03F08053 		and	r3, r3, #268435456
  63 0024 0193     		str	r3, [sp, #4]
  64              		.loc 1 76 3 view .LVU11
  65 0026 019B     		ldr	r3, [sp, #4]
  66              	.LBE3:
  67              		.loc 1 76 3 view .LVU12
  77:Core/Src/stm32f3xx_hal_msp.c **** 
  78:Core/Src/stm32f3xx_hal_msp.c ****   /* System interrupt init*/
  79:Core/Src/stm32f3xx_hal_msp.c **** 
  80:Core/Src/stm32f3xx_hal_msp.c ****   /* USER CODE BEGIN MspInit 1 */
  81:Core/Src/stm32f3xx_hal_msp.c **** 
  82:Core/Src/stm32f3xx_hal_msp.c ****   /* USER CODE END MspInit 1 */
  83:Core/Src/stm32f3xx_hal_msp.c **** }
  68              		.loc 1 83 1 is_stmt 0 view .LVU13
  69 0028 02B0     		add	sp, sp, #8
  70              	.LCFI1:
  71              		.cfi_def_cfa_offset 0
  72              		@ sp needed
  73 002a 7047     		bx	lr
  74              	.L4:
  75              		.align	2
  76              	.L3:
  77 002c 00100240 		.word	1073876992
  78              		.cfi_endproc
  79              	.LFE123:
  81              		.section	.text.HAL_ADC_MspInit,"ax",%progbits
  82              		.align	1
  83              		.global	HAL_ADC_MspInit
  84              		.syntax unified
  85              		.thumb
  86              		.thumb_func
  88              	HAL_ADC_MspInit:
  89              	.LVL0:
  90              	.LFB124:
  84:Core/Src/stm32f3xx_hal_msp.c **** 
ARM GAS  C:\msys64\tmp\ccY9DPQV.s 			page 4


  85:Core/Src/stm32f3xx_hal_msp.c **** static uint32_t HAL_RCC_ADC12_CLK_ENABLED=0;
  86:Core/Src/stm32f3xx_hal_msp.c **** 
  87:Core/Src/stm32f3xx_hal_msp.c **** /**
  88:Core/Src/stm32f3xx_hal_msp.c **** * @brief ADC MSP Initialization
  89:Core/Src/stm32f3xx_hal_msp.c **** * This function configures the hardware resources used in this example
  90:Core/Src/stm32f3xx_hal_msp.c **** * @param hadc: ADC handle pointer
  91:Core/Src/stm32f3xx_hal_msp.c **** * @retval None
  92:Core/Src/stm32f3xx_hal_msp.c **** */
  93:Core/Src/stm32f3xx_hal_msp.c **** void HAL_ADC_MspInit(ADC_HandleTypeDef* hadc)
  94:Core/Src/stm32f3xx_hal_msp.c **** {
  91              		.loc 1 94 1 is_stmt 1 view -0
  92              		.cfi_startproc
  93              		@ args = 0, pretend = 0, frame = 40
  94              		@ frame_needed = 0, uses_anonymous_args = 0
  95              		.loc 1 94 1 is_stmt 0 view .LVU15
  96 0000 10B5     		push	{r4, lr}
  97              	.LCFI2:
  98              		.cfi_def_cfa_offset 8
  99              		.cfi_offset 4, -8
 100              		.cfi_offset 14, -4
 101 0002 8AB0     		sub	sp, sp, #40
 102              	.LCFI3:
 103              		.cfi_def_cfa_offset 48
 104 0004 0446     		mov	r4, r0
  95:Core/Src/stm32f3xx_hal_msp.c ****   GPIO_InitTypeDef GPIO_InitStruct = {0};
 105              		.loc 1 95 3 is_stmt 1 view .LVU16
 106              		.loc 1 95 20 is_stmt 0 view .LVU17
 107 0006 0023     		movs	r3, #0
 108 0008 0593     		str	r3, [sp, #20]
 109 000a 0693     		str	r3, [sp, #24]
 110 000c 0793     		str	r3, [sp, #28]
 111 000e 0893     		str	r3, [sp, #32]
 112 0010 0993     		str	r3, [sp, #36]
  96:Core/Src/stm32f3xx_hal_msp.c ****   if(hadc->Instance==ADC1)
 113              		.loc 1 96 3 is_stmt 1 view .LVU18
 114              		.loc 1 96 10 is_stmt 0 view .LVU19
 115 0012 0368     		ldr	r3, [r0]
 116              		.loc 1 96 5 view .LVU20
 117 0014 B3F1A04F 		cmp	r3, #1342177280
 118 0018 04D0     		beq	.L13
  97:Core/Src/stm32f3xx_hal_msp.c ****   {
  98:Core/Src/stm32f3xx_hal_msp.c ****   /* USER CODE BEGIN ADC1_MspInit 0 */
  99:Core/Src/stm32f3xx_hal_msp.c **** 
 100:Core/Src/stm32f3xx_hal_msp.c ****   /* USER CODE END ADC1_MspInit 0 */
 101:Core/Src/stm32f3xx_hal_msp.c ****     /* Peripheral clock enable */
 102:Core/Src/stm32f3xx_hal_msp.c ****     HAL_RCC_ADC12_CLK_ENABLED++;
 103:Core/Src/stm32f3xx_hal_msp.c ****     if(HAL_RCC_ADC12_CLK_ENABLED==1){
 104:Core/Src/stm32f3xx_hal_msp.c ****       __HAL_RCC_ADC12_CLK_ENABLE();
 105:Core/Src/stm32f3xx_hal_msp.c ****     }
 106:Core/Src/stm32f3xx_hal_msp.c **** 
 107:Core/Src/stm32f3xx_hal_msp.c ****     __HAL_RCC_GPIOA_CLK_ENABLE();
 108:Core/Src/stm32f3xx_hal_msp.c ****     /**ADC1 GPIO Configuration
 109:Core/Src/stm32f3xx_hal_msp.c ****     PA0     ------> ADC1_IN1
 110:Core/Src/stm32f3xx_hal_msp.c ****     PA1     ------> ADC1_IN2
 111:Core/Src/stm32f3xx_hal_msp.c ****     PA2     ------> ADC1_IN3
 112:Core/Src/stm32f3xx_hal_msp.c ****     */
 113:Core/Src/stm32f3xx_hal_msp.c ****     GPIO_InitStruct.Pin = GPIO_PIN_0|GPIO_PIN_1|GPIO_PIN_2;
ARM GAS  C:\msys64\tmp\ccY9DPQV.s 			page 5


 114:Core/Src/stm32f3xx_hal_msp.c ****     GPIO_InitStruct.Mode = GPIO_MODE_ANALOG;
 115:Core/Src/stm32f3xx_hal_msp.c ****     GPIO_InitStruct.Pull = GPIO_NOPULL;
 116:Core/Src/stm32f3xx_hal_msp.c ****     HAL_GPIO_Init(GPIOA, &GPIO_InitStruct);
 117:Core/Src/stm32f3xx_hal_msp.c **** 
 118:Core/Src/stm32f3xx_hal_msp.c ****     /* ADC1 DMA Init */
 119:Core/Src/stm32f3xx_hal_msp.c ****     /* ADC1 Init */
 120:Core/Src/stm32f3xx_hal_msp.c ****     hdma_adc1.Instance = DMA1_Channel1;
 121:Core/Src/stm32f3xx_hal_msp.c ****     hdma_adc1.Init.Direction = DMA_PERIPH_TO_MEMORY;
 122:Core/Src/stm32f3xx_hal_msp.c ****     hdma_adc1.Init.PeriphInc = DMA_PINC_DISABLE;
 123:Core/Src/stm32f3xx_hal_msp.c ****     hdma_adc1.Init.MemInc = DMA_MINC_ENABLE;
 124:Core/Src/stm32f3xx_hal_msp.c ****     hdma_adc1.Init.PeriphDataAlignment = DMA_PDATAALIGN_WORD;
 125:Core/Src/stm32f3xx_hal_msp.c ****     hdma_adc1.Init.MemDataAlignment = DMA_MDATAALIGN_WORD;
 126:Core/Src/stm32f3xx_hal_msp.c ****     hdma_adc1.Init.Mode = DMA_CIRCULAR;
 127:Core/Src/stm32f3xx_hal_msp.c ****     hdma_adc1.Init.Priority = DMA_PRIORITY_LOW;
 128:Core/Src/stm32f3xx_hal_msp.c ****     if (HAL_DMA_Init(&hdma_adc1) != HAL_OK)
 129:Core/Src/stm32f3xx_hal_msp.c ****     {
 130:Core/Src/stm32f3xx_hal_msp.c ****       Error_Handler();
 131:Core/Src/stm32f3xx_hal_msp.c ****     }
 132:Core/Src/stm32f3xx_hal_msp.c **** 
 133:Core/Src/stm32f3xx_hal_msp.c ****     __HAL_LINKDMA(hadc,DMA_Handle,hdma_adc1);
 134:Core/Src/stm32f3xx_hal_msp.c **** 
 135:Core/Src/stm32f3xx_hal_msp.c ****   /* USER CODE BEGIN ADC1_MspInit 1 */
 136:Core/Src/stm32f3xx_hal_msp.c **** 
 137:Core/Src/stm32f3xx_hal_msp.c ****   /* USER CODE END ADC1_MspInit 1 */
 138:Core/Src/stm32f3xx_hal_msp.c ****   }
 139:Core/Src/stm32f3xx_hal_msp.c ****   else if(hadc->Instance==ADC2)
 119              		.loc 1 139 8 is_stmt 1 view .LVU21
 120              		.loc 1 139 10 is_stmt 0 view .LVU22
 121 001a 414A     		ldr	r2, .L19
 122 001c 9342     		cmp	r3, r2
 123 001e 40D0     		beq	.L14
 124              	.LVL1:
 125              	.L5:
 140:Core/Src/stm32f3xx_hal_msp.c ****   {
 141:Core/Src/stm32f3xx_hal_msp.c ****   /* USER CODE BEGIN ADC2_MspInit 0 */
 142:Core/Src/stm32f3xx_hal_msp.c **** 
 143:Core/Src/stm32f3xx_hal_msp.c ****   /* USER CODE END ADC2_MspInit 0 */
 144:Core/Src/stm32f3xx_hal_msp.c ****     /* Peripheral clock enable */
 145:Core/Src/stm32f3xx_hal_msp.c ****     HAL_RCC_ADC12_CLK_ENABLED++;
 146:Core/Src/stm32f3xx_hal_msp.c ****     if(HAL_RCC_ADC12_CLK_ENABLED==1){
 147:Core/Src/stm32f3xx_hal_msp.c ****       __HAL_RCC_ADC12_CLK_ENABLE();
 148:Core/Src/stm32f3xx_hal_msp.c ****     }
 149:Core/Src/stm32f3xx_hal_msp.c **** 
 150:Core/Src/stm32f3xx_hal_msp.c ****     __HAL_RCC_GPIOC_CLK_ENABLE();
 151:Core/Src/stm32f3xx_hal_msp.c ****     /**ADC2 GPIO Configuration
 152:Core/Src/stm32f3xx_hal_msp.c ****     PC1     ------> ADC2_IN7
 153:Core/Src/stm32f3xx_hal_msp.c ****     PC2     ------> ADC2_IN8
 154:Core/Src/stm32f3xx_hal_msp.c ****     PC3     ------> ADC2_IN9
 155:Core/Src/stm32f3xx_hal_msp.c ****     */
 156:Core/Src/stm32f3xx_hal_msp.c ****     GPIO_InitStruct.Pin = GPIO_PIN_1|GPIO_PIN_2|GPIO_PIN_3;
 157:Core/Src/stm32f3xx_hal_msp.c ****     GPIO_InitStruct.Mode = GPIO_MODE_ANALOG;
 158:Core/Src/stm32f3xx_hal_msp.c ****     GPIO_InitStruct.Pull = GPIO_NOPULL;
 159:Core/Src/stm32f3xx_hal_msp.c ****     HAL_GPIO_Init(GPIOC, &GPIO_InitStruct);
 160:Core/Src/stm32f3xx_hal_msp.c **** 
 161:Core/Src/stm32f3xx_hal_msp.c ****     /* ADC2 DMA Init */
 162:Core/Src/stm32f3xx_hal_msp.c ****     /* ADC2 Init */
 163:Core/Src/stm32f3xx_hal_msp.c ****     hdma_adc2.Instance = DMA1_Channel2;
ARM GAS  C:\msys64\tmp\ccY9DPQV.s 			page 6


 164:Core/Src/stm32f3xx_hal_msp.c ****     hdma_adc2.Init.Direction = DMA_PERIPH_TO_MEMORY;
 165:Core/Src/stm32f3xx_hal_msp.c ****     hdma_adc2.Init.PeriphInc = DMA_PINC_DISABLE;
 166:Core/Src/stm32f3xx_hal_msp.c ****     hdma_adc2.Init.MemInc = DMA_MINC_ENABLE;
 167:Core/Src/stm32f3xx_hal_msp.c ****     hdma_adc2.Init.PeriphDataAlignment = DMA_PDATAALIGN_WORD;
 168:Core/Src/stm32f3xx_hal_msp.c ****     hdma_adc2.Init.MemDataAlignment = DMA_MDATAALIGN_WORD;
 169:Core/Src/stm32f3xx_hal_msp.c ****     hdma_adc2.Init.Mode = DMA_CIRCULAR;
 170:Core/Src/stm32f3xx_hal_msp.c ****     hdma_adc2.Init.Priority = DMA_PRIORITY_LOW;
 171:Core/Src/stm32f3xx_hal_msp.c ****     if (HAL_DMA_Init(&hdma_adc2) != HAL_OK)
 172:Core/Src/stm32f3xx_hal_msp.c ****     {
 173:Core/Src/stm32f3xx_hal_msp.c ****       Error_Handler();
 174:Core/Src/stm32f3xx_hal_msp.c ****     }
 175:Core/Src/stm32f3xx_hal_msp.c **** 
 176:Core/Src/stm32f3xx_hal_msp.c ****     __HAL_LINKDMA(hadc,DMA_Handle,hdma_adc2);
 177:Core/Src/stm32f3xx_hal_msp.c **** 
 178:Core/Src/stm32f3xx_hal_msp.c ****   /* USER CODE BEGIN ADC2_MspInit 1 */
 179:Core/Src/stm32f3xx_hal_msp.c **** 
 180:Core/Src/stm32f3xx_hal_msp.c ****   /* USER CODE END ADC2_MspInit 1 */
 181:Core/Src/stm32f3xx_hal_msp.c ****   }
 182:Core/Src/stm32f3xx_hal_msp.c **** 
 183:Core/Src/stm32f3xx_hal_msp.c **** }
 126              		.loc 1 183 1 view .LVU23
 127 0020 0AB0     		add	sp, sp, #40
 128              	.LCFI4:
 129              		.cfi_remember_state
 130              		.cfi_def_cfa_offset 8
 131              		@ sp needed
 132 0022 10BD     		pop	{r4, pc}
 133              	.LVL2:
 134              	.L13:
 135              	.LCFI5:
 136              		.cfi_restore_state
 102:Core/Src/stm32f3xx_hal_msp.c ****     if(HAL_RCC_ADC12_CLK_ENABLED==1){
 137              		.loc 1 102 5 is_stmt 1 view .LVU24
 102:Core/Src/stm32f3xx_hal_msp.c ****     if(HAL_RCC_ADC12_CLK_ENABLED==1){
 138              		.loc 1 102 30 is_stmt 0 view .LVU25
 139 0024 3F4A     		ldr	r2, .L19+4
 140 0026 1368     		ldr	r3, [r2]
 141 0028 0133     		adds	r3, r3, #1
 142 002a 1360     		str	r3, [r2]
 103:Core/Src/stm32f3xx_hal_msp.c ****       __HAL_RCC_ADC12_CLK_ENABLE();
 143              		.loc 1 103 5 is_stmt 1 view .LVU26
 103:Core/Src/stm32f3xx_hal_msp.c ****       __HAL_RCC_ADC12_CLK_ENABLE();
 144              		.loc 1 103 7 is_stmt 0 view .LVU27
 145 002c 012B     		cmp	r3, #1
 146 002e 2AD0     		beq	.L15
 147              	.L7:
 104:Core/Src/stm32f3xx_hal_msp.c ****     }
 148              		.loc 1 104 7 is_stmt 1 discriminator 1 view .LVU28
 107:Core/Src/stm32f3xx_hal_msp.c ****     /**ADC1 GPIO Configuration
 149              		.loc 1 107 5 view .LVU29
 150              	.LBB4:
 107:Core/Src/stm32f3xx_hal_msp.c ****     /**ADC1 GPIO Configuration
 151              		.loc 1 107 5 view .LVU30
 107:Core/Src/stm32f3xx_hal_msp.c ****     /**ADC1 GPIO Configuration
 152              		.loc 1 107 5 view .LVU31
 153 0030 3D4B     		ldr	r3, .L19+8
 154 0032 5A69     		ldr	r2, [r3, #20]
ARM GAS  C:\msys64\tmp\ccY9DPQV.s 			page 7


 155 0034 42F40032 		orr	r2, r2, #131072
 156 0038 5A61     		str	r2, [r3, #20]
 107:Core/Src/stm32f3xx_hal_msp.c ****     /**ADC1 GPIO Configuration
 157              		.loc 1 107 5 view .LVU32
 158 003a 5B69     		ldr	r3, [r3, #20]
 159 003c 03F40033 		and	r3, r3, #131072
 160 0040 0293     		str	r3, [sp, #8]
 107:Core/Src/stm32f3xx_hal_msp.c ****     /**ADC1 GPIO Configuration
 161              		.loc 1 107 5 view .LVU33
 162 0042 029B     		ldr	r3, [sp, #8]
 163              	.LBE4:
 107:Core/Src/stm32f3xx_hal_msp.c ****     /**ADC1 GPIO Configuration
 164              		.loc 1 107 5 view .LVU34
 113:Core/Src/stm32f3xx_hal_msp.c ****     GPIO_InitStruct.Mode = GPIO_MODE_ANALOG;
 165              		.loc 1 113 5 view .LVU35
 113:Core/Src/stm32f3xx_hal_msp.c ****     GPIO_InitStruct.Mode = GPIO_MODE_ANALOG;
 166              		.loc 1 113 25 is_stmt 0 view .LVU36
 167 0044 0723     		movs	r3, #7
 168 0046 0593     		str	r3, [sp, #20]
 114:Core/Src/stm32f3xx_hal_msp.c ****     GPIO_InitStruct.Pull = GPIO_NOPULL;
 169              		.loc 1 114 5 is_stmt 1 view .LVU37
 114:Core/Src/stm32f3xx_hal_msp.c ****     GPIO_InitStruct.Pull = GPIO_NOPULL;
 170              		.loc 1 114 26 is_stmt 0 view .LVU38
 171 0048 0323     		movs	r3, #3
 172 004a 0693     		str	r3, [sp, #24]
 115:Core/Src/stm32f3xx_hal_msp.c ****     HAL_GPIO_Init(GPIOA, &GPIO_InitStruct);
 173              		.loc 1 115 5 is_stmt 1 view .LVU39
 116:Core/Src/stm32f3xx_hal_msp.c **** 
 174              		.loc 1 116 5 view .LVU40
 175 004c 05A9     		add	r1, sp, #20
 176 004e 4FF09040 		mov	r0, #1207959552
 177              	.LVL3:
 116:Core/Src/stm32f3xx_hal_msp.c **** 
 178              		.loc 1 116 5 is_stmt 0 view .LVU41
 179 0052 FFF7FEFF 		bl	HAL_GPIO_Init
 180              	.LVL4:
 120:Core/Src/stm32f3xx_hal_msp.c ****     hdma_adc1.Init.Direction = DMA_PERIPH_TO_MEMORY;
 181              		.loc 1 120 5 is_stmt 1 view .LVU42
 120:Core/Src/stm32f3xx_hal_msp.c ****     hdma_adc1.Init.Direction = DMA_PERIPH_TO_MEMORY;
 182              		.loc 1 120 24 is_stmt 0 view .LVU43
 183 0056 3548     		ldr	r0, .L19+12
 184 0058 354B     		ldr	r3, .L19+16
 185 005a 0360     		str	r3, [r0]
 121:Core/Src/stm32f3xx_hal_msp.c ****     hdma_adc1.Init.PeriphInc = DMA_PINC_DISABLE;
 186              		.loc 1 121 5 is_stmt 1 view .LVU44
 121:Core/Src/stm32f3xx_hal_msp.c ****     hdma_adc1.Init.PeriphInc = DMA_PINC_DISABLE;
 187              		.loc 1 121 30 is_stmt 0 view .LVU45
 188 005c 0023     		movs	r3, #0
 189 005e 4360     		str	r3, [r0, #4]
 122:Core/Src/stm32f3xx_hal_msp.c ****     hdma_adc1.Init.MemInc = DMA_MINC_ENABLE;
 190              		.loc 1 122 5 is_stmt 1 view .LVU46
 122:Core/Src/stm32f3xx_hal_msp.c ****     hdma_adc1.Init.MemInc = DMA_MINC_ENABLE;
 191              		.loc 1 122 30 is_stmt 0 view .LVU47
 192 0060 8360     		str	r3, [r0, #8]
 123:Core/Src/stm32f3xx_hal_msp.c ****     hdma_adc1.Init.PeriphDataAlignment = DMA_PDATAALIGN_WORD;
 193              		.loc 1 123 5 is_stmt 1 view .LVU48
 123:Core/Src/stm32f3xx_hal_msp.c ****     hdma_adc1.Init.PeriphDataAlignment = DMA_PDATAALIGN_WORD;
ARM GAS  C:\msys64\tmp\ccY9DPQV.s 			page 8


 194              		.loc 1 123 27 is_stmt 0 view .LVU49
 195 0062 8022     		movs	r2, #128
 196 0064 C260     		str	r2, [r0, #12]
 124:Core/Src/stm32f3xx_hal_msp.c ****     hdma_adc1.Init.MemDataAlignment = DMA_MDATAALIGN_WORD;
 197              		.loc 1 124 5 is_stmt 1 view .LVU50
 124:Core/Src/stm32f3xx_hal_msp.c ****     hdma_adc1.Init.MemDataAlignment = DMA_MDATAALIGN_WORD;
 198              		.loc 1 124 40 is_stmt 0 view .LVU51
 199 0066 4FF40072 		mov	r2, #512
 200 006a 0261     		str	r2, [r0, #16]
 125:Core/Src/stm32f3xx_hal_msp.c ****     hdma_adc1.Init.Mode = DMA_CIRCULAR;
 201              		.loc 1 125 5 is_stmt 1 view .LVU52
 125:Core/Src/stm32f3xx_hal_msp.c ****     hdma_adc1.Init.Mode = DMA_CIRCULAR;
 202              		.loc 1 125 37 is_stmt 0 view .LVU53
 203 006c 4FF40062 		mov	r2, #2048
 204 0070 4261     		str	r2, [r0, #20]
 126:Core/Src/stm32f3xx_hal_msp.c ****     hdma_adc1.Init.Priority = DMA_PRIORITY_LOW;
 205              		.loc 1 126 5 is_stmt 1 view .LVU54
 126:Core/Src/stm32f3xx_hal_msp.c ****     hdma_adc1.Init.Priority = DMA_PRIORITY_LOW;
 206              		.loc 1 126 25 is_stmt 0 view .LVU55
 207 0072 2022     		movs	r2, #32
 208 0074 8261     		str	r2, [r0, #24]
 127:Core/Src/stm32f3xx_hal_msp.c ****     if (HAL_DMA_Init(&hdma_adc1) != HAL_OK)
 209              		.loc 1 127 5 is_stmt 1 view .LVU56
 127:Core/Src/stm32f3xx_hal_msp.c ****     if (HAL_DMA_Init(&hdma_adc1) != HAL_OK)
 210              		.loc 1 127 29 is_stmt 0 view .LVU57
 211 0076 C361     		str	r3, [r0, #28]
 128:Core/Src/stm32f3xx_hal_msp.c ****     {
 212              		.loc 1 128 5 is_stmt 1 view .LVU58
 128:Core/Src/stm32f3xx_hal_msp.c ****     {
 213              		.loc 1 128 9 is_stmt 0 view .LVU59
 214 0078 FFF7FEFF 		bl	HAL_DMA_Init
 215              	.LVL5:
 128:Core/Src/stm32f3xx_hal_msp.c ****     {
 216              		.loc 1 128 8 discriminator 1 view .LVU60
 217 007c 70B9     		cbnz	r0, .L16
 218              	.L8:
 133:Core/Src/stm32f3xx_hal_msp.c **** 
 219              		.loc 1 133 5 is_stmt 1 view .LVU61
 133:Core/Src/stm32f3xx_hal_msp.c **** 
 220              		.loc 1 133 5 view .LVU62
 221 007e 2B4B     		ldr	r3, .L19+12
 222 0080 A363     		str	r3, [r4, #56]
 133:Core/Src/stm32f3xx_hal_msp.c **** 
 223              		.loc 1 133 5 view .LVU63
 224 0082 5C62     		str	r4, [r3, #36]
 133:Core/Src/stm32f3xx_hal_msp.c **** 
 225              		.loc 1 133 5 view .LVU64
 226 0084 CCE7     		b	.L5
 227              	.LVL6:
 228              	.L15:
 104:Core/Src/stm32f3xx_hal_msp.c ****     }
 229              		.loc 1 104 7 view .LVU65
 230              	.LBB5:
 104:Core/Src/stm32f3xx_hal_msp.c ****     }
 231              		.loc 1 104 7 view .LVU66
 104:Core/Src/stm32f3xx_hal_msp.c ****     }
 232              		.loc 1 104 7 view .LVU67
ARM GAS  C:\msys64\tmp\ccY9DPQV.s 			page 9


 233 0086 284B     		ldr	r3, .L19+8
 234 0088 5A69     		ldr	r2, [r3, #20]
 235 008a 42F08052 		orr	r2, r2, #268435456
 236 008e 5A61     		str	r2, [r3, #20]
 104:Core/Src/stm32f3xx_hal_msp.c ****     }
 237              		.loc 1 104 7 view .LVU68
 238 0090 5B69     		ldr	r3, [r3, #20]
 239 0092 03F08053 		and	r3, r3, #268435456
 240 0096 0193     		str	r3, [sp, #4]
 104:Core/Src/stm32f3xx_hal_msp.c ****     }
 241              		.loc 1 104 7 view .LVU69
 242 0098 019B     		ldr	r3, [sp, #4]
 243 009a C9E7     		b	.L7
 244              	.LVL7:
 245              	.L16:
 104:Core/Src/stm32f3xx_hal_msp.c ****     }
 246              		.loc 1 104 7 is_stmt 0 view .LVU70
 247              	.LBE5:
 130:Core/Src/stm32f3xx_hal_msp.c ****     }
 248              		.loc 1 130 7 is_stmt 1 view .LVU71
 249 009c FFF7FEFF 		bl	Error_Handler
 250              	.LVL8:
 251 00a0 EDE7     		b	.L8
 252              	.LVL9:
 253              	.L14:
 145:Core/Src/stm32f3xx_hal_msp.c ****     if(HAL_RCC_ADC12_CLK_ENABLED==1){
 254              		.loc 1 145 5 view .LVU72
 145:Core/Src/stm32f3xx_hal_msp.c ****     if(HAL_RCC_ADC12_CLK_ENABLED==1){
 255              		.loc 1 145 30 is_stmt 0 view .LVU73
 256 00a2 204A     		ldr	r2, .L19+4
 257 00a4 1368     		ldr	r3, [r2]
 258 00a6 0133     		adds	r3, r3, #1
 259 00a8 1360     		str	r3, [r2]
 146:Core/Src/stm32f3xx_hal_msp.c ****       __HAL_RCC_ADC12_CLK_ENABLE();
 260              		.loc 1 146 5 is_stmt 1 view .LVU74
 146:Core/Src/stm32f3xx_hal_msp.c ****       __HAL_RCC_ADC12_CLK_ENABLE();
 261              		.loc 1 146 7 is_stmt 0 view .LVU75
 262 00aa 012B     		cmp	r3, #1
 263 00ac 29D0     		beq	.L17
 264              	.L10:
 147:Core/Src/stm32f3xx_hal_msp.c ****     }
 265              		.loc 1 147 7 is_stmt 1 discriminator 1 view .LVU76
 150:Core/Src/stm32f3xx_hal_msp.c ****     /**ADC2 GPIO Configuration
 266              		.loc 1 150 5 view .LVU77
 267              	.LBB6:
 150:Core/Src/stm32f3xx_hal_msp.c ****     /**ADC2 GPIO Configuration
 268              		.loc 1 150 5 view .LVU78
 150:Core/Src/stm32f3xx_hal_msp.c ****     /**ADC2 GPIO Configuration
 269              		.loc 1 150 5 view .LVU79
 270 00ae 1E4B     		ldr	r3, .L19+8
 271 00b0 5A69     		ldr	r2, [r3, #20]
 272 00b2 42F40022 		orr	r2, r2, #524288
 273 00b6 5A61     		str	r2, [r3, #20]
 150:Core/Src/stm32f3xx_hal_msp.c ****     /**ADC2 GPIO Configuration
 274              		.loc 1 150 5 view .LVU80
 275 00b8 5B69     		ldr	r3, [r3, #20]
 276 00ba 03F40023 		and	r3, r3, #524288
ARM GAS  C:\msys64\tmp\ccY9DPQV.s 			page 10


 277 00be 0493     		str	r3, [sp, #16]
 150:Core/Src/stm32f3xx_hal_msp.c ****     /**ADC2 GPIO Configuration
 278              		.loc 1 150 5 view .LVU81
 279 00c0 049B     		ldr	r3, [sp, #16]
 280              	.LBE6:
 150:Core/Src/stm32f3xx_hal_msp.c ****     /**ADC2 GPIO Configuration
 281              		.loc 1 150 5 view .LVU82
 156:Core/Src/stm32f3xx_hal_msp.c ****     GPIO_InitStruct.Mode = GPIO_MODE_ANALOG;
 282              		.loc 1 156 5 view .LVU83
 156:Core/Src/stm32f3xx_hal_msp.c ****     GPIO_InitStruct.Mode = GPIO_MODE_ANALOG;
 283              		.loc 1 156 25 is_stmt 0 view .LVU84
 284 00c2 0E23     		movs	r3, #14
 285 00c4 0593     		str	r3, [sp, #20]
 157:Core/Src/stm32f3xx_hal_msp.c ****     GPIO_InitStruct.Pull = GPIO_NOPULL;
 286              		.loc 1 157 5 is_stmt 1 view .LVU85
 157:Core/Src/stm32f3xx_hal_msp.c ****     GPIO_InitStruct.Pull = GPIO_NOPULL;
 287              		.loc 1 157 26 is_stmt 0 view .LVU86
 288 00c6 0323     		movs	r3, #3
 289 00c8 0693     		str	r3, [sp, #24]
 158:Core/Src/stm32f3xx_hal_msp.c ****     HAL_GPIO_Init(GPIOC, &GPIO_InitStruct);
 290              		.loc 1 158 5 is_stmt 1 view .LVU87
 159:Core/Src/stm32f3xx_hal_msp.c **** 
 291              		.loc 1 159 5 view .LVU88
 292 00ca 05A9     		add	r1, sp, #20
 293 00cc 1948     		ldr	r0, .L19+20
 294              	.LVL10:
 159:Core/Src/stm32f3xx_hal_msp.c **** 
 295              		.loc 1 159 5 is_stmt 0 view .LVU89
 296 00ce FFF7FEFF 		bl	HAL_GPIO_Init
 297              	.LVL11:
 163:Core/Src/stm32f3xx_hal_msp.c ****     hdma_adc2.Init.Direction = DMA_PERIPH_TO_MEMORY;
 298              		.loc 1 163 5 is_stmt 1 view .LVU90
 163:Core/Src/stm32f3xx_hal_msp.c ****     hdma_adc2.Init.Direction = DMA_PERIPH_TO_MEMORY;
 299              		.loc 1 163 24 is_stmt 0 view .LVU91
 300 00d2 1948     		ldr	r0, .L19+24
 301 00d4 194B     		ldr	r3, .L19+28
 302 00d6 0360     		str	r3, [r0]
 164:Core/Src/stm32f3xx_hal_msp.c ****     hdma_adc2.Init.PeriphInc = DMA_PINC_DISABLE;
 303              		.loc 1 164 5 is_stmt 1 view .LVU92
 164:Core/Src/stm32f3xx_hal_msp.c ****     hdma_adc2.Init.PeriphInc = DMA_PINC_DISABLE;
 304              		.loc 1 164 30 is_stmt 0 view .LVU93
 305 00d8 0023     		movs	r3, #0
 306 00da 4360     		str	r3, [r0, #4]
 165:Core/Src/stm32f3xx_hal_msp.c ****     hdma_adc2.Init.MemInc = DMA_MINC_ENABLE;
 307              		.loc 1 165 5 is_stmt 1 view .LVU94
 165:Core/Src/stm32f3xx_hal_msp.c ****     hdma_adc2.Init.MemInc = DMA_MINC_ENABLE;
 308              		.loc 1 165 30 is_stmt 0 view .LVU95
 309 00dc 8360     		str	r3, [r0, #8]
 166:Core/Src/stm32f3xx_hal_msp.c ****     hdma_adc2.Init.PeriphDataAlignment = DMA_PDATAALIGN_WORD;
 310              		.loc 1 166 5 is_stmt 1 view .LVU96
 166:Core/Src/stm32f3xx_hal_msp.c ****     hdma_adc2.Init.PeriphDataAlignment = DMA_PDATAALIGN_WORD;
 311              		.loc 1 166 27 is_stmt 0 view .LVU97
 312 00de 8022     		movs	r2, #128
 313 00e0 C260     		str	r2, [r0, #12]
 167:Core/Src/stm32f3xx_hal_msp.c ****     hdma_adc2.Init.MemDataAlignment = DMA_MDATAALIGN_WORD;
 314              		.loc 1 167 5 is_stmt 1 view .LVU98
 167:Core/Src/stm32f3xx_hal_msp.c ****     hdma_adc2.Init.MemDataAlignment = DMA_MDATAALIGN_WORD;
ARM GAS  C:\msys64\tmp\ccY9DPQV.s 			page 11


 315              		.loc 1 167 40 is_stmt 0 view .LVU99
 316 00e2 4FF40072 		mov	r2, #512
 317 00e6 0261     		str	r2, [r0, #16]
 168:Core/Src/stm32f3xx_hal_msp.c ****     hdma_adc2.Init.Mode = DMA_CIRCULAR;
 318              		.loc 1 168 5 is_stmt 1 view .LVU100
 168:Core/Src/stm32f3xx_hal_msp.c ****     hdma_adc2.Init.Mode = DMA_CIRCULAR;
 319              		.loc 1 168 37 is_stmt 0 view .LVU101
 320 00e8 4FF40062 		mov	r2, #2048
 321 00ec 4261     		str	r2, [r0, #20]
 169:Core/Src/stm32f3xx_hal_msp.c ****     hdma_adc2.Init.Priority = DMA_PRIORITY_LOW;
 322              		.loc 1 169 5 is_stmt 1 view .LVU102
 169:Core/Src/stm32f3xx_hal_msp.c ****     hdma_adc2.Init.Priority = DMA_PRIORITY_LOW;
 323              		.loc 1 169 25 is_stmt 0 view .LVU103
 324 00ee 2022     		movs	r2, #32
 325 00f0 8261     		str	r2, [r0, #24]
 170:Core/Src/stm32f3xx_hal_msp.c ****     if (HAL_DMA_Init(&hdma_adc2) != HAL_OK)
 326              		.loc 1 170 5 is_stmt 1 view .LVU104
 170:Core/Src/stm32f3xx_hal_msp.c ****     if (HAL_DMA_Init(&hdma_adc2) != HAL_OK)
 327              		.loc 1 170 29 is_stmt 0 view .LVU105
 328 00f2 C361     		str	r3, [r0, #28]
 171:Core/Src/stm32f3xx_hal_msp.c ****     {
 329              		.loc 1 171 5 is_stmt 1 view .LVU106
 171:Core/Src/stm32f3xx_hal_msp.c ****     {
 330              		.loc 1 171 9 is_stmt 0 view .LVU107
 331 00f4 FFF7FEFF 		bl	HAL_DMA_Init
 332              	.LVL12:
 171:Core/Src/stm32f3xx_hal_msp.c ****     {
 333              		.loc 1 171 8 discriminator 1 view .LVU108
 334 00f8 70B9     		cbnz	r0, .L18
 335              	.L11:
 176:Core/Src/stm32f3xx_hal_msp.c **** 
 336              		.loc 1 176 5 is_stmt 1 view .LVU109
 176:Core/Src/stm32f3xx_hal_msp.c **** 
 337              		.loc 1 176 5 view .LVU110
 338 00fa 0F4B     		ldr	r3, .L19+24
 339 00fc A363     		str	r3, [r4, #56]
 176:Core/Src/stm32f3xx_hal_msp.c **** 
 340              		.loc 1 176 5 view .LVU111
 341 00fe 5C62     		str	r4, [r3, #36]
 176:Core/Src/stm32f3xx_hal_msp.c **** 
 342              		.loc 1 176 5 discriminator 1 view .LVU112
 343              		.loc 1 183 1 is_stmt 0 view .LVU113
 344 0100 8EE7     		b	.L5
 345              	.LVL13:
 346              	.L17:
 147:Core/Src/stm32f3xx_hal_msp.c ****     }
 347              		.loc 1 147 7 is_stmt 1 view .LVU114
 348              	.LBB7:
 147:Core/Src/stm32f3xx_hal_msp.c ****     }
 349              		.loc 1 147 7 view .LVU115
 147:Core/Src/stm32f3xx_hal_msp.c ****     }
 350              		.loc 1 147 7 view .LVU116
 351 0102 094B     		ldr	r3, .L19+8
 352 0104 5A69     		ldr	r2, [r3, #20]
 353 0106 42F08052 		orr	r2, r2, #268435456
 354 010a 5A61     		str	r2, [r3, #20]
 147:Core/Src/stm32f3xx_hal_msp.c ****     }
ARM GAS  C:\msys64\tmp\ccY9DPQV.s 			page 12


 355              		.loc 1 147 7 view .LVU117
 356 010c 5B69     		ldr	r3, [r3, #20]
 357 010e 03F08053 		and	r3, r3, #268435456
 358 0112 0393     		str	r3, [sp, #12]
 147:Core/Src/stm32f3xx_hal_msp.c ****     }
 359              		.loc 1 147 7 view .LVU118
 360 0114 039B     		ldr	r3, [sp, #12]
 361 0116 CAE7     		b	.L10
 362              	.LVL14:
 363              	.L18:
 147:Core/Src/stm32f3xx_hal_msp.c ****     }
 364              		.loc 1 147 7 is_stmt 0 view .LVU119
 365              	.LBE7:
 173:Core/Src/stm32f3xx_hal_msp.c ****     }
 366              		.loc 1 173 7 is_stmt 1 view .LVU120
 367 0118 FFF7FEFF 		bl	Error_Handler
 368              	.LVL15:
 369 011c EDE7     		b	.L11
 370              	.L20:
 371 011e 00BF     		.align	2
 372              	.L19:
 373 0120 00010050 		.word	1342177536
 374 0124 00000000 		.word	HAL_RCC_ADC12_CLK_ENABLED
 375 0128 00100240 		.word	1073876992
 376 012c 00000000 		.word	hdma_adc1
 377 0130 08000240 		.word	1073872904
 378 0134 00080048 		.word	1207961600
 379 0138 00000000 		.word	hdma_adc2
 380 013c 1C000240 		.word	1073872924
 381              		.cfi_endproc
 382              	.LFE124:
 384              		.section	.text.HAL_ADC_MspDeInit,"ax",%progbits
 385              		.align	1
 386              		.global	HAL_ADC_MspDeInit
 387              		.syntax unified
 388              		.thumb
 389              		.thumb_func
 391              	HAL_ADC_MspDeInit:
 392              	.LVL16:
 393              	.LFB125:
 184:Core/Src/stm32f3xx_hal_msp.c **** 
 185:Core/Src/stm32f3xx_hal_msp.c **** /**
 186:Core/Src/stm32f3xx_hal_msp.c **** * @brief ADC MSP De-Initialization
 187:Core/Src/stm32f3xx_hal_msp.c **** * This function freeze the hardware resources used in this example
 188:Core/Src/stm32f3xx_hal_msp.c **** * @param hadc: ADC handle pointer
 189:Core/Src/stm32f3xx_hal_msp.c **** * @retval None
 190:Core/Src/stm32f3xx_hal_msp.c **** */
 191:Core/Src/stm32f3xx_hal_msp.c **** void HAL_ADC_MspDeInit(ADC_HandleTypeDef* hadc)
 192:Core/Src/stm32f3xx_hal_msp.c **** {
 394              		.loc 1 192 1 view -0
 395              		.cfi_startproc
 396              		@ args = 0, pretend = 0, frame = 0
 397              		@ frame_needed = 0, uses_anonymous_args = 0
 398              		.loc 1 192 1 is_stmt 0 view .LVU122
 399 0000 10B5     		push	{r4, lr}
 400              	.LCFI6:
 401              		.cfi_def_cfa_offset 8
ARM GAS  C:\msys64\tmp\ccY9DPQV.s 			page 13


 402              		.cfi_offset 4, -8
 403              		.cfi_offset 14, -4
 404 0002 0446     		mov	r4, r0
 193:Core/Src/stm32f3xx_hal_msp.c ****   if(hadc->Instance==ADC1)
 405              		.loc 1 193 3 is_stmt 1 view .LVU123
 406              		.loc 1 193 10 is_stmt 0 view .LVU124
 407 0004 0368     		ldr	r3, [r0]
 408              		.loc 1 193 5 view .LVU125
 409 0006 B3F1A04F 		cmp	r3, #1342177280
 410 000a 03D0     		beq	.L27
 194:Core/Src/stm32f3xx_hal_msp.c ****   {
 195:Core/Src/stm32f3xx_hal_msp.c ****   /* USER CODE BEGIN ADC1_MspDeInit 0 */
 196:Core/Src/stm32f3xx_hal_msp.c **** 
 197:Core/Src/stm32f3xx_hal_msp.c ****   /* USER CODE END ADC1_MspDeInit 0 */
 198:Core/Src/stm32f3xx_hal_msp.c ****     /* Peripheral clock disable */
 199:Core/Src/stm32f3xx_hal_msp.c ****     HAL_RCC_ADC12_CLK_ENABLED--;
 200:Core/Src/stm32f3xx_hal_msp.c ****     if(HAL_RCC_ADC12_CLK_ENABLED==0){
 201:Core/Src/stm32f3xx_hal_msp.c ****       __HAL_RCC_ADC12_CLK_DISABLE();
 202:Core/Src/stm32f3xx_hal_msp.c ****     }
 203:Core/Src/stm32f3xx_hal_msp.c **** 
 204:Core/Src/stm32f3xx_hal_msp.c ****     /**ADC1 GPIO Configuration
 205:Core/Src/stm32f3xx_hal_msp.c ****     PA0     ------> ADC1_IN1
 206:Core/Src/stm32f3xx_hal_msp.c ****     PA1     ------> ADC1_IN2
 207:Core/Src/stm32f3xx_hal_msp.c ****     PA2     ------> ADC1_IN3
 208:Core/Src/stm32f3xx_hal_msp.c ****     */
 209:Core/Src/stm32f3xx_hal_msp.c ****     HAL_GPIO_DeInit(GPIOA, GPIO_PIN_0|GPIO_PIN_1|GPIO_PIN_2);
 210:Core/Src/stm32f3xx_hal_msp.c **** 
 211:Core/Src/stm32f3xx_hal_msp.c ****     /* ADC1 DMA DeInit */
 212:Core/Src/stm32f3xx_hal_msp.c ****     HAL_DMA_DeInit(hadc->DMA_Handle);
 213:Core/Src/stm32f3xx_hal_msp.c ****   /* USER CODE BEGIN ADC1_MspDeInit 1 */
 214:Core/Src/stm32f3xx_hal_msp.c **** 
 215:Core/Src/stm32f3xx_hal_msp.c ****   /* USER CODE END ADC1_MspDeInit 1 */
 216:Core/Src/stm32f3xx_hal_msp.c ****   }
 217:Core/Src/stm32f3xx_hal_msp.c ****   else if(hadc->Instance==ADC2)
 411              		.loc 1 217 8 is_stmt 1 view .LVU126
 412              		.loc 1 217 10 is_stmt 0 view .LVU127
 413 000c 144A     		ldr	r2, .L29
 414 000e 9342     		cmp	r3, r2
 415 0010 13D0     		beq	.L28
 416              	.LVL17:
 417              	.L21:
 218:Core/Src/stm32f3xx_hal_msp.c ****   {
 219:Core/Src/stm32f3xx_hal_msp.c ****   /* USER CODE BEGIN ADC2_MspDeInit 0 */
 220:Core/Src/stm32f3xx_hal_msp.c **** 
 221:Core/Src/stm32f3xx_hal_msp.c ****   /* USER CODE END ADC2_MspDeInit 0 */
 222:Core/Src/stm32f3xx_hal_msp.c ****     /* Peripheral clock disable */
 223:Core/Src/stm32f3xx_hal_msp.c ****     HAL_RCC_ADC12_CLK_ENABLED--;
 224:Core/Src/stm32f3xx_hal_msp.c ****     if(HAL_RCC_ADC12_CLK_ENABLED==0){
 225:Core/Src/stm32f3xx_hal_msp.c ****       __HAL_RCC_ADC12_CLK_DISABLE();
 226:Core/Src/stm32f3xx_hal_msp.c ****     }
 227:Core/Src/stm32f3xx_hal_msp.c **** 
 228:Core/Src/stm32f3xx_hal_msp.c ****     /**ADC2 GPIO Configuration
 229:Core/Src/stm32f3xx_hal_msp.c ****     PC1     ------> ADC2_IN7
 230:Core/Src/stm32f3xx_hal_msp.c ****     PC2     ------> ADC2_IN8
 231:Core/Src/stm32f3xx_hal_msp.c ****     PC3     ------> ADC2_IN9
 232:Core/Src/stm32f3xx_hal_msp.c ****     */
 233:Core/Src/stm32f3xx_hal_msp.c ****     HAL_GPIO_DeInit(GPIOC, GPIO_PIN_1|GPIO_PIN_2|GPIO_PIN_3);
ARM GAS  C:\msys64\tmp\ccY9DPQV.s 			page 14


 234:Core/Src/stm32f3xx_hal_msp.c **** 
 235:Core/Src/stm32f3xx_hal_msp.c ****     /* ADC2 DMA DeInit */
 236:Core/Src/stm32f3xx_hal_msp.c ****     HAL_DMA_DeInit(hadc->DMA_Handle);
 237:Core/Src/stm32f3xx_hal_msp.c ****   /* USER CODE BEGIN ADC2_MspDeInit 1 */
 238:Core/Src/stm32f3xx_hal_msp.c **** 
 239:Core/Src/stm32f3xx_hal_msp.c ****   /* USER CODE END ADC2_MspDeInit 1 */
 240:Core/Src/stm32f3xx_hal_msp.c ****   }
 241:Core/Src/stm32f3xx_hal_msp.c **** 
 242:Core/Src/stm32f3xx_hal_msp.c **** }
 418              		.loc 1 242 1 view .LVU128
 419 0012 10BD     		pop	{r4, pc}
 420              	.LVL18:
 421              	.L27:
 199:Core/Src/stm32f3xx_hal_msp.c ****     if(HAL_RCC_ADC12_CLK_ENABLED==0){
 422              		.loc 1 199 5 is_stmt 1 view .LVU129
 199:Core/Src/stm32f3xx_hal_msp.c ****     if(HAL_RCC_ADC12_CLK_ENABLED==0){
 423              		.loc 1 199 30 is_stmt 0 view .LVU130
 424 0014 134A     		ldr	r2, .L29+4
 425 0016 1368     		ldr	r3, [r2]
 426 0018 013B     		subs	r3, r3, #1
 427 001a 1360     		str	r3, [r2]
 200:Core/Src/stm32f3xx_hal_msp.c ****       __HAL_RCC_ADC12_CLK_DISABLE();
 428              		.loc 1 200 5 is_stmt 1 view .LVU131
 200:Core/Src/stm32f3xx_hal_msp.c ****       __HAL_RCC_ADC12_CLK_DISABLE();
 429              		.loc 1 200 7 is_stmt 0 view .LVU132
 430 001c 23B9     		cbnz	r3, .L23
 201:Core/Src/stm32f3xx_hal_msp.c ****     }
 431              		.loc 1 201 7 is_stmt 1 view .LVU133
 432 001e 124A     		ldr	r2, .L29+8
 433 0020 5369     		ldr	r3, [r2, #20]
 434 0022 23F08053 		bic	r3, r3, #268435456
 435 0026 5361     		str	r3, [r2, #20]
 436              	.L23:
 209:Core/Src/stm32f3xx_hal_msp.c **** 
 437              		.loc 1 209 5 view .LVU134
 438 0028 0721     		movs	r1, #7
 439 002a 4FF09040 		mov	r0, #1207959552
 440              	.LVL19:
 209:Core/Src/stm32f3xx_hal_msp.c **** 
 441              		.loc 1 209 5 is_stmt 0 view .LVU135
 442 002e FFF7FEFF 		bl	HAL_GPIO_DeInit
 443              	.LVL20:
 212:Core/Src/stm32f3xx_hal_msp.c ****   /* USER CODE BEGIN ADC1_MspDeInit 1 */
 444              		.loc 1 212 5 is_stmt 1 view .LVU136
 445 0032 A06B     		ldr	r0, [r4, #56]
 446 0034 FFF7FEFF 		bl	HAL_DMA_DeInit
 447              	.LVL21:
 448 0038 EBE7     		b	.L21
 449              	.LVL22:
 450              	.L28:
 223:Core/Src/stm32f3xx_hal_msp.c ****     if(HAL_RCC_ADC12_CLK_ENABLED==0){
 451              		.loc 1 223 5 view .LVU137
 223:Core/Src/stm32f3xx_hal_msp.c ****     if(HAL_RCC_ADC12_CLK_ENABLED==0){
 452              		.loc 1 223 30 is_stmt 0 view .LVU138
 453 003a 0A4A     		ldr	r2, .L29+4
 454 003c 1368     		ldr	r3, [r2]
 455 003e 013B     		subs	r3, r3, #1
ARM GAS  C:\msys64\tmp\ccY9DPQV.s 			page 15


 456 0040 1360     		str	r3, [r2]
 224:Core/Src/stm32f3xx_hal_msp.c ****       __HAL_RCC_ADC12_CLK_DISABLE();
 457              		.loc 1 224 5 is_stmt 1 view .LVU139
 224:Core/Src/stm32f3xx_hal_msp.c ****       __HAL_RCC_ADC12_CLK_DISABLE();
 458              		.loc 1 224 7 is_stmt 0 view .LVU140
 459 0042 23B9     		cbnz	r3, .L25
 225:Core/Src/stm32f3xx_hal_msp.c ****     }
 460              		.loc 1 225 7 is_stmt 1 view .LVU141
 461 0044 084A     		ldr	r2, .L29+8
 462 0046 5369     		ldr	r3, [r2, #20]
 463 0048 23F08053 		bic	r3, r3, #268435456
 464 004c 5361     		str	r3, [r2, #20]
 465              	.L25:
 233:Core/Src/stm32f3xx_hal_msp.c **** 
 466              		.loc 1 233 5 view .LVU142
 467 004e 0E21     		movs	r1, #14
 468 0050 0648     		ldr	r0, .L29+12
 469              	.LVL23:
 233:Core/Src/stm32f3xx_hal_msp.c **** 
 470              		.loc 1 233 5 is_stmt 0 view .LVU143
 471 0052 FFF7FEFF 		bl	HAL_GPIO_DeInit
 472              	.LVL24:
 236:Core/Src/stm32f3xx_hal_msp.c ****   /* USER CODE BEGIN ADC2_MspDeInit 1 */
 473              		.loc 1 236 5 is_stmt 1 view .LVU144
 474 0056 A06B     		ldr	r0, [r4, #56]
 475 0058 FFF7FEFF 		bl	HAL_DMA_DeInit
 476              	.LVL25:
 477              		.loc 1 242 1 is_stmt 0 view .LVU145
 478 005c D9E7     		b	.L21
 479              	.L30:
 480 005e 00BF     		.align	2
 481              	.L29:
 482 0060 00010050 		.word	1342177536
 483 0064 00000000 		.word	HAL_RCC_ADC12_CLK_ENABLED
 484 0068 00100240 		.word	1073876992
 485 006c 00080048 		.word	1207961600
 486              		.cfi_endproc
 487              	.LFE125:
 489              		.section	.text.HAL_CAN_MspInit,"ax",%progbits
 490              		.align	1
 491              		.global	HAL_CAN_MspInit
 492              		.syntax unified
 493              		.thumb
 494              		.thumb_func
 496              	HAL_CAN_MspInit:
 497              	.LVL26:
 498              	.LFB126:
 243:Core/Src/stm32f3xx_hal_msp.c **** 
 244:Core/Src/stm32f3xx_hal_msp.c **** /**
 245:Core/Src/stm32f3xx_hal_msp.c **** * @brief CAN MSP Initialization
 246:Core/Src/stm32f3xx_hal_msp.c **** * This function configures the hardware resources used in this example
 247:Core/Src/stm32f3xx_hal_msp.c **** * @param hcan: CAN handle pointer
 248:Core/Src/stm32f3xx_hal_msp.c **** * @retval None
 249:Core/Src/stm32f3xx_hal_msp.c **** */
 250:Core/Src/stm32f3xx_hal_msp.c **** void HAL_CAN_MspInit(CAN_HandleTypeDef* hcan)
 251:Core/Src/stm32f3xx_hal_msp.c **** {
 499              		.loc 1 251 1 is_stmt 1 view -0
ARM GAS  C:\msys64\tmp\ccY9DPQV.s 			page 16


 500              		.cfi_startproc
 501              		@ args = 0, pretend = 0, frame = 32
 502              		@ frame_needed = 0, uses_anonymous_args = 0
 503              		.loc 1 251 1 is_stmt 0 view .LVU147
 504 0000 00B5     		push	{lr}
 505              	.LCFI7:
 506              		.cfi_def_cfa_offset 4
 507              		.cfi_offset 14, -4
 508 0002 89B0     		sub	sp, sp, #36
 509              	.LCFI8:
 510              		.cfi_def_cfa_offset 40
 252:Core/Src/stm32f3xx_hal_msp.c ****   GPIO_InitTypeDef GPIO_InitStruct = {0};
 511              		.loc 1 252 3 is_stmt 1 view .LVU148
 512              		.loc 1 252 20 is_stmt 0 view .LVU149
 513 0004 0023     		movs	r3, #0
 514 0006 0393     		str	r3, [sp, #12]
 515 0008 0493     		str	r3, [sp, #16]
 516 000a 0593     		str	r3, [sp, #20]
 517 000c 0693     		str	r3, [sp, #24]
 518 000e 0793     		str	r3, [sp, #28]
 253:Core/Src/stm32f3xx_hal_msp.c ****   if(hcan->Instance==CAN)
 519              		.loc 1 253 3 is_stmt 1 view .LVU150
 520              		.loc 1 253 10 is_stmt 0 view .LVU151
 521 0010 0268     		ldr	r2, [r0]
 522              		.loc 1 253 5 view .LVU152
 523 0012 184B     		ldr	r3, .L35
 524 0014 9A42     		cmp	r2, r3
 525 0016 02D0     		beq	.L34
 526              	.LVL27:
 527              	.L31:
 254:Core/Src/stm32f3xx_hal_msp.c ****   {
 255:Core/Src/stm32f3xx_hal_msp.c ****   /* USER CODE BEGIN CAN_MspInit 0 */
 256:Core/Src/stm32f3xx_hal_msp.c **** 
 257:Core/Src/stm32f3xx_hal_msp.c ****   /* USER CODE END CAN_MspInit 0 */
 258:Core/Src/stm32f3xx_hal_msp.c ****     /* Peripheral clock enable */
 259:Core/Src/stm32f3xx_hal_msp.c ****     __HAL_RCC_CAN1_CLK_ENABLE();
 260:Core/Src/stm32f3xx_hal_msp.c **** 
 261:Core/Src/stm32f3xx_hal_msp.c ****     __HAL_RCC_GPIOB_CLK_ENABLE();
 262:Core/Src/stm32f3xx_hal_msp.c ****     /**CAN GPIO Configuration
 263:Core/Src/stm32f3xx_hal_msp.c ****     PB8     ------> CAN_RX
 264:Core/Src/stm32f3xx_hal_msp.c ****     PB9     ------> CAN_TX
 265:Core/Src/stm32f3xx_hal_msp.c ****     */
 266:Core/Src/stm32f3xx_hal_msp.c ****     GPIO_InitStruct.Pin = GPIO_PIN_8|GPIO_PIN_9;
 267:Core/Src/stm32f3xx_hal_msp.c ****     GPIO_InitStruct.Mode = GPIO_MODE_AF_PP;
 268:Core/Src/stm32f3xx_hal_msp.c ****     GPIO_InitStruct.Pull = GPIO_NOPULL;
 269:Core/Src/stm32f3xx_hal_msp.c ****     GPIO_InitStruct.Speed = GPIO_SPEED_FREQ_HIGH;
 270:Core/Src/stm32f3xx_hal_msp.c ****     GPIO_InitStruct.Alternate = GPIO_AF9_CAN;
 271:Core/Src/stm32f3xx_hal_msp.c ****     HAL_GPIO_Init(GPIOB, &GPIO_InitStruct);
 272:Core/Src/stm32f3xx_hal_msp.c **** 
 273:Core/Src/stm32f3xx_hal_msp.c ****     /* CAN interrupt Init */
 274:Core/Src/stm32f3xx_hal_msp.c ****     HAL_NVIC_SetPriority(CAN_RX0_IRQn, 0, 0);
 275:Core/Src/stm32f3xx_hal_msp.c ****     HAL_NVIC_EnableIRQ(CAN_RX0_IRQn);
 276:Core/Src/stm32f3xx_hal_msp.c ****   /* USER CODE BEGIN CAN_MspInit 1 */
 277:Core/Src/stm32f3xx_hal_msp.c **** 
 278:Core/Src/stm32f3xx_hal_msp.c ****   /* USER CODE END CAN_MspInit 1 */
 279:Core/Src/stm32f3xx_hal_msp.c **** 
 280:Core/Src/stm32f3xx_hal_msp.c ****   }
ARM GAS  C:\msys64\tmp\ccY9DPQV.s 			page 17


 281:Core/Src/stm32f3xx_hal_msp.c **** 
 282:Core/Src/stm32f3xx_hal_msp.c **** }
 528              		.loc 1 282 1 view .LVU153
 529 0018 09B0     		add	sp, sp, #36
 530              	.LCFI9:
 531              		.cfi_remember_state
 532              		.cfi_def_cfa_offset 4
 533              		@ sp needed
 534 001a 5DF804FB 		ldr	pc, [sp], #4
 535              	.LVL28:
 536              	.L34:
 537              	.LCFI10:
 538              		.cfi_restore_state
 259:Core/Src/stm32f3xx_hal_msp.c **** 
 539              		.loc 1 259 5 is_stmt 1 view .LVU154
 540              	.LBB8:
 259:Core/Src/stm32f3xx_hal_msp.c **** 
 541              		.loc 1 259 5 view .LVU155
 259:Core/Src/stm32f3xx_hal_msp.c **** 
 542              		.loc 1 259 5 view .LVU156
 543 001e 03F5D633 		add	r3, r3, #109568
 544 0022 DA69     		ldr	r2, [r3, #28]
 545 0024 42F00072 		orr	r2, r2, #33554432
 546 0028 DA61     		str	r2, [r3, #28]
 259:Core/Src/stm32f3xx_hal_msp.c **** 
 547              		.loc 1 259 5 view .LVU157
 548 002a DA69     		ldr	r2, [r3, #28]
 549 002c 02F00072 		and	r2, r2, #33554432
 550 0030 0192     		str	r2, [sp, #4]
 259:Core/Src/stm32f3xx_hal_msp.c **** 
 551              		.loc 1 259 5 view .LVU158
 552 0032 019A     		ldr	r2, [sp, #4]
 553              	.LBE8:
 259:Core/Src/stm32f3xx_hal_msp.c **** 
 554              		.loc 1 259 5 view .LVU159
 261:Core/Src/stm32f3xx_hal_msp.c ****     /**CAN GPIO Configuration
 555              		.loc 1 261 5 view .LVU160
 556              	.LBB9:
 261:Core/Src/stm32f3xx_hal_msp.c ****     /**CAN GPIO Configuration
 557              		.loc 1 261 5 view .LVU161
 261:Core/Src/stm32f3xx_hal_msp.c ****     /**CAN GPIO Configuration
 558              		.loc 1 261 5 view .LVU162
 559 0034 5A69     		ldr	r2, [r3, #20]
 560 0036 42F48022 		orr	r2, r2, #262144
 561 003a 5A61     		str	r2, [r3, #20]
 261:Core/Src/stm32f3xx_hal_msp.c ****     /**CAN GPIO Configuration
 562              		.loc 1 261 5 view .LVU163
 563 003c 5B69     		ldr	r3, [r3, #20]
 564 003e 03F48023 		and	r3, r3, #262144
 565 0042 0293     		str	r3, [sp, #8]
 261:Core/Src/stm32f3xx_hal_msp.c ****     /**CAN GPIO Configuration
 566              		.loc 1 261 5 view .LVU164
 567 0044 029B     		ldr	r3, [sp, #8]
 568              	.LBE9:
 261:Core/Src/stm32f3xx_hal_msp.c ****     /**CAN GPIO Configuration
 569              		.loc 1 261 5 view .LVU165
 266:Core/Src/stm32f3xx_hal_msp.c ****     GPIO_InitStruct.Mode = GPIO_MODE_AF_PP;
ARM GAS  C:\msys64\tmp\ccY9DPQV.s 			page 18


 570              		.loc 1 266 5 view .LVU166
 266:Core/Src/stm32f3xx_hal_msp.c ****     GPIO_InitStruct.Mode = GPIO_MODE_AF_PP;
 571              		.loc 1 266 25 is_stmt 0 view .LVU167
 572 0046 4FF44073 		mov	r3, #768
 573 004a 0393     		str	r3, [sp, #12]
 267:Core/Src/stm32f3xx_hal_msp.c ****     GPIO_InitStruct.Pull = GPIO_NOPULL;
 574              		.loc 1 267 5 is_stmt 1 view .LVU168
 267:Core/Src/stm32f3xx_hal_msp.c ****     GPIO_InitStruct.Pull = GPIO_NOPULL;
 575              		.loc 1 267 26 is_stmt 0 view .LVU169
 576 004c 0223     		movs	r3, #2
 577 004e 0493     		str	r3, [sp, #16]
 268:Core/Src/stm32f3xx_hal_msp.c ****     GPIO_InitStruct.Speed = GPIO_SPEED_FREQ_HIGH;
 578              		.loc 1 268 5 is_stmt 1 view .LVU170
 269:Core/Src/stm32f3xx_hal_msp.c ****     GPIO_InitStruct.Alternate = GPIO_AF9_CAN;
 579              		.loc 1 269 5 view .LVU171
 269:Core/Src/stm32f3xx_hal_msp.c ****     GPIO_InitStruct.Alternate = GPIO_AF9_CAN;
 580              		.loc 1 269 27 is_stmt 0 view .LVU172
 581 0050 0323     		movs	r3, #3
 582 0052 0693     		str	r3, [sp, #24]
 270:Core/Src/stm32f3xx_hal_msp.c ****     HAL_GPIO_Init(GPIOB, &GPIO_InitStruct);
 583              		.loc 1 270 5 is_stmt 1 view .LVU173
 270:Core/Src/stm32f3xx_hal_msp.c ****     HAL_GPIO_Init(GPIOB, &GPIO_InitStruct);
 584              		.loc 1 270 31 is_stmt 0 view .LVU174
 585 0054 0923     		movs	r3, #9
 586 0056 0793     		str	r3, [sp, #28]
 271:Core/Src/stm32f3xx_hal_msp.c **** 
 587              		.loc 1 271 5 is_stmt 1 view .LVU175
 588 0058 03A9     		add	r1, sp, #12
 589 005a 0748     		ldr	r0, .L35+4
 590              	.LVL29:
 271:Core/Src/stm32f3xx_hal_msp.c **** 
 591              		.loc 1 271 5 is_stmt 0 view .LVU176
 592 005c FFF7FEFF 		bl	HAL_GPIO_Init
 593              	.LVL30:
 274:Core/Src/stm32f3xx_hal_msp.c ****     HAL_NVIC_EnableIRQ(CAN_RX0_IRQn);
 594              		.loc 1 274 5 is_stmt 1 view .LVU177
 595 0060 0022     		movs	r2, #0
 596 0062 1146     		mov	r1, r2
 597 0064 1420     		movs	r0, #20
 598 0066 FFF7FEFF 		bl	HAL_NVIC_SetPriority
 599              	.LVL31:
 275:Core/Src/stm32f3xx_hal_msp.c ****   /* USER CODE BEGIN CAN_MspInit 1 */
 600              		.loc 1 275 5 view .LVU178
 601 006a 1420     		movs	r0, #20
 602 006c FFF7FEFF 		bl	HAL_NVIC_EnableIRQ
 603              	.LVL32:
 604              		.loc 1 282 1 is_stmt 0 view .LVU179
 605 0070 D2E7     		b	.L31
 606              	.L36:
 607 0072 00BF     		.align	2
 608              	.L35:
 609 0074 00640040 		.word	1073767424
 610 0078 00040048 		.word	1207960576
 611              		.cfi_endproc
 612              	.LFE126:
 614              		.section	.text.HAL_CAN_MspDeInit,"ax",%progbits
 615              		.align	1
ARM GAS  C:\msys64\tmp\ccY9DPQV.s 			page 19


 616              		.global	HAL_CAN_MspDeInit
 617              		.syntax unified
 618              		.thumb
 619              		.thumb_func
 621              	HAL_CAN_MspDeInit:
 622              	.LVL33:
 623              	.LFB127:
 283:Core/Src/stm32f3xx_hal_msp.c **** 
 284:Core/Src/stm32f3xx_hal_msp.c **** /**
 285:Core/Src/stm32f3xx_hal_msp.c **** * @brief CAN MSP De-Initialization
 286:Core/Src/stm32f3xx_hal_msp.c **** * This function freeze the hardware resources used in this example
 287:Core/Src/stm32f3xx_hal_msp.c **** * @param hcan: CAN handle pointer
 288:Core/Src/stm32f3xx_hal_msp.c **** * @retval None
 289:Core/Src/stm32f3xx_hal_msp.c **** */
 290:Core/Src/stm32f3xx_hal_msp.c **** void HAL_CAN_MspDeInit(CAN_HandleTypeDef* hcan)
 291:Core/Src/stm32f3xx_hal_msp.c **** {
 624              		.loc 1 291 1 is_stmt 1 view -0
 625              		.cfi_startproc
 626              		@ args = 0, pretend = 0, frame = 0
 627              		@ frame_needed = 0, uses_anonymous_args = 0
 628              		.loc 1 291 1 is_stmt 0 view .LVU181
 629 0000 08B5     		push	{r3, lr}
 630              	.LCFI11:
 631              		.cfi_def_cfa_offset 8
 632              		.cfi_offset 3, -8
 633              		.cfi_offset 14, -4
 292:Core/Src/stm32f3xx_hal_msp.c ****   if(hcan->Instance==CAN)
 634              		.loc 1 292 3 is_stmt 1 view .LVU182
 635              		.loc 1 292 10 is_stmt 0 view .LVU183
 636 0002 0268     		ldr	r2, [r0]
 637              		.loc 1 292 5 view .LVU184
 638 0004 084B     		ldr	r3, .L41
 639 0006 9A42     		cmp	r2, r3
 640 0008 00D0     		beq	.L40
 641              	.LVL34:
 642              	.L37:
 293:Core/Src/stm32f3xx_hal_msp.c ****   {
 294:Core/Src/stm32f3xx_hal_msp.c ****   /* USER CODE BEGIN CAN_MspDeInit 0 */
 295:Core/Src/stm32f3xx_hal_msp.c **** 
 296:Core/Src/stm32f3xx_hal_msp.c ****   /* USER CODE END CAN_MspDeInit 0 */
 297:Core/Src/stm32f3xx_hal_msp.c ****     /* Peripheral clock disable */
 298:Core/Src/stm32f3xx_hal_msp.c ****     __HAL_RCC_CAN1_CLK_DISABLE();
 299:Core/Src/stm32f3xx_hal_msp.c **** 
 300:Core/Src/stm32f3xx_hal_msp.c ****     /**CAN GPIO Configuration
 301:Core/Src/stm32f3xx_hal_msp.c ****     PB8     ------> CAN_RX
 302:Core/Src/stm32f3xx_hal_msp.c ****     PB9     ------> CAN_TX
 303:Core/Src/stm32f3xx_hal_msp.c ****     */
 304:Core/Src/stm32f3xx_hal_msp.c ****     HAL_GPIO_DeInit(GPIOB, GPIO_PIN_8|GPIO_PIN_9);
 305:Core/Src/stm32f3xx_hal_msp.c **** 
 306:Core/Src/stm32f3xx_hal_msp.c ****     /* CAN interrupt DeInit */
 307:Core/Src/stm32f3xx_hal_msp.c ****     HAL_NVIC_DisableIRQ(CAN_RX0_IRQn);
 308:Core/Src/stm32f3xx_hal_msp.c ****   /* USER CODE BEGIN CAN_MspDeInit 1 */
 309:Core/Src/stm32f3xx_hal_msp.c **** 
 310:Core/Src/stm32f3xx_hal_msp.c ****   /* USER CODE END CAN_MspDeInit 1 */
 311:Core/Src/stm32f3xx_hal_msp.c ****   }
 312:Core/Src/stm32f3xx_hal_msp.c **** 
 313:Core/Src/stm32f3xx_hal_msp.c **** }
ARM GAS  C:\msys64\tmp\ccY9DPQV.s 			page 20


 643              		.loc 1 313 1 view .LVU185
 644 000a 08BD     		pop	{r3, pc}
 645              	.LVL35:
 646              	.L40:
 298:Core/Src/stm32f3xx_hal_msp.c **** 
 647              		.loc 1 298 5 is_stmt 1 view .LVU186
 648 000c 074A     		ldr	r2, .L41+4
 649 000e D369     		ldr	r3, [r2, #28]
 650 0010 23F00073 		bic	r3, r3, #33554432
 651 0014 D361     		str	r3, [r2, #28]
 304:Core/Src/stm32f3xx_hal_msp.c **** 
 652              		.loc 1 304 5 view .LVU187
 653 0016 4FF44071 		mov	r1, #768
 654 001a 0548     		ldr	r0, .L41+8
 655              	.LVL36:
 304:Core/Src/stm32f3xx_hal_msp.c **** 
 656              		.loc 1 304 5 is_stmt 0 view .LVU188
 657 001c FFF7FEFF 		bl	HAL_GPIO_DeInit
 658              	.LVL37:
 307:Core/Src/stm32f3xx_hal_msp.c ****   /* USER CODE BEGIN CAN_MspDeInit 1 */
 659              		.loc 1 307 5 is_stmt 1 view .LVU189
 660 0020 1420     		movs	r0, #20
 661 0022 FFF7FEFF 		bl	HAL_NVIC_DisableIRQ
 662              	.LVL38:
 663              		.loc 1 313 1 is_stmt 0 view .LVU190
 664 0026 F0E7     		b	.L37
 665              	.L42:
 666              		.align	2
 667              	.L41:
 668 0028 00640040 		.word	1073767424
 669 002c 00100240 		.word	1073876992
 670 0030 00040048 		.word	1207960576
 671              		.cfi_endproc
 672              	.LFE127:
 674              		.section	.text.HAL_HRTIM_MspInit,"ax",%progbits
 675              		.align	1
 676              		.global	HAL_HRTIM_MspInit
 677              		.syntax unified
 678              		.thumb
 679              		.thumb_func
 681              	HAL_HRTIM_MspInit:
 682              	.LVL39:
 683              	.LFB128:
 314:Core/Src/stm32f3xx_hal_msp.c **** 
 315:Core/Src/stm32f3xx_hal_msp.c **** /**
 316:Core/Src/stm32f3xx_hal_msp.c **** * @brief HRTIM MSP Initialization
 317:Core/Src/stm32f3xx_hal_msp.c **** * This function configures the hardware resources used in this example
 318:Core/Src/stm32f3xx_hal_msp.c **** * @param hhrtim: HRTIM handle pointer
 319:Core/Src/stm32f3xx_hal_msp.c **** * @retval None
 320:Core/Src/stm32f3xx_hal_msp.c **** */
 321:Core/Src/stm32f3xx_hal_msp.c **** void HAL_HRTIM_MspInit(HRTIM_HandleTypeDef* hhrtim)
 322:Core/Src/stm32f3xx_hal_msp.c **** {
 684              		.loc 1 322 1 is_stmt 1 view -0
 685              		.cfi_startproc
 686              		@ args = 0, pretend = 0, frame = 8
 687              		@ frame_needed = 0, uses_anonymous_args = 0
 688              		@ link register save eliminated.
ARM GAS  C:\msys64\tmp\ccY9DPQV.s 			page 21


 323:Core/Src/stm32f3xx_hal_msp.c ****   if(hhrtim->Instance==HRTIM1)
 689              		.loc 1 323 3 view .LVU192
 690              		.loc 1 323 12 is_stmt 0 view .LVU193
 691 0000 0268     		ldr	r2, [r0]
 692              		.loc 1 323 5 view .LVU194
 693 0002 094B     		ldr	r3, .L50
 694 0004 9A42     		cmp	r2, r3
 695 0006 00D0     		beq	.L49
 696 0008 7047     		bx	lr
 697              	.L49:
 322:Core/Src/stm32f3xx_hal_msp.c ****   if(hhrtim->Instance==HRTIM1)
 698              		.loc 1 322 1 view .LVU195
 699 000a 82B0     		sub	sp, sp, #8
 700              	.LCFI12:
 701              		.cfi_def_cfa_offset 8
 324:Core/Src/stm32f3xx_hal_msp.c ****   {
 325:Core/Src/stm32f3xx_hal_msp.c ****   /* USER CODE BEGIN HRTIM1_MspInit 0 */
 326:Core/Src/stm32f3xx_hal_msp.c **** 
 327:Core/Src/stm32f3xx_hal_msp.c ****   /* USER CODE END HRTIM1_MspInit 0 */
 328:Core/Src/stm32f3xx_hal_msp.c ****     /* Peripheral clock enable */
 329:Core/Src/stm32f3xx_hal_msp.c ****     __HAL_RCC_HRTIM1_CLK_ENABLE();
 702              		.loc 1 329 5 is_stmt 1 view .LVU196
 703              	.LBB10:
 704              		.loc 1 329 5 view .LVU197
 705              		.loc 1 329 5 view .LVU198
 706 000c 03F51C43 		add	r3, r3, #39936
 707 0010 9A69     		ldr	r2, [r3, #24]
 708 0012 42F00052 		orr	r2, r2, #536870912
 709 0016 9A61     		str	r2, [r3, #24]
 710              		.loc 1 329 5 view .LVU199
 711 0018 9B69     		ldr	r3, [r3, #24]
 712 001a 03F00053 		and	r3, r3, #536870912
 713 001e 0193     		str	r3, [sp, #4]
 714              		.loc 1 329 5 view .LVU200
 715 0020 019B     		ldr	r3, [sp, #4]
 716              	.LBE10:
 717              		.loc 1 329 5 discriminator 1 view .LVU201
 330:Core/Src/stm32f3xx_hal_msp.c ****   /* USER CODE BEGIN HRTIM1_MspInit 1 */
 331:Core/Src/stm32f3xx_hal_msp.c **** 
 332:Core/Src/stm32f3xx_hal_msp.c ****   /* USER CODE END HRTIM1_MspInit 1 */
 333:Core/Src/stm32f3xx_hal_msp.c **** 
 334:Core/Src/stm32f3xx_hal_msp.c ****   }
 335:Core/Src/stm32f3xx_hal_msp.c **** 
 336:Core/Src/stm32f3xx_hal_msp.c **** }
 718              		.loc 1 336 1 is_stmt 0 view .LVU202
 719 0022 02B0     		add	sp, sp, #8
 720              	.LCFI13:
 721              		.cfi_def_cfa_offset 0
 722              		@ sp needed
 723 0024 7047     		bx	lr
 724              	.L51:
 725 0026 00BF     		.align	2
 726              	.L50:
 727 0028 00740140 		.word	1073837056
 728              		.cfi_endproc
 729              	.LFE128:
 731              		.section	.text.HAL_HRTIM_MspPostInit,"ax",%progbits
ARM GAS  C:\msys64\tmp\ccY9DPQV.s 			page 22


 732              		.align	1
 733              		.global	HAL_HRTIM_MspPostInit
 734              		.syntax unified
 735              		.thumb
 736              		.thumb_func
 738              	HAL_HRTIM_MspPostInit:
 739              	.LVL40:
 740              	.LFB129:
 337:Core/Src/stm32f3xx_hal_msp.c **** 
 338:Core/Src/stm32f3xx_hal_msp.c **** void HAL_HRTIM_MspPostInit(HRTIM_HandleTypeDef* hhrtim)
 339:Core/Src/stm32f3xx_hal_msp.c **** {
 741              		.loc 1 339 1 is_stmt 1 view -0
 742              		.cfi_startproc
 743              		@ args = 0, pretend = 0, frame = 24
 744              		@ frame_needed = 0, uses_anonymous_args = 0
 745              		.loc 1 339 1 is_stmt 0 view .LVU204
 746 0000 00B5     		push	{lr}
 747              	.LCFI14:
 748              		.cfi_def_cfa_offset 4
 749              		.cfi_offset 14, -4
 750 0002 87B0     		sub	sp, sp, #28
 751              	.LCFI15:
 752              		.cfi_def_cfa_offset 32
 340:Core/Src/stm32f3xx_hal_msp.c ****   GPIO_InitTypeDef GPIO_InitStruct = {0};
 753              		.loc 1 340 3 is_stmt 1 view .LVU205
 754              		.loc 1 340 20 is_stmt 0 view .LVU206
 755 0004 0023     		movs	r3, #0
 756 0006 0193     		str	r3, [sp, #4]
 757 0008 0293     		str	r3, [sp, #8]
 758 000a 0393     		str	r3, [sp, #12]
 759 000c 0493     		str	r3, [sp, #16]
 760 000e 0593     		str	r3, [sp, #20]
 341:Core/Src/stm32f3xx_hal_msp.c ****   if(hhrtim->Instance==HRTIM1)
 761              		.loc 1 341 3 is_stmt 1 view .LVU207
 762              		.loc 1 341 12 is_stmt 0 view .LVU208
 763 0010 0268     		ldr	r2, [r0]
 764              		.loc 1 341 5 view .LVU209
 765 0012 104B     		ldr	r3, .L56
 766 0014 9A42     		cmp	r2, r3
 767 0016 02D0     		beq	.L55
 768              	.LVL41:
 769              	.L52:
 342:Core/Src/stm32f3xx_hal_msp.c ****   {
 343:Core/Src/stm32f3xx_hal_msp.c ****   /* USER CODE BEGIN HRTIM1_MspPostInit 0 */
 344:Core/Src/stm32f3xx_hal_msp.c **** 
 345:Core/Src/stm32f3xx_hal_msp.c ****   /* USER CODE END HRTIM1_MspPostInit 0 */
 346:Core/Src/stm32f3xx_hal_msp.c **** 
 347:Core/Src/stm32f3xx_hal_msp.c ****     __HAL_RCC_GPIOA_CLK_ENABLE();
 348:Core/Src/stm32f3xx_hal_msp.c ****     /**HRTIM1 GPIO Configuration
 349:Core/Src/stm32f3xx_hal_msp.c ****     PA8     ------> HRTIM1_CHA1
 350:Core/Src/stm32f3xx_hal_msp.c ****     PA9     ------> HRTIM1_CHA2
 351:Core/Src/stm32f3xx_hal_msp.c ****     PA10     ------> HRTIM1_CHB1
 352:Core/Src/stm32f3xx_hal_msp.c ****     PA11     ------> HRTIM1_CHB2
 353:Core/Src/stm32f3xx_hal_msp.c ****     */
 354:Core/Src/stm32f3xx_hal_msp.c ****     GPIO_InitStruct.Pin = GPIO_PIN_8|GPIO_PIN_9|GPIO_PIN_10|GPIO_PIN_11;
 355:Core/Src/stm32f3xx_hal_msp.c ****     GPIO_InitStruct.Mode = GPIO_MODE_AF_PP;
 356:Core/Src/stm32f3xx_hal_msp.c ****     GPIO_InitStruct.Pull = GPIO_NOPULL;
ARM GAS  C:\msys64\tmp\ccY9DPQV.s 			page 23


 357:Core/Src/stm32f3xx_hal_msp.c ****     GPIO_InitStruct.Speed = GPIO_SPEED_FREQ_HIGH;
 358:Core/Src/stm32f3xx_hal_msp.c ****     GPIO_InitStruct.Alternate = GPIO_AF13_HRTIM1;
 359:Core/Src/stm32f3xx_hal_msp.c ****     HAL_GPIO_Init(GPIOA, &GPIO_InitStruct);
 360:Core/Src/stm32f3xx_hal_msp.c **** 
 361:Core/Src/stm32f3xx_hal_msp.c ****   /* USER CODE BEGIN HRTIM1_MspPostInit 1 */
 362:Core/Src/stm32f3xx_hal_msp.c **** 
 363:Core/Src/stm32f3xx_hal_msp.c ****   /* USER CODE END HRTIM1_MspPostInit 1 */
 364:Core/Src/stm32f3xx_hal_msp.c ****   }
 365:Core/Src/stm32f3xx_hal_msp.c **** 
 366:Core/Src/stm32f3xx_hal_msp.c **** }
 770              		.loc 1 366 1 view .LVU210
 771 0018 07B0     		add	sp, sp, #28
 772              	.LCFI16:
 773              		.cfi_remember_state
 774              		.cfi_def_cfa_offset 4
 775              		@ sp needed
 776 001a 5DF804FB 		ldr	pc, [sp], #4
 777              	.LVL42:
 778              	.L55:
 779              	.LCFI17:
 780              		.cfi_restore_state
 347:Core/Src/stm32f3xx_hal_msp.c ****     /**HRTIM1 GPIO Configuration
 781              		.loc 1 347 5 is_stmt 1 view .LVU211
 782              	.LBB11:
 347:Core/Src/stm32f3xx_hal_msp.c ****     /**HRTIM1 GPIO Configuration
 783              		.loc 1 347 5 view .LVU212
 347:Core/Src/stm32f3xx_hal_msp.c ****     /**HRTIM1 GPIO Configuration
 784              		.loc 1 347 5 view .LVU213
 785 001e 03F51C43 		add	r3, r3, #39936
 786 0022 5A69     		ldr	r2, [r3, #20]
 787 0024 42F40032 		orr	r2, r2, #131072
 788 0028 5A61     		str	r2, [r3, #20]
 347:Core/Src/stm32f3xx_hal_msp.c ****     /**HRTIM1 GPIO Configuration
 789              		.loc 1 347 5 view .LVU214
 790 002a 5B69     		ldr	r3, [r3, #20]
 791 002c 03F40033 		and	r3, r3, #131072
 792 0030 0093     		str	r3, [sp]
 347:Core/Src/stm32f3xx_hal_msp.c ****     /**HRTIM1 GPIO Configuration
 793              		.loc 1 347 5 view .LVU215
 794 0032 009B     		ldr	r3, [sp]
 795              	.LBE11:
 347:Core/Src/stm32f3xx_hal_msp.c ****     /**HRTIM1 GPIO Configuration
 796              		.loc 1 347 5 view .LVU216
 354:Core/Src/stm32f3xx_hal_msp.c ****     GPIO_InitStruct.Mode = GPIO_MODE_AF_PP;
 797              		.loc 1 354 5 view .LVU217
 354:Core/Src/stm32f3xx_hal_msp.c ****     GPIO_InitStruct.Mode = GPIO_MODE_AF_PP;
 798              		.loc 1 354 25 is_stmt 0 view .LVU218
 799 0034 4FF47063 		mov	r3, #3840
 800 0038 0193     		str	r3, [sp, #4]
 355:Core/Src/stm32f3xx_hal_msp.c ****     GPIO_InitStruct.Pull = GPIO_NOPULL;
 801              		.loc 1 355 5 is_stmt 1 view .LVU219
 355:Core/Src/stm32f3xx_hal_msp.c ****     GPIO_InitStruct.Pull = GPIO_NOPULL;
 802              		.loc 1 355 26 is_stmt 0 view .LVU220
 803 003a 0223     		movs	r3, #2
 804 003c 0293     		str	r3, [sp, #8]
 356:Core/Src/stm32f3xx_hal_msp.c ****     GPIO_InitStruct.Speed = GPIO_SPEED_FREQ_HIGH;
 805              		.loc 1 356 5 is_stmt 1 view .LVU221
ARM GAS  C:\msys64\tmp\ccY9DPQV.s 			page 24


 357:Core/Src/stm32f3xx_hal_msp.c ****     GPIO_InitStruct.Alternate = GPIO_AF13_HRTIM1;
 806              		.loc 1 357 5 view .LVU222
 357:Core/Src/stm32f3xx_hal_msp.c ****     GPIO_InitStruct.Alternate = GPIO_AF13_HRTIM1;
 807              		.loc 1 357 27 is_stmt 0 view .LVU223
 808 003e 0323     		movs	r3, #3
 809 0040 0493     		str	r3, [sp, #16]
 358:Core/Src/stm32f3xx_hal_msp.c ****     HAL_GPIO_Init(GPIOA, &GPIO_InitStruct);
 810              		.loc 1 358 5 is_stmt 1 view .LVU224
 358:Core/Src/stm32f3xx_hal_msp.c ****     HAL_GPIO_Init(GPIOA, &GPIO_InitStruct);
 811              		.loc 1 358 31 is_stmt 0 view .LVU225
 812 0042 0D23     		movs	r3, #13
 813 0044 0593     		str	r3, [sp, #20]
 359:Core/Src/stm32f3xx_hal_msp.c **** 
 814              		.loc 1 359 5 is_stmt 1 view .LVU226
 815 0046 01A9     		add	r1, sp, #4
 816 0048 4FF09040 		mov	r0, #1207959552
 817              	.LVL43:
 359:Core/Src/stm32f3xx_hal_msp.c **** 
 818              		.loc 1 359 5 is_stmt 0 view .LVU227
 819 004c FFF7FEFF 		bl	HAL_GPIO_Init
 820              	.LVL44:
 821              		.loc 1 366 1 view .LVU228
 822 0050 E2E7     		b	.L52
 823              	.L57:
 824 0052 00BF     		.align	2
 825              	.L56:
 826 0054 00740140 		.word	1073837056
 827              		.cfi_endproc
 828              	.LFE129:
 830              		.section	.text.HAL_HRTIM_MspDeInit,"ax",%progbits
 831              		.align	1
 832              		.global	HAL_HRTIM_MspDeInit
 833              		.syntax unified
 834              		.thumb
 835              		.thumb_func
 837              	HAL_HRTIM_MspDeInit:
 838              	.LVL45:
 839              	.LFB130:
 367:Core/Src/stm32f3xx_hal_msp.c **** /**
 368:Core/Src/stm32f3xx_hal_msp.c **** * @brief HRTIM MSP De-Initialization
 369:Core/Src/stm32f3xx_hal_msp.c **** * This function freeze the hardware resources used in this example
 370:Core/Src/stm32f3xx_hal_msp.c **** * @param hhrtim: HRTIM handle pointer
 371:Core/Src/stm32f3xx_hal_msp.c **** * @retval None
 372:Core/Src/stm32f3xx_hal_msp.c **** */
 373:Core/Src/stm32f3xx_hal_msp.c **** void HAL_HRTIM_MspDeInit(HRTIM_HandleTypeDef* hhrtim)
 374:Core/Src/stm32f3xx_hal_msp.c **** {
 840              		.loc 1 374 1 is_stmt 1 view -0
 841              		.cfi_startproc
 842              		@ args = 0, pretend = 0, frame = 0
 843              		@ frame_needed = 0, uses_anonymous_args = 0
 844              		@ link register save eliminated.
 375:Core/Src/stm32f3xx_hal_msp.c ****   if(hhrtim->Instance==HRTIM1)
 845              		.loc 1 375 3 view .LVU230
 846              		.loc 1 375 12 is_stmt 0 view .LVU231
 847 0000 0268     		ldr	r2, [r0]
 848              		.loc 1 375 5 view .LVU232
 849 0002 054B     		ldr	r3, .L61
ARM GAS  C:\msys64\tmp\ccY9DPQV.s 			page 25


 850 0004 9A42     		cmp	r2, r3
 851 0006 00D0     		beq	.L60
 852              	.L58:
 376:Core/Src/stm32f3xx_hal_msp.c ****   {
 377:Core/Src/stm32f3xx_hal_msp.c ****   /* USER CODE BEGIN HRTIM1_MspDeInit 0 */
 378:Core/Src/stm32f3xx_hal_msp.c **** 
 379:Core/Src/stm32f3xx_hal_msp.c ****   /* USER CODE END HRTIM1_MspDeInit 0 */
 380:Core/Src/stm32f3xx_hal_msp.c ****     /* Peripheral clock disable */
 381:Core/Src/stm32f3xx_hal_msp.c ****     __HAL_RCC_HRTIM1_CLK_DISABLE();
 382:Core/Src/stm32f3xx_hal_msp.c ****   /* USER CODE BEGIN HRTIM1_MspDeInit 1 */
 383:Core/Src/stm32f3xx_hal_msp.c **** 
 384:Core/Src/stm32f3xx_hal_msp.c ****   /* USER CODE END HRTIM1_MspDeInit 1 */
 385:Core/Src/stm32f3xx_hal_msp.c ****   }
 386:Core/Src/stm32f3xx_hal_msp.c **** 
 387:Core/Src/stm32f3xx_hal_msp.c **** }
 853              		.loc 1 387 1 view .LVU233
 854 0008 7047     		bx	lr
 855              	.L60:
 381:Core/Src/stm32f3xx_hal_msp.c ****   /* USER CODE BEGIN HRTIM1_MspDeInit 1 */
 856              		.loc 1 381 5 is_stmt 1 view .LVU234
 857 000a 044A     		ldr	r2, .L61+4
 858 000c 9369     		ldr	r3, [r2, #24]
 859 000e 23F00053 		bic	r3, r3, #536870912
 860 0012 9361     		str	r3, [r2, #24]
 861              		.loc 1 387 1 is_stmt 0 view .LVU235
 862 0014 F8E7     		b	.L58
 863              	.L62:
 864 0016 00BF     		.align	2
 865              	.L61:
 866 0018 00740140 		.word	1073837056
 867 001c 00100240 		.word	1073876992
 868              		.cfi_endproc
 869              	.LFE130:
 871              		.section	.bss.HAL_RCC_ADC12_CLK_ENABLED,"aw",%nobits
 872              		.align	2
 875              	HAL_RCC_ADC12_CLK_ENABLED:
 876 0000 00000000 		.space	4
 877              		.text
 878              	.Letext0:
 879              		.file 2 "Drivers/CMSIS/Device/ST/STM32F3xx/Include/stm32f334x8.h"
 880              		.file 3 "C:/msys64/ucrt64/arm-none-eabi/include/machine/_default_types.h"
 881              		.file 4 "C:/msys64/ucrt64/arm-none-eabi/include/sys/_stdint.h"
 882              		.file 5 "Drivers/CMSIS/Device/ST/STM32F3xx/Include/stm32f3xx.h"
 883              		.file 6 "Drivers/STM32F3xx_HAL_Driver/Inc/stm32f3xx_hal_def.h"
 884              		.file 7 "Drivers/STM32F3xx_HAL_Driver/Inc/stm32f3xx_hal_gpio.h"
 885              		.file 8 "Drivers/STM32F3xx_HAL_Driver/Inc/stm32f3xx_hal_dma.h"
 886              		.file 9 "Drivers/STM32F3xx_HAL_Driver/Inc/stm32f3xx_hal_adc_ex.h"
 887              		.file 10 "Drivers/STM32F3xx_HAL_Driver/Inc/stm32f3xx_hal_adc.h"
 888              		.file 11 "Drivers/STM32F3xx_HAL_Driver/Inc/stm32f3xx_hal_can.h"
 889              		.file 12 "Drivers/STM32F3xx_HAL_Driver/Inc/stm32f3xx_hal_hrtim.h"
 890              		.file 13 "Drivers/STM32F3xx_HAL_Driver/Inc/stm32f3xx_hal_cortex.h"
 891              		.file 14 "Core/Inc/main.h"
ARM GAS  C:\msys64\tmp\ccY9DPQV.s 			page 26

